 Game

 Timestamp is 69372c16 (Mon Dec  8 20:50:46 2025)

 Preferred load address is 00400000

 Start         Length     Name                   Class
 0001:00000000 00000070H .text                   CODE
 0001:00000070 00000010H .text$di                CODE
 0001:00000080 000c1640H .text$mn                CODE
 0001:000c16c0 00001bb0H .text$x                 CODE
 0001:000c3270 0000004dH .text$yd                CODE
 0002:00000000 00000414H .idata$5                DATA
 0002:00000414 00000008H .00cfg                  DATA
 0002:0000041c 00000004H .CRT$XCA                DATA
 0002:00000420 00000004H .CRT$XCAA               DATA
 0002:00000424 00000004H .CRT$XCL                DATA
 0002:00000428 00000004H .CRT$XCZ                DATA
 0002:0000042c 00000004H .CRT$XIA                DATA
 0002:00000430 00000004H .CRT$XIAA               DATA
 0002:00000434 00000004H .CRT$XIAC               DATA
 0002:00000438 00000004H .CRT$XIZ                DATA
 0002:0000043c 00000004H .CRT$XLA                DATA
 0002:00000440 00000004H .CRT$XLZ                DATA
 0002:00000444 00000004H .CRT$XPA                DATA
 0002:00000448 00000004H .CRT$XPZ                DATA
 0002:0000044c 00000004H .CRT$XTA                DATA
 0002:00000450 00000010H .CRT$XTZ                DATA
 0002:00000454 00000000H .gfids$y                DATA
 0002:00000460 0000f5e0H .rdata                  DATA
 0002:0000fa40 00000000H .rdata$CastGuardVftablesA DATA
 0002:0000fa40 00000000H .rdata$CastGuardVftablesC DATA
 0002:0000fa40 00000018H .rdata$T                DATA
 0002:0000fa58 00000c28H .rdata$r                DATA
 0002:00010680 000000acH .rdata$voltmd           DATA
 0002:0001072c 000003c4H .rdata$zzzdbg           DATA
 0002:00010af0 00000004H .rtc$IAA                DATA
 0002:00010af4 00000004H .rtc$IZZ                DATA
 0002:00010af8 00000004H .rtc$TAA                DATA
 0002:00010afc 00000004H .rtc$TZZ                DATA
 0002:00010b00 00000004H .tls                    DATA
 0002:00010b04 00000004H .tls$                   DATA
 0002:00010b08 00000008H .tls$ZZZ                DATA
 0002:00010b10 00001900H .xdata$x                DATA
 0002:00012410 00002194H .edata                  DATA
 0002:000145a4 00000208H .idata$2                DATA
 0002:000147ac 00000014H .idata$3                DATA
 0002:000147c0 00000414H .idata$4                DATA
 0002:00014bd4 00001634H .idata$6                DATA
 0003:00000000 000000c0H .data                   DATA
 0003:000000c0 000000a8H .data$r                 DATA
 0003:00000168 00000458H .data$rs                DATA
 0003:000005c0 000acfb8H .bss                    DATA
 0004:00000000 000001f0H .rsrc$01                DATA
 0004:000001f0 00001df0H .rsrc$02                DATA

  Address         Publics by Value              Rva+Base       Lib:Object

 0000:00000000       ___AbsoluteZero            00000000     <absolute>
 0000:00000000       ___arm64x_extra_rfe_table  00000000     <absolute>
 0000:00000000       ___arm64x_extra_rfe_table_size 00000000     <absolute>
 0000:00000000       ___arm64x_native_entrypoint 00000000     <absolute>
 0000:00000000       ___arm64x_redirection_metadata 00000000     <absolute>
 0000:00000000       ___arm64x_redirection_metadata_count 00000000     <absolute>
 0000:00000000       ___dynamic_value_reloc_table 00000000     <absolute>
 0000:00000000       ___enclave_config          00000000     <absolute>
 0000:00000000       ___guard_check_icall_a64n_fptr 00000000     <absolute>
 0000:00000000       ___guard_eh_cont_count     00000000     <absolute>
 0000:00000000       ___guard_eh_cont_table     00000000     <absolute>
 0000:00000000       ___guard_fids_count        00000000     <absolute>
 0000:00000000       ___guard_fids_table        00000000     <absolute>
 0000:00000000       ___guard_iat_count         00000000     <absolute>
 0000:00000000       ___guard_iat_table         00000000     <absolute>
 0000:00000000       ___guard_longjmp_count     00000000     <absolute>
 0000:00000000       ___guard_longjmp_table     00000000     <absolute>
 0000:00000000       ___hybrid_auxiliary_delayload_iat 00000000     <absolute>
 0000:00000000       ___hybrid_auxiliary_delayload_iat_copy 00000000     <absolute>
 0000:00000000       ___hybrid_auxiliary_iat    00000000     <absolute>
 0000:00000000       ___hybrid_auxiliary_iat_copy 00000000     <absolute>
 0000:00000000       ___hybrid_code_map         00000000     <absolute>
 0000:00000000       ___hybrid_code_map_count   00000000     <absolute>
 0000:00000000       ___hybrid_image_info_bitfield 00000000     <absolute>
 0000:00000000       ___safe_se_handler_count   00000000     <absolute>
 0000:00000000       ___safe_se_handler_table   00000000     <absolute>
 0000:00000000       ___x64_code_ranges_to_entry_points 00000000     <absolute>
 0000:00000000       ___x64_code_ranges_to_entry_points_count 00000000     <absolute>
 0000:0000002c       __tls_array                0000002c     <absolute>
 0000:00000100       ___guard_flags             00000100     <absolute>
 0000:00000000       ___ImageBase               00400000     <linker-defined>
 0001:00000080       ??0CBuildItem@@QAE@XZ      00401080 f   BuildItem.obj
 0001:00000150       ??_ECBuildItem@@UAEPAXI@Z  00401150 f i * CIL library *:* CIL module *
 0001:00000150       ??_GCBuildItem@@UAEPAXI@Z  00401150 f i BuildItem.obj
 0001:00000180       ??1CBuildItem@@UAE@XZ      00401180 f   BuildItem.obj
 0001:00000190       ??0CCharInfo@@QAE@XZ       00401190 f   CharInfo.obj
 0001:000001e0       ??_ECCharInfo@@UAEPAXI@Z   004011e0 f i * CIL library *:* CIL module *
 0001:000001e0       ??_GCCharInfo@@UAEPAXI@Z   004011e0 f i CharInfo.obj
 0001:00000210       ??1CCharInfo@@UAE@XZ       00401210 f   CharInfo.obj
 0001:00000220       ___local_stdio_printf_options 00401220 f i Curse.obj
 0001:00000230       __vsnprintf_l              00401230 f i Curse.obj
 0001:00000270       _sprintf                   00401270 f i Curse.obj
 0001:00000290       ??0CCurse@@QAE@XZ          00401290 f   Curse.obj
 0001:000002a0       ??_ECCurse@@UAEPAXI@Z      004012a0 f i * CIL library *:* CIL module *
 0001:000002a0       ??_GCCurse@@UAEPAXI@Z      004012a0 f i Curse.obj
 0001:000002d0       ??1CCurse@@UAE@XZ          004012d0 f   Curse.obj
 0001:000002e0       ?LoadCurse@CCurse@@QAEXPBD@Z 004012e0 f   Curse.obj
 0001:000003c0       ?filterChar@CCurse@@QAEXPBDPAD0@Z 004013c0 f   Curse.obj
 0001:00000480       ?getField@CCurse@@QAEPADPBDHPAD@Z 00401480 f   Curse.obj
 0001:000004e0       ?IsCurse@CCurse@@QAE_NPBD@Z 004014e0 f   Curse.obj
 0001:00000610       ?ConvertString@CCurse@@QAEPADPADH@Z 00401610 f   Curse.obj
 0001:000008f0       ??0DXC_ddraw@@QAE@XZ       004018f0 f   DXC_ddraw.obj
 0001:00000970       ??_EDXC_ddraw@@UAEPAXI@Z   00401970 f i * CIL library *:* CIL module *
 0001:00000970       ??_GDXC_ddraw@@UAEPAXI@Z   00401970 f i DXC_ddraw.obj
 0001:000009c0       ??1DXC_ddraw@@UAE@XZ       004019c0 f   DXC_ddraw.obj
 0001:00000a70       ?bInit@DXC_ddraw@@QAE_NPAUHWND__@@@Z 00401a70 f   DXC_ddraw.obj
 0001:00001100       ?iFlip@DXC_ddraw@@QAEJXZ   00402100 f   DXC_ddraw.obj
 0001:00001250       ?ChangeDisplayMode@DXC_ddraw@@QAEXPAUHWND__@@@Z 00402250 f   DXC_ddraw.obj
 0001:000015c0       ?pCreateOffScreenSurface@DXC_ddraw@@QAEPAUIDirectDrawSurface7@@GG@Z 004025c0 f   DXC_ddraw.obj
 0001:00001660       ?iSetColorKey@DXC_ddraw@@QAEJPAUIDirectDrawSurface7@@G@Z 00402660 f   DXC_ddraw.obj
 0001:00001690       ?_dwColorMatch@DXC_ddraw@@QAEKPAUIDirectDrawSurface7@@G@Z 00402690 f   DXC_ddraw.obj
 0001:00001720       ?TextOutA@DXC_ddraw@@QAEXHHPADK@Z 00402720 f   DXC_ddraw.obj
 0001:00001780       ?_TestPixelFormat@DXC_ddraw@@QAEXXZ 00402780 f   DXC_ddraw.obj
 0001:00001820       ?_CalcMaxValue@DXC_ddraw@@QAEJHHDDN@Z 00402820 f   DXC_ddraw.obj
 0001:000018a0       ?_CalcMinValue@DXC_ddraw@@QAEJHHD@Z 004028a0 f   DXC_ddraw.obj
 0001:000018f0       ?ClearBackB4@DXC_ddraw@@QAEXXZ 004028f0 f   DXC_ddraw.obj
 0001:00001960       ?DrawShadowBox@DXC_ddraw@@QAEXFFFFH@Z 00402960 f   DXC_ddraw.obj
 0001:00001aa0       ?PutPixel@DXC_ddraw@@QAEXFFGGG@Z 00402aa0 f   DXC_ddraw.obj
 0001:00001b60       ?_GetBackBufferDC@DXC_ddraw@@QAEXXZ 00402b60 f   DXC_ddraw.obj
 0001:00001ba0       ?_ReleaseBackBufferDC@DXC_ddraw@@QAEXXZ 00402ba0 f   DXC_ddraw.obj
 0001:00001bc0       ?BeginGDI@DXC_ddraw@@QAEXXZ 00402bc0 f   DXC_ddraw.obj
 0001:00001be0       ?EndGDI@DXC_ddraw@@QAEXXZ  00402be0 f   DXC_ddraw.obj
 0001:00001c00       ?DrawTextA@DXC_ddraw@@QAEXPAUtagRECT@@PBDK@Z 00402c00 f   DXC_ddraw.obj
 0001:00001c70       ?InitFlipToGDI@DXC_ddraw@@QAEJPAUHWND__@@@Z 00402c70 f   DXC_ddraw.obj
 0001:00001d50       ?ColorTransferRGB@DXC_ddraw@@QAEXKPAH00@Z 00402d50 f   DXC_ddraw.obj
 0001:00001dc0       ?Screenshot@DXC_ddraw@@QAE_NPBDPAUIDirectDrawSurface7@@@Z 00402dc0 f   DXC_ddraw.obj
 0001:00002460       ?ChangeBPP@DXC_ddraw@@QAEXC@Z 00403460 f   DXC_ddraw.obj
 0001:000024c0       ?DrawItemShadowBox@DXC_ddraw@@QAEXFFFFH@Z 004034c0 f   DXC_ddraw.obj
 0001:00002800       ?TermSource@CxFileJpg@CxImageJPG@@SAXPAUjpeg_decompress_struct@@@Z 00403800 f i cximage:ximajpg.obj
 0001:00002800       ?__empty_global_delete@@YAXPAXI@Z 00403800 f i DXC_ddraw.obj
 0001:00002800       ?__global_delete@@YAXPAXI@Z 00403800 f i * CIL library *:* CIL module *
 0001:00002800       @_guard_check_icall_nop@4  00403800 f i MSVCRT:guard_support.obj
 0001:00002800       __initialize_denormal_control 00403800 f i MSVCRT:denormal_control.obj
 0001:00002800       __initialize_invalid_parameter_handler 00403800 f i MSVCRT:invalid_parameter_handler.obj
 0001:00002800       _jpeg_mem_term             00403800 f i Jpeg:Jmemnobs.obj
 0001:00002810       ??0DXC_dinput@@QAE@XZ      00403810 f   DXC_dinput.obj
 0001:00002830       ??_EDXC_dinput@@UAEPAXI@Z  00403830 f i * CIL library *:* CIL module *
 0001:00002830       ??_GDXC_dinput@@UAEPAXI@Z  00403830 f i DXC_dinput.obj
 0001:00002860       ??1DXC_dinput@@UAE@XZ      00403860 f   DXC_dinput.obj
 0001:000028e0       ?bInit@DXC_dinput@@QAE_NPAUHWND__@@PAUHINSTANCE__@@@Z 004038e0 f   DXC_dinput.obj
 0001:000029b0       ?SetAcquire@DXC_dinput@@QAEX_N@Z 004039b0 f   DXC_dinput.obj
 0001:00002a10       ?UpdateMouseState@DXC_dinput@@QAEXPAF00PAD1@Z 00403a10 f   DXC_dinput.obj
 0001:00002af0       ??0CEffect@@QAE@XZ         00403af0 f   Effect.obj
 0001:00002b10       ??_ECEffect@@UAEPAXI@Z     00403b10 f i * CIL library *:* CIL module *
 0001:00002b10       ??_GCEffect@@UAEPAXI@Z     00403b10 f i Effect.obj
 0001:00002b40       ??1CEffect@@UAE@XZ         00403b40 f   Effect.obj
 0001:00002b50       _vsnprintf                 00403b50 f i Game.obj
 0001:00002b90       ??0exception@std@@QAE@ABV01@@Z 00403b90 f i Game.obj
 0001:00002bc0       ?what@exception@std@@UBEPBDXZ 00403bc0 f i Game.obj
 0001:00002bd0       ??_Ebad_alloc@std@@UAEPAXI@Z 00403bd0 f i * CIL library *:* CIL module *
 0001:00002bd0       ??_Ebad_array_new_length@std@@UAEPAXI@Z 00403bd0 f i * CIL library *:* CIL module *
 0001:00002bd0       ??_Ebad_cast@std@@UAEPAXI@Z 00403bd0 f i * CIL library *:* CIL module *
 0001:00002bd0       ??_Eexception@std@@UAEPAXI@Z 00403bd0 f i * CIL library *:* CIL module *
 0001:00002bd0       ??_Gbad_alloc@std@@UAEPAXI@Z 00403bd0 f i Game.obj
 0001:00002bd0       ??_Gbad_array_new_length@std@@UAEPAXI@Z 00403bd0 f i Game.obj
 0001:00002bd0       ??_Gbad_cast@std@@UAEPAXI@Z 00403bd0 f i Game.obj
 0001:00002bd0       ??_Gexception@std@@UAEPAXI@Z 00403bd0 f i Game.obj
 0001:00002c10       ??1bad_alloc@std@@UAE@XZ   00403c10 f i Game.obj
 0001:00002c10       ??1bad_array_new_length@std@@UAE@XZ 00403c10 f i Game.obj
 0001:00002c10       ??1bad_cast@std@@UAE@XZ    00403c10 f i Game.obj
 0001:00002c30       ??0bad_array_new_length@std@@QAE@XZ 00403c30 f i Game.obj
 0001:00002c50       ?_Throw_bad_array_new_length@std@@YAXXZ 00403c50 f i Game.obj
 0001:00002c50       ?__scrt_throw_std_bad_array_new_length@@YAXXZ 00403c50 f i MSVCRT:throw_bad_alloc.obj
 0001:00002c70       ??0bad_array_new_length@std@@QAE@ABV01@@Z 00403c70 f i Game.obj
 0001:00002cb0       ??0bad_alloc@std@@QAE@ABV01@@Z 00403cb0 f i Game.obj
 0001:00002cf0       ?_Xlen_string@std@@YAXXZ   00403cf0 f i Game.obj
 0001:00002d00       ??0bad_cast@std@@QAE@XZ    00403d00 f i Game.obj
 0001:00002d20       ?_Throw_bad_cast@std@@YAXXZ 00403d20 f i Game.obj
 0001:00002d40       ??0bad_cast@std@@QAE@ABV01@@Z 00403d40 f i Game.obj
 0001:00002d80       ??1locale@std@@QAE@XZ      00403d80 f i Game.obj
 0001:00002da0       ??3CMapData@@SAXPAX@Z      00403da0 f i Game.obj
 0001:00002da0       ??3CMsg@@SAXPAX@Z          00403da0 f i Game.obj
 0001:00002da0       ??3CSprite@@SAXPAX@Z       00403da0 f i Game.obj
 0001:00002dc0       ??1CxImage@@UAE@XZ         00403dc0 f i Game.obj
 0001:00002e10       ?LogDebug@@YAXPBDZZ        00403e10 f   Game.obj
 0001:000030f0       ?ReadSettings@CGame@@QAEXXZ 004040f0 f   Game.obj
 0001:000032d0       ?WriteSettings@CGame@@QAEXXZ 004042d0 f   Game.obj
 0001:00003450       ??0CGame@@QAE@XZ           00404450 f   Game.obj
 0001:00003b10       ??_ECGame@@UAEPAXI@Z       00404b10 f i * CIL library *:* CIL module *
 0001:00003b10       ??_GCGame@@UAEPAXI@Z       00404b10 f i Game.obj
 0001:00003b60       ??1CGame@@UAE@XZ           00404b60 f   Game.obj
 0001:00003bb0       ?bInit@CGame@@QAE_NPAUHWND__@@PAUHINSTANCE__@@PAD@Z 00404bb0 f   Game.obj
 0001:00004890       ?Quit@CGame@@QAEXXZ        00405890 f   Game.obj
 0001:00004c20       ?UpdateScreen@CGame@@QAEXXZ 00405c20 f   Game.obj
 0001:00004d90       ?CalcViewPoint@CGame@@QAEXXZ 00405d90 f   Game.obj
 0001:00004f00       ?OnGameSocketEvent@CGame@@QAEXIJ@Z 00405f00 f   Game.obj
 0001:00005000       ?cGetNextMoveDir@CGame@@QAEDFFFF_N0@Z 00406000 f   Game.obj
 0001:00005210       ?_bCheckMoveable@CGame@@QAE_NFF@Z 00406210 f   Game.obj
 0001:00005220       ?bSendCommand@CGame@@QAE_NKGDHHHPADH@Z 00406220 f   Game.obj
 0001:00006370       ?DrawObjects@CGame@@QAEXFFFFFFFF@Z 00407370 f   Game.obj
 0001:000086e0       ?_bDecodeItemConfigFileContents@CGame@@QAE_NPADK@Z 004096e0 f   Game.obj
 0001:00008e80       ?NotifyMsg_MobKillCount@CGame@@QAEXPAD@Z 00409e80 f   Game.obj
 0001:00008f20       ?DrawDialogBox_MobKills@CGame@@QAEXFFFD@Z 00409f20 f   Game.obj
 0001:00009370       ?GameRecvMsgHandler@CGame@@QAEXKPAD@Z 0040a370 f   Game.obj
 0001:00009540       ?ConnectionEstablishHandler@CGame@@QAEXD@Z 0040a540 f   Game.obj
 0001:000096a0       ?InitPlayerResponseHandler@CGame@@QAEXPAD@Z 0040a6a0 f   Game.obj
 0001:00009720       ?UpdateScreen_OnMainMenu@CGame@@QAEXXZ 0040a720 f   Game.obj
 0001:00009ca0       ?MakeSprite@CGame@@QAEXPADFF_N@Z 0040aca0 f   Game.obj
 0001:00009dd0       ?MakeTileSpr@CGame@@QAEXPADFF_N@Z 0040add0 f   Game.obj
 0001:00009f00       ?MakeEffectSpr@CGame@@QAEXPADFF_N@Z 0040af00 f   Game.obj
 0001:0000a060       ?UpdateScreen_OnLoading@CGame@@QAEX_N@Z 0040b060 f   Game.obj
 0001:0000f6e0       ?UpdateScreen_OnLoading_Progress@CGame@@QAEXXZ 004106e0 f   Game.obj
 0001:0000f770       ?OnTimer@CGame@@QAEXXZ     00410770 f   Game.obj
 0001:0000f930       ?_bCheckDlgBoxClick@CGame@@QAE_NFF@Z 00410930 f   Game.obj
 0001:0000fe50       ?_bCheckDlgBoxDoubleClick@CGame@@QAE_NFF@Z 00410e50 f   Game.obj
 0001:0000ff30       ?bDlgBoxPress_Inventory@CGame@@QAE_NFF@Z 00410f30 f   Game.obj
 0001:00010150       ?_SetItemOrder@CGame@@QAEXDD@Z 00411150 f   Game.obj
 0001:000101d0       ?_bCheckDraggingItemRelease@CGame@@QAE_NFF@Z 004111d0 f   Game.obj
 0001:000103d0       ?bItemDrop_Enchanting@CGame@@QAEXXZ 004113d0 f   Game.obj
 0001:00010440       ?bItemDrop_ExternalScreen@CGame@@QAEXDFF@Z 00411440 f   Game.obj
 0001:000109d0       ?CommonEventHandler@CGame@@QAEXPAD@Z 004119d0 f   Game.obj
 0001:00010af0       ?ClearGuildNameList@CGame@@QAEXXZ 00411af0 f   Game.obj
 0001:00010b30       ?InitGameSettings@CGame@@QAEXXZ 00411b30 f   Game.obj
 0001:00011190       ?_GetHairColorRGB@CGame@@QAEXHPAH00@Z 00412190 f   Game.obj
 0001:000113d0       ?DlgBoxClick_GuildMenu@CGame@@QAEXFF@Z 004123d0 f   Game.obj
 0001:00011d50       ?CreateNewGuildResponseHandler@CGame@@QAEXPAD@Z 00412d50 f   Game.obj
 0001:00011d90       ?InitPlayerCharacteristics@CGame@@QAEXPAD@Z 00412d90 f   Game.obj
 0001:00012030       ?DisbandGuildResponseHandler@CGame@@QAEXPAD@Z 00413030 f   Game.obj
 0001:00012090       ?_PutGuildOperationList@CGame@@QAEXPADD@Z 00413090 f   Game.obj
 0001:00012100       ?_ShiftGuildOperationList@CGame@@QAEXXZ 00413100 f   Game.obj
 0001:00012180       ?DlgBoxClick_GuildOp@CGame@@QAEXFF@Z 00413180 f   Game.obj
 0001:00012420       ?AddEventList@CGame@@QAEXPADD_N@Z 00413420 f   Game.obj
 0001:00012550       ?bAddNewEffect@CGame@@QAEXFHHHHDH@Z 00413550 f   Game.obj
 0001:00014bf0       ?DrawEffects@CGame@@QAEXXZ 00415bf0 f   Game.obj
 0001:000166e0       ?bItemDrop_IconPannel@CGame@@QAEXFF@Z 004176e0 f   Game.obj
 0001:000167a0       ?DrawEffectLights@CGame@@QAEXXZ 004177a0 f   Game.obj
 0001:00016d50       ?_LoadShopMenuContents@CGame@@QAEXD@Z 00417d50 f   Game.obj
 0001:00016f10       ?__bDecodeContentsAndBuildItemForSaleList@CGame@@QAE_NPAD@Z 00417f10 f   Game.obj
 0001:00017230       ?PutString_SprFont@CGame@@QAEXHHPADFFF@Z 00418230 f   Game.obj
 0001:000173d0       ?PutString_SprFont2@CGame@@QAEXHHPADFFF@Z 004183d0 f   Game.obj
 0001:000175d0       ?PutString_SprFont3@CGame@@QAEXHHPADFFF_NH@Z 004185d0 f   Game.obj
 0001:00017910       ?PutString_SprNum@CGame@@QAEXHHPADFFF@Z 00418910 f   Game.obj
 0001:00017ae0       ?PutString@CGame@@QAEXHHPADK_ND1@Z 00418ae0 f   Game.obj
 0001:00017cf0       ?PutString@CGame@@QAEXHHPADK@Z 00418cf0 f   Game.obj
 0001:00017d20       ?PutString2@CGame@@QAEXHHPADFFF@Z 00418d20 f   Game.obj
 0001:00017db0       ?PutAlignedString@CGame@@QAEXHHHPADFFF@Z 00418db0 f   Game.obj
 0001:00017e30       ?bInitMagicCfgList@CGame@@QAE_NXZ 00418e30 f   Game.obj
 0001:00018360       ?bCheckImportantFile@CGame@@QAE_NXZ 00419360 f   Game.obj
 0001:000183c0       ?bInitSkillCfgList@CGame@@QAE_NXZ 004193c0 f   Game.obj
 0001:000187e0       ?_bGetIsStringIsNumber@CGame@@QAE_NPAD@Z 004197e0 f   Game.obj
 0001:00018830       ?RequestFullObjectData@CGame@@QAEXG@Z 00419830 f   Game.obj
 0001:00018920       ?DrawObject_OnAttack@CGame@@QAI_NHHHH_NKHH@Z 00419920 f   Game.obj
 0001:0001ade0       ?DrawObject_OnAttackMove@CGame@@QAI_NHHHH_NKHH@Z 0041bde0 f   Game.obj
 0001:0001d0d0       ?DrawObject_OnMagic@CGame@@QAI_NHHHH_NKHH@Z 0041e0d0 f   Game.obj
 0001:0001dd90       ?DrawObject_OnGetItem@CGame@@QAI_NHHHH_NKHH@Z 0041ed90 f   Game.obj
 0001:0001eb20       ?DrawObject_OnDamage@CGame@@QAI_NHHHH_NKHH@Z 0041fb20 f   Game.obj
 0001:000221d0       ?DrawObject_OnDying@CGame@@QAI_NHHHH_NKHH@Z 004231d0 f   Game.obj
 0001:00023640       ?DrawObject_OnDead@CGame@@QAI_NHHHH_NKHH@Z 00424640 f   Game.obj
 0001:000242b0       ?DrawObject_OnMove@CGame@@QAI_NHHHH_NKHH0@Z 004252b0 f   Game.obj
 0001:00026ca0       ?DrawObject_OnDamageMove@CGame@@QAI_NHHHH_NKHH0@Z 00427ca0 f   Game.obj
 0001:000288d0       ?DrawObject_OnMove_ForMenu@CGame@@QAI_NHHHH_NKHH@Z 004298d0 f   Game.obj
 0001:0002a1a0       ?DrawObject_OnStop@CGame@@QAI_NHHHH_NKHH@Z 0042b1a0 f   Game.obj
 0001:0002ca50       ?_ReadMapData@CGame@@QAEXFFPAD@Z 0042da50 f   Game.obj
 0001:0002cd00       ?LogEventHandler@CGame@@QAEXPAD@Z 0042dd00 f   Game.obj
 0001:0002ceb0       ?OnLogSocketEvent@CGame@@QAEXIJ@Z 0042deb0 f   Game.obj
 0001:0002cf70       ?LogResponseHandler@CGame@@QAEXPAD@Z 0042df70 f   Game.obj
 0001:0002da30       ?LogRecvMsgHandler@CGame@@QAEXPAD@Z 0042ea30 f   Game.obj
 0001:0002da50       ?UpdateScreen_OnMsg@CGame@@QAEXXZ 0042ea50 f   Game.obj
 0001:0002dc90       ?_InitOnCreateNewCharacter@CGame@@QAEXXZ 0042ec90 f   Game.obj
 0001:0002dd20       ?ChangeGameMode@CGame@@QAEXD@Z 0042ed20 f   Game.obj
 0001:0002dd90       ?bReadLoginConfigFile@CGame@@QAE_NPAD@Z 0042ed90 f   Game.obj
 0001:0002e070       ?ReleaseUnusedSprites@CGame@@QAEXXZ 0042f070 f   Game.obj
 0001:0002e1d0       ?PutChatScrollList@CGame@@QAEXPADD@Z 0042f1d0 f   Game.obj
 0001:0002e2a0       ?ChatMsgHandler@CGame@@QAEXPAD@Z 0042f2a0 f   Game.obj
 0001:0002e740       ?ReleaseTimeoverChatMsg@CGame@@QAEXXZ 0042f740 f   Game.obj
 0001:0002e800       ?DrawBackground@CGame@@QAEXFFFF@Z 0042f800 f   Game.obj
 0001:0002eae0       ?bEffectFrameCounter@CGame@@QAE_NXZ 0042fae0 f   Game.obj
 0001:000322f0       ?DrawObject_OnRun@CGame@@QAI_NHHHH_NKHH0@Z 004332f0 f   Game.obj
 0001:000346f0       ?GetPlayerTurn@CGame@@QAEXXZ 004356f0 f   Game.obj
 0001:00034870       ?_iCheckDlgBoxFocus@CGame@@QAEHFFD@Z 00435870 f   Game.obj
 0001:00034e40       ?InitItemList@CGame@@QAEXPAD@Z 00435e40 f   Game.obj
 0001:000352e0       ?DrawDialogBox_GuideMap@CGame@@QAEXFFD@Z 004362e0 f   Game.obj
 0001:00035e70       ?DrawDialogBoxs@CGame@@QAEXFFFD@Z 00436e70 f   Game.obj
 0001:00036360       ?_Draw_CharacterBody@CGame@@QAEXFFF@Z 00437360 f   Game.obj
 0001:00036480       ?EnableDialogBox@CGame@@QAEXHHHHPAD@Z 00437480 f   Game.obj
 0001:000370e0       ?DisableDialogBox@CGame@@QAEXH@Z 004380e0 f   Game.obj
 0001:00037570       ?iGetTopDialogBoxIndex@CGame@@QAEHXZ 00438570 f   Game.obj
 0001:00037590       ?DlgBoxClick_IconPannel@CGame@@QAEXFF@Z 00438590 f   Game.obj
 0001:00037820       ?DrawChatMsgs@CGame@@QAEXFFFF@Z 00438820 f   Game.obj
 0001:00037960       ?_LoadTextDlgContents@CGame@@QAEXH@Z 00438960 f   Game.obj
 0001:00037bf0       ?_iLoadTextDlgContents2@CGame@@QAEHH@Z 00438bf0 f   Game.obj
 0001:00037e90       ?_LoadGameMsgTextContents@CGame@@QAEXXZ 00438e90 f   Game.obj
 0001:00038130       ?DlgBoxClick_Party@CGame@@QAEXFF@Z 00439130 f   Game.obj
 0001:00038560       ?DlgBoxClick_CrusadeJob@CGame@@QAEXFF@Z 00439560 f   Game.obj
 0001:00038930       ?_RequestMapStatus@CGame@@QAEXPADH@Z 00439930 f   Game.obj
 0001:00038960       ?AddMapStatusInfo@CGame@@QAEXPAD_N@Z 00439960 f   Game.obj
 0001:00038a40       ?GetText@CGame@@QAE_NPAUHWND__@@IIJ@Z 00439a40 f   Game.obj
 0001:00038cc0       ?GetCharKind@CGame@@QAEHPADH@Z 00439cc0 f   Game.obj
 0001:00038cf0       ?ShowReceivedString@CGame@@QAEX_N@Z 00439cf0 f   Game.obj
 0001:00038e90       ?ClearInputString@CGame@@QAEXXZ 00439e90 f   Game.obj
 0001:00038eb0       ?StartInputString@CGame@@QAEXHHEPAD_N@Z 00439eb0 f   Game.obj
 0001:00038ef0       ?EndInputString@CGame@@QAEXXZ 00439ef0 f   Game.obj
 0001:00038f50       ?ReceiveString@CGame@@QAEXPAD@Z 00439f50 f   Game.obj
 0001:00038f80       ?DrawNewDialogBox@CGame@@QAEXDHHH_N0@Z 00439f80 f   Game.obj
 0001:00038fd0       ?DlgBoxClick_Commander@CGame@@QAEXHH@Z 00439fd0 f   Game.obj
 0001:00039b20       ?DlgBoxClick_Constructor@CGame@@QAEXHH@Z 0043ab20 f   Game.obj
 0001:0003a030       ?DlgBoxClick_Soldier@CGame@@QAEXHH@Z 0043b030 f   Game.obj
 0001:0003a2a0       ?SetCameraShakingEffect@CGame@@QAEXFH@Z 0043b2a0 f   Game.obj
 0001:0003a2e0       ?MeteorStrikeComing@CGame@@QAEXH@Z 0043b2e0 f   Game.obj
 0001:0003a360       ?DrawObjectFOE@CGame@@QAEXHHH@Z 0043b360 f   Game.obj
 0001:0003a3a0       ?SetTopMsg@CGame@@QAEXPADE@Z 0043b3a0 f   Game.obj
 0001:0003a3f0       ?DrawTopMsg@CGame@@QAEXXZ  0043b3f0 f   Game.obj
 0001:0003a490       ?DrawDialogBox_IconPannel@CGame@@QAEXFF@Z 0043b490 f   Game.obj
 0001:0003a9f0       ?DrawDialogBox_GaugePannel@CGame@@QAEXXZ 0043b9f0 f   Game.obj
 0001:0003ad80       ?DrawDialogBox_Text@CGame@@QAEXFFFD@Z 0043bd80 f   Game.obj
 0001:0003b0e0       ?DrawDialogBox_WarningMsg@CGame@@QAEXFF@Z 0043c0e0 f   Game.obj
 0001:0003b1e0       ?DrawDialogBox_ItemDrop@CGame@@QAEXFF@Z 0043c1e0 f   Game.obj
 0001:0003b4b0       ?DrawDialogBox_NpcTalk@CGame@@QAEXFFD@Z 0043c4b0 f   Game.obj
 0001:0003b7e0       ?DrawDialogBox_Slates@CGame@@QAEXFFFD@Z 0043c7e0 f   Game.obj
 0001:0003bb30       ?DlgBoxClick_Slates@CGame@@QAEXFF@Z 0043cb30 f   Game.obj
 0001:0003bbc0       ?DlgBoxClick_NpcTalk@CGame@@QAEXHH@Z 0043cbc0 f   Game.obj
 0001:0003bd40       ?DrawDialogBox_Chat@CGame@@QAEXFFFD@Z 0043cd40 f   Game.obj
 0001:0003c030       ?DlgBoxClick_ItemUpgrade@CGame@@QAEXHH@Z 0043d030 f   Game.obj
 0001:0003c3e0       ?DlgBoxClick_SellList@CGame@@QAEXFF@Z 0043d3e0 f   Game.obj
 0001:0003c580       ?DlgBoxClick_LevelUpSettings@CGame@@QAEXFF@Z 0043d580 f   Game.obj
 0001:0003cc60       ?CannotConstruct@CGame@@QAEXH@Z 0043dc60 f   Game.obj
 0001:0003ccf0       ?DisplayCommaNumber_G_cTxt@CGame@@QAEXK@Z 0043dcf0 f   Game.obj
 0001:0003cde0       ?DrawDialogBox_Inventory@CGame@@QAEXHH@Z 0043dde0 f   Game.obj
 0001:0003d190       ?CrusadeContributionResult@CGame@@QAEXH@Z 0043e190 f   Game.obj
 0001:0003d970       ?CrusadeWarResult@CGame@@QAEXH@Z 0043e970 f   Game.obj
 0001:0003e610       ?_Draw_UpdateScreen_OnCreateNewAccount@CGame@@QAEXXZ 0043f610 f   Game.obj
 0001:0003e740       ?DrawChatMsgBox@CGame@@QAEXFFH_N@Z 0043f740 f   Game.obj
 0001:0003f060       ?ClearContents_OnSelectCharacter@CGame@@QAEXXZ 00440060 f   Game.obj
 0001:0003f070       ?UpdateScreen_OnSelectCharacter@CGame@@QAEXXZ 00440070 f   Game.obj
 0001:0003f8c0       ?bDlgBoxPress_Character@CGame@@QAE_NFF@Z 004408c0 f   Game.obj
 0001:00040210       ?DlgBoxClick_CityhallMenu@CGame@@QAEXFF@Z 00441210 f   Game.obj
 0001:00040e60       ?CivilRightAdmissionHandler@CGame@@QAEXPAD@Z 00441e60 f   Game.obj
 0001:00040ff0       ?DlgBoxClick_Text@CGame@@QAEXFF@Z 00441ff0 f   Game.obj
 0001:00041060       ?DlgBoxClick_Inventory@CGame@@QAEXFF@Z 00442060 f   Game.obj
 0001:000411f0       ?DlgBoxClick_Character@CGame@@QAEXFF@Z 004421f0 f   Game.obj
 0001:00041300       ?DlgBoxClick_MagicShop@CGame@@QAEXFF@Z 00442300 f   Game.obj
 0001:000416d0       ?_RemoveChatMsgListByObjectID@CGame@@QAEXH@Z 004426d0 f   Game.obj
 0001:00041710       ?PlaySoundA@CGame@@QAEXDHHJ@Z 00442710 f   Game.obj
 0001:000417c0       ?_bCheckItemByType@CGame@@QAE_ND@Z 004427c0 f   Game.obj
 0001:000417f0       ?DynamicObjectHandler@CGame@@QAEXPAD@Z 004427f0 f   Game.obj
 0001:00041840       ?_bIsItemOnHand@CGame@@QAE_NXZ 00442840 f   Game.obj
 0001:000418d0       ?_iCalcTotalWeight@CGame@@QAEHXZ 004428d0 f   Game.obj
 0001:00041970       ?DlgBoxClick_15AgeMsg@CGame@@QAEXFF@Z 00442970 f   Game.obj
 0001:000419c0       ?DlgBoxClick_WarningMsg@CGame@@QAEXFF@Z 004429c0 f   Game.obj
 0001:00041a10       ?DlgBoxClick_ItemDrop@CGame@@QAEXFF@Z 00442a10 f   Game.obj
 0001:00041b50       ?DlgBoxClick_ItemSellorRepair@CGame@@QAEXFF@Z 00442b50 f   Game.obj
 0001:00041cd0       ?iGetLevelExp@CGame@@QAEKH@Z 00442cd0 f   Game.obj
 0001:00041d20       ?_iGetTotalItemNum@CGame@@QAEHXZ 00442d20 f   Game.obj
 0001:00041d70       ?bCheckExID@CGame@@QAE_NPAD@Z 00442d70 f   Game.obj
 0001:00041e30       ?DrawWhetherEffects@CGame@@QAEXXZ 00442e30 f   Game.obj
 0001:00042110       ?WhetherObjectFrameCounter@CGame@@QAEXXZ 00443110 f   Game.obj
 0001:000423f0       ?SetWhetherStatus@CGame@@QAEX_ND@Z 004433f0 f   Game.obj
 0001:00042510       ?DlgBoxClick_ShutDownMsg@CGame@@QAEXFF@Z 00443510 f   Game.obj
 0001:00042570       ?DrawLine@CGame@@QAEXHHHHHHH@Z 00443570 f   Game.obj
 0001:000427d0       ?DrawLine2@CGame@@QAEXHHHHHHH@Z 004437d0 f   Game.obj
 0001:00042a30       ?_DrawThunderEffect@CGame@@QAEXHHHHHHD@Z 00443a30 f   Game.obj
 0001:00042e20       ?bDlgBoxPress_SkillDlg@CGame@@QAE_NFF@Z 00443e20 f   Game.obj
 0001:00043690       ?_iGetAttackType@CGame@@QAEHXZ 00444690 f   Game.obj
 0001:000438a0       ?_iGetWeaponSkillType@CGame@@QAEHXZ 004448a0 f   Game.obj
 0001:00043940       ?NotifyMsg_AdminInfo@CGame@@QAEXPAD@Z 00444940 f   Game.obj
 0001:000439d0       ?_bCheckBadWords@CGame@@QAE_NPAD@Z 004449d0 f   Game.obj
 0001:00043aa0       ?bItemDrop_ExchangeDialog@CGame@@QAEXFF@Z 00444aa0 f   Game.obj
 0001:00043c10       ?DlgBoxClick_Exchange@CGame@@QAEXFF@Z 00444c10 f   Game.obj
 0001:00043d50       ?DlgBoxClick_ConfirmExchange@CGame@@QAEXFF@Z 00444d50 f   Game.obj
 0001:00043ea0       ?DlgBoxClick_Quest@CGame@@QAEXHH@Z 00444ea0 f   Game.obj
 0001:00043f10       ?_iGetBankItemCount@CGame@@QAEHXZ 00444f10 f   Game.obj
 0001:00043f40       ?_bDecodeBuildItemContents@CGame@@QAE_NXZ 00444f40 f   Game.obj
 0001:00044150       ?_bCheckBuildItemStatus@CGame@@QAE_NXZ 00445150 f   Game.obj
 0001:00044890       ?_ItemDropHistory@CGame@@QAE_NPAD@Z 00445890 f   Game.obj
 0001:00044970       ?__bDecodeBuildItemContents@CGame@@QAE_NPAD@Z 00445970 f   Game.obj
 0001:00044d50       ?_bCheckCurrentBuildItemStatus@CGame@@QAE_NXZ 00445d50 f   Game.obj
 0001:000453d0       ?NoticementHandler@CGame@@QAEXPAD@Z 004463d0 f   Game.obj
 0001:00045480       ?_iGetFOE@CGame@@QAEHH@Z   00446480 f   Game.obj
 0001:00045530       ?_SetIlusionEffect@CGame@@QAEXH@Z 00446530 f   Game.obj
 0001:000455a0       ?ResponsePanningHandler@CGame@@QAEXPAD@Z 004465a0 f   Game.obj
 0001:000456c0       ?bReadItemNameConfigFile@CGame@@QAE_NXZ 004466c0 f   Game.obj
 0001:00045830       ?DrawDialogBox_Map@CGame@@QAEXXZ 00446830 f   Game.obj
 0001:00045bd0       ?NotifyMsg_SetExchangeItem@CGame@@QAEXPAD@Z 00446bd0 f   Game.obj
 0001:00045d00       ?NotifyMsg_DismissGuildApprove@CGame@@QAEXPAD@Z 00446d00 f   Game.obj
 0001:00045eb0       ?NotifyMsg_DismissGuildReject@CGame@@QAEXPAD@Z 00446eb0 f   Game.obj
 0001:00045f00       ?NotifyMsg_DownSkillIndexSet@CGame@@QAEXPAD@Z 00446f00 f   Game.obj
 0001:00045f20       ?NotifyMsg_FishChance@CGame@@QAEXPAD@Z 00446f20 f   Game.obj
 0001:00045f40       ?NotifyMsg_GuildDisbanded@CGame@@QAEXPAD@Z 00446f40 f   Game.obj
 0001:00046150       ?NotifyMsg_WhetherChange@CGame@@QAEXPAD@Z 00447150 f   Game.obj
 0001:00046180       ?NotifyMsg_TimeChange@CGame@@QAEXPAD@Z 00447180 f   Game.obj
 0001:00046210       ?NotifyMsg_RepairItemPrice@CGame@@QAEXPAD@Z 00447210 f   Game.obj
 0001:00046240       ?NotifyMsg_SellItemPrice@CGame@@QAEXPAD@Z 00447240 f   Game.obj
 0001:00046280       ?NotifyMsg_QueryDismissGuildPermission@CGame@@QAEXPAD@Z 00447280 f   Game.obj
 0001:000462d0       ?NotifyMsg_QueryJoinGuildPermission@CGame@@QAEXPAD@Z 004472d0 f   Game.obj
 0001:00046320       ?NotifyMsg_QuestContents@CGame@@QAEXPAD@Z 00447320 f   Game.obj
 0001:000463d0       ?NotifyMsg_PlayerProfile@CGame@@QAEXPAD@Z 004473d0 f   Game.obj
 0001:00046470       ?NotifyMsg_NoticeMsg@CGame@@QAEXPAD@Z 00447470 f   Game.obj
 0001:000464c0       ?NotifyMsg_OpenExchageWindow@CGame@@QAEXPAD@Z 004474c0 f   Game.obj
 0001:00046640       ?NotifyMsg_JoinGuildApprove@CGame@@QAEXPAD@Z 00447640 f   Game.obj
 0001:000466d0       ?NotifyMsg_JoinGuildReject@CGame@@QAEXPAD@Z 004476d0 f   Game.obj
 0001:00046720       ?DlgBoxClick_Help@CGame@@QAEXHH@Z 00447720 f   Game.obj
 0001:00046ae0       ?CreateScreenShot@CGame@@QAEXXZ 00447ae0 f   Game.obj
 0001:00046dc0       ?UpdateScreen_OnConnecting@CGame@@QAEXXZ 00447dc0 f   Game.obj
 0001:00047280       ?UpdateScreen_OnWaitInitData@CGame@@QAEXXZ 00448280 f   Game.obj
 0001:000475f0       ?UpdateScreen_OnConnectionLost@CGame@@QAEXXZ 004485f0 f   Game.obj
 0001:000478d0       ?_bDraw_OnCreateNewCharacter@CGame@@QAE_NPADFFH@Z 004488d0 f   Game.obj
 0001:00047f30       ?UpdateScreen_OnCreateNewCharacter@CGame@@QAEXXZ 00448f30 f   Game.obj
 0001:00049410       ?UpdateScreen_OnCreateNewAccount@CGame@@QAEXXZ 0044a410 f   Game.obj
 0001:0004a7f0       ?UpdateScreen_OnLogin@CGame@@QAEXXZ 0044b7f0 f   Game.obj
 0001:0004af70       ?UpdateScreen_OnSelectServer@CGame@@QAEXXZ 0044bf70 f   Game.obj
 0001:0004b580       ?OnSysKeyDown@CGame@@QAEXI@Z 0044c580 f   Game.obj
 0001:0004b5d0       ?OnSysKeyUp@CGame@@QAEXI@Z 0044c5d0 f   Game.obj
 0001:0004b670       ?OnKeyUp@CGame@@QAEXI@Z    0044c670 f   Game.obj
 0001:0004c960       ?OnKeyDown@CGame@@QAEXI@Z  0044d960 f   Game.obj
 0001:0004cc40       ?UpdateScreen_OnQuit@CGame@@QAEXXZ 0044dc40 f   Game.obj
 0001:0004d030       ?UpdateScreen_OnQueryForceLogin@CGame@@QAEXXZ 0044e030 f   Game.obj
 0001:0004d600       ?UpdateScreen_OnSelectCharacter@CGame@@QAEXFFFF_N@Z 0044e600 f   Game.obj
 0001:0004e490       ?UpdateScreen_OnWaitingResponse@CGame@@QAEXXZ 0044f490 f   Game.obj
 0001:0004e910       ?UpdateScreen_OnQueryDeleteCharacter@CGame@@QAEXXZ 0044f910 f   Game.obj
 0001:0004ef10       ?NotifyMsgHandler@CGame@@QAEXPAD@Z 0044ff10 f   Game.obj
 0001:000526d0       ?ReserveFightzoneResponseHandler@CGame@@QAEXPAD@Z 004536d0 f   Game.obj
 0001:00052790       ?NotifyMsg_CurLifeSpan@CGame@@QAEXPAD@Z 00453790 f   Game.obj
 0001:000527b0       ?UpdateScreen_OnLogResMsg@CGame@@QAEXXZ 004537b0 f   Game.obj
 0001:00053570       ?RetrieveItemHandler@CGame@@QAEXPAD@Z 00454570 f   Game.obj
 0001:000537e0       ?EraseItem@CGame@@QAEXD@Z  004547e0 f   Game.obj
 0001:00053980       ?DlbBoxDoubleClick_Character@CGame@@QAEXFF@Z 00454980 f   Game.obj
 0001:00054610       ?DlbBoxDoubleClick_GuideMap@CGame@@QAEXFF@Z 00455610 f   Game.obj
 0001:000547f0       ?DlbBoxDoubleClick_Inventory@CGame@@QAEXFF@Z 004557f0 f   Game.obj
 0001:00054ed0       ?UpdateScreen_OnChangePassword@CGame@@QAEXXZ 00455ed0 f   Game.obj
 0001:00055ce0       ?DlgBoxClick_SysMenu@CGame@@QAEXFF@Z 00456ce0 f   Game.obj
 0001:000561d0       ?DrawNpcName@CGame@@QAEXFFFH@Z 004571d0 f   Game.obj
 0001:00056570       ?DrawObjectName@CGame@@QAEXFFPADH@Z 00457570 f   Game.obj
 0001:00056b90       ?FindGuildName@CGame@@QAE_NPADPAH@Z 00457b90 f   Game.obj
 0001:00056d40       ?UpdateScreen_OnVersionNotMatch@CGame@@QAEXXZ 00457d40 f   Game.obj
 0001:00057110       ?DrawVersion@CGame@@QAEX_N@Z 00458110 f   Game.obj
 0001:000572c0       ?GetOfficialMapName@CGame@@QAEDPAD0@Z 004582c0 f   Game.obj
 0001:00058820       ?bCheckLocalChatCommand@CGame@@QAE_NPAD@Z 00459820 f   Game.obj
 0001:00058ca0       ?bCheckItemOperationEnabled@CGame@@QAE_ND@Z 00459ca0 f   Game.obj
 0001:00058d90       ?ClearSkillUsingStatus@CGame@@QAEXXZ 00459d90 f   Game.obj
 0001:00058e10       ?NpcTalkHandler@CGame@@QAEXPAD@Z 00459e10 f   Game.obj
 0001:00059a40       ?GetNpcName@CGame@@QAEXFPAD@Z 0045aa40 f   Game.obj
 0001:0005a780       ?GetItemName@CGame@@QAEXPAVCItem@@PAD11@Z 0045b780 f   Game.obj
 0001:0005b3c0       ?GetItemName@CGame@@QAEXPADK000@Z 0045c3c0 f   Game.obj
 0001:0005bfd0       ?_CalcSocketClosed@CGame@@QAEXXZ 0045cfd0 f   Game.obj
 0001:0005c060       ?PointCommandHandler@CGame@@QAEXHHD@Z 0045d060 f   Game.obj
 0001:0005c210       ?UpdateScreen_OnGame@CGame@@QAEXXZ 0045d210 f   Game.obj
 0001:0005dd90       ?StartBGM@CGame@@QAEXXZ    0045ed90 f   Game.obj
 0001:0005e110       ?MotionResponseHandler@CGame@@QAEXPAD@Z 0045f110 f   Game.obj
 0001:0005e540       ?CommandProcessor@CGame@@QAEXFFFFDD@Z 0045f540 f   Game.obj
 0001:00060e50       ?DrawDialogBox_Bank@CGame@@QAEXFFFD@Z 00461e50 f   Game.obj
 0001:00061630       ?DrawDialogBox_Character@CGame@@QAEXFF@Z 00462630 f   Game.obj
 0001:00065360       ?DrawDialogBox_LevelUpSetting@CGame@@QAEXFF@Z 00466360 f   Game.obj
 0001:00065e40       ?DrawDialogBox_CityHallMenu@CGame@@QAEXFF@Z 00466e40 f   Game.obj
 0001:00067880       ?DrawDialogBox_ConfirmExchange@CGame@@QAEXFF@Z 00468880 f   Game.obj
 0001:000679e0       ?DrawDialogBox_Exchange@CGame@@QAEXFF@Z 004689e0 f   Game.obj
 0001:000689a0       ?DrawDialogBox_Fishing@CGame@@QAEXFF@Z 004699a0 f   Game.obj
 0001:00068b70       ?DrawDialogBox_GuildMenu@CGame@@QAEXFF@Z 00469b70 f   Game.obj
 0001:00069f10       ?DrawDialogBox_GuildOperation@CGame@@QAEXFF@Z 0046af10 f   Game.obj
 0001:0006a600       ?DrawDialogBox_Magic@CGame@@QAEXFFF@Z 0046b600 f   Game.obj
 0001:0006b000       ?DrawDialogBox_MagicShop@CGame@@QAEXFFF@Z 0046c000 f   Game.obj
 0001:0006b590       ?DrawDialogBox_ShutDownMsg@CGame@@QAEXFF@Z 0046c590 f   Game.obj
 0001:0006b7b0       ?DrawDialogBox_NpcActionQuery@CGame@@QAEXFF@Z 0046c7b0 f   Game.obj
 0001:0006c6c0       ?DrawDialogBox_Party@CGame@@QAEXFF@Z 0046d6c0 f   Game.obj
 0001:0006d290       ?DrawDialogBox_QueryDropItemAmount@CGame@@QAEXXZ 0046e290 f   Game.obj
 0001:0006d580       ?DrawDialogBox_Quest@CGame@@QAEXHH@Z 0046e580 f   Game.obj
 0001:0006dc30       ?DrawDialogBox_SellList@CGame@@QAEXFF@Z 0046ec30 f   Game.obj
 0001:0006e400       ?DrawDialogBox_SellorRepairItem@CGame@@QAEXFF@Z 0046f400 f   Game.obj
 0001:0006ecb0       ?DrawDialogBox_Shop@CGame@@QAEXFFFD@Z 0046fcb0 f   Game.obj
 0001:00070620       ?DrawDialogBox_Skill@CGame@@QAEXFFFD@Z 00471620 f   Game.obj
 0001:00070be0       ?DrawDialogBox_SkillDlg@CGame@@QAEXFFFD@Z 00471be0 f   Game.obj
 0001:000737d0       ?DrawDialogBox_SysMenu@CGame@@QAEXFFD@Z 004747d0 f   Game.obj
 0001:00074600       ?bItemDrop_Character@CGame@@QAEXXZ 00475600 f   Game.obj
 0001:00074610       ?bItemDrop_Inventory@CGame@@QAEXFF@Z 00475610 f   Game.obj
 0001:00074a40       ?bItemDrop_SellList@CGame@@QAEXFF@Z 00475a40 f   Game.obj
 0001:00074c70       ?bItemDrop_ItemUpgrade@CGame@@QAEXXZ 00475c70 f   Game.obj
 0001:00074ce0       ?bItemDrop_Bank@CGame@@QAEXFF@Z 00475ce0 f   Game.obj
 0001:00074e70       ?bItemDrop_SkillDialog@CGame@@QAEXXZ 00475e70 f   Game.obj
 0001:000752c0       ?bItemDrop_Slates@CGame@@QAEXXZ 004762c0 f   Game.obj
 0001:00075450       ?DlgBoxClick_Bank@CGame@@QAEXFF@Z 00476450 f   Game.obj
 0001:00075550       ?DlgBoxClick_Fish@CGame@@QAEXFF@Z 00476550 f   Game.obj
 0001:000755f0       ?DlgBoxClick_Magic@CGame@@QAEXFF@Z 004765f0 f   Game.obj
 0001:00075a20       ?DlgBoxClick_NpcActionQuery@CGame@@QAEXFF@Z 00476a20 f   Game.obj
 0001:00076540       ?DlgBoxClick_Shop@CGame@@QAEXFF@Z 00477540 f   Game.obj
 0001:00076910       ?DlgBoxClick_Skill@CGame@@QAEXFF@Z 00477910 f   Game.obj
 0001:00076b20       ?DlgBoxClick_SkillDlg@CGame@@QAEXFF@Z 00477b20 f   Game.obj
 0001:00077100       ?ResponseHeldenianTeleportList@CGame@@QAEXPAD@Z 00478100 f   Game.obj
 0001:00077100       ?ResponseTeleportList@CGame@@QAEXPAD@Z 00478100 f   Game.obj
 0001:00077170       ?ResponseChargedTeleport@CGame@@QAEXPAD@Z 00478170 f   Game.obj
 0001:00077230       ?NotifyMsg_CannotGiveItem@CGame@@QAEXPAD@Z 00478230 f   Game.obj
 0001:000772f0       ?NotifyMsg_DropItemFin_CountChanged@CGame@@QAEXPAD@Z 004782f0 f   Game.obj
 0001:00077380       ?NotifyMsg_CannotJoinMoreGuildsMan@CGame@@QAEXPAD@Z 00478380 f   Game.obj
 0001:00077410       ?NotifyMsg_DismissGuildsMan@CGame@@QAEXPAD@Z 00478410 f   Game.obj
 0001:000774c0       ?NotifyMsg_CannotRating@CGame@@QAEXPAD@Z 004784c0 f   Game.obj
 0001:00077520       ?NotifyMsg_CannotRepairItem@CGame@@QAEXPAD@Z 00478520 f   Game.obj
 0001:00077600       ?NotifyMsg_CannotSellItem@CGame@@QAEXPAD@Z 00478600 f   Game.obj
 0001:00077760       ?NotifyMsg_Charisma@CGame@@QAEXPAD@Z 00478760 f   Game.obj
 0001:00077820       ?NotifyMsg_DropItemFin_EraseItem@CGame@@QAEXPAD@Z 00478820 f   Game.obj
 0001:00077960       ?NotifyMsg_EnemyKillReward@CGame@@QAEXPAD@Z 00478960 f   Game.obj
 0001:00077c20       ?NotifyMsg_EventFishMode@CGame@@QAEXPAD@Z 00478c20 f   Game.obj
 0001:00077cb0       ?NotifyMsg_Exp@CGame@@QAEXPAD@Z 00478cb0 f   Game.obj
 0001:00077d20       ?NotifyMsg_ForceDisconn@CGame@@QAEXPAD@Z 00478d20 f   Game.obj
 0001:00077df0       ?NotifyMsg_GiveItemFin_CountChanged@CGame@@QAEXPAD@Z 00478df0 f   Game.obj
 0001:00077ec0       ?NotifyMsg_GiveItemFin_EraseItem@CGame@@QAEXPAD@Z 00478ec0 f   Game.obj
 0001:00078160       ?NotifyMsg_GlobalAttackMode@CGame@@QAEXPAD@Z 00479160 f   Game.obj
 0001:000781b0       ?NotifyMsg_HP@CGame@@QAEXPAD@Z 004791b0 f   Game.obj
 0001:000782d0       ?NotifyMsg_Hunger@CGame@@QAEXPAD@Z 004792d0 f   Game.obj
 0001:00078370       ?NotifyMsg_ItemColorChange@CGame@@QAEXPAD@Z 00479370 f   Game.obj
 0001:00078420       ?NotifyMsg_ItemDepleted_EraseItem@CGame@@QAEXPAD@Z 00479420 f   Game.obj
 0001:00078660       ?NotifyMsg_ItemLifeSpanEnd@CGame@@QAEXPAD@Z 00479660 f   Game.obj
 0001:00078720       ?NotifyMsg_ItemObtained@CGame@@QAEXPAD@Z 00479720 f   Game.obj
 0001:00078af0       ?NotifyMsg_ItemPurchased@CGame@@QAEXPAD@Z 00479af0 f   Game.obj
 0001:00078e60       ?NotifyMsg_ItemReleased@CGame@@QAEXPAD@Z 00479e60 f   Game.obj
 0001:00078f50       ?NotifyMsg_ItemRepaired@CGame@@QAEXPAD@Z 00479f50 f   Game.obj
 0001:00078ff0       ?NotifyMsg_ItemToBank@CGame@@QAEXPAD@Z 00479ff0 f   Game.obj
 0001:00079220       ?NotifyMsg_Killed@CGame@@QAEXPAD@Z 0047a220 f   Game.obj
 0001:00079280       ?NotifyMsg_LevelUp@CGame@@QAEXPAD@Z 0047a280 f   Game.obj
 0001:000794d0       ?NotifyMsg_SettingSuccess@CGame@@QAEXPAD@Z 0047a4d0 f   Game.obj
 0001:000795a0       ?NotifyMsg_MagicEffectOff@CGame@@QAEXPAD@Z 0047a5a0 f   Game.obj
 0001:000797f0       ?NotifyMsg_MagicEffectOn@CGame@@QAEXPAD@Z 0047a7f0 f   Game.obj
 0001:00079a50       ?NotifyMsg_MagicStudyFail@CGame@@QAEXPAD@Z 0047aa50 f   Game.obj
 0001:00079b20       ?NotifyMsg_MagicStudySuccess@CGame@@QAEXPAD@Z 0047ab20 f   Game.obj
 0001:00079bd0       ?NotifyMsg_MP@CGame@@QAEXPAD@Z 0047abd0 f   Game.obj
 0001:00079c90       ?NotifyMsg_NewGuildsMan@CGame@@QAEXPAD@Z 0047ac90 f   Game.obj
 0001:00079d10       ?NotifyMsg_PKcaptured@CGame@@QAEXPAD@Z 0047ad10 f   Game.obj
 0001:00079df0       ?NotifyMsg_PKpenalty@CGame@@QAEXPAD@Z 0047adf0 f   Game.obj
 0001:00079ed0       ?NotifyMsg_PlayerShutUp@CGame@@QAEXPAD@Z 0047aed0 f   Game.obj
 0001:00079fb0       ?NotifyMsg_PlayerStatus@CGame@@QAEX_NPAD@Z 0047afb0 f   Game.obj
 0001:0007a0a0       ?NotifyMsg_QuestReward@CGame@@QAEXPAD@Z 0047b0a0 f   Game.obj
 0001:0007a380       ?NotifyMsg_RatingPlayer@CGame@@QAEXPAD@Z 0047b380 f   Game.obj
 0001:0007a480       ?NotifyMsg_ServerChange@CGame@@QAEXPAD@Z 0047b480 f   Game.obj
 0001:0007a5b0       ?NotifyMsg_SetItemCount@CGame@@QAEXPAD@Z 0047b5b0 f   Game.obj
 0001:0007a5f0       ?NotifyMsg_ShowMap@CGame@@QAEXPAD@Z 0047b5f0 f   Game.obj
 0001:0007a630       ?NotifyMsg_Skill@CGame@@QAEXPAD@Z 0047b630 f   Game.obj
 0001:0007a8f0       ?NotifyMsg_SkillTrainSuccess@CGame@@QAEXPAD@Z 0047b8f0 f   Game.obj
 0001:0007a9a0       ?NotifyMsg_SkillUsingEnd@CGame@@QAEXPAD@Z 0047b9a0 f   Game.obj
 0001:0007aa00       ?NotifyMsg_SP@CGame@@QAEXPAD@Z 0047ba00 f   Game.obj
 0001:0007aa90       ?NotifyMsg_TotalUsers@CGame@@QAEXPAD@Z 0047ba90 f   Game.obj
 0001:0007aad0       ?NotifyMsg_WhisperMode@CGame@@QAEX_NPAD@Z 0047bad0 f   Game.obj
 0001:0007ac20       ?DrawDialogBox_CrusadeJob@CGame@@QAEXFF@Z 0047bc20 f   Game.obj
 0001:0007b1a0       ?_Draw_OnLogin@CGame@@QAEXPAD0HHH@Z 0047c1a0 f   Game.obj
 0001:0007b380       ?ShowEventList@CGame@@QAEXK@Z 0047c380 f   Game.obj
 0001:0007b580       ?RequestTeleportAndWaitData@CGame@@QAEXXZ 0047c580 f   Game.obj
 0001:0007b5b0       ?InitDataResponseHandler@CGame@@QAEXPAD@Z 0047c5b0 f   Game.obj
 0001:0007bc30       ?MotionEventHandler@CGame@@QAEXPAD@Z 0047cc30 f   Game.obj
 0001:0007c4c0       ?DrawDialogBox_Commander@CGame@@QAEXHH@Z 0047d4c0 f   Game.obj
 0001:0007dab0       ?DrawDialogBox_Constructor@CGame@@QAEXHH@Z 0047eab0 f   Game.obj
 0001:0007e880       ?DrawDialogBox_Soldier@CGame@@QAEXHH@Z 0047f880 f   Game.obj
 0001:0007f280       ?GrandMagicResult@CGame@@QAEXPADHHHHHHHH@Z 00480280 f   Game.obj
 0001:00080d30       ?DrawDialogBox_Help@CGame@@QAEXHH@Z 00481d30 f   Game.obj
 0001:00081250       ?DrawDialogBox_ItemUpgrade@CGame@@QAEXHH@Z 00482250 f   Game.obj
 0001:00082760       ?UseShortCut@CGame@@QAEXH@Z 00483760 f   Game.obj
 0001:000829a0       ?iGetManaCost@CGame@@QAEHH@Z 004839a0 f   Game.obj
 0001:00082f20       ?UseMagic@CGame@@QAEXH@Z   00483f20 f   Game.obj
 0001:00083030       ?ReleaseEquipHandler@CGame@@QAEXD@Z 00484030 f   Game.obj
 0001:00083200       ?ItemEquipHandler@CGame@@QAEXD@Z 00484200 f   Game.obj
 0001:00083680       ?CheckActiveAura@CGame@@QAEXFFKF@Z 00484680 f   Game.obj
 0001:00083950       ?CheckActiveAura2@CGame@@QAEXFFKF@Z 00484950 f   Game.obj
 0001:000839b0       ?DrawDialogBox_ChangeStatsMajestic@CGame@@QAEXFF@Z 004849b0 f   Game.obj
 0001:00084150       ?DlgBoxClick_ChangeStatsMajestic@CGame@@QAEXFF@Z 00485150 f   Game.obj
 0001:000847a0       ?DrawAngel@CGame@@QAEXHFFDK@Z 004857a0 f   Game.obj
 0001:00084960       ?bHasHeroSet@CGame@@QAEHFFD@Z 00485960 f   Game.obj
 0001:00084a90       ?ShowHeldenianVictory@CGame@@QAEXF@Z 00485a90 f   Game.obj
 0001:00085160       ?DrawDialogBox_Resurect@CGame@@QAEXFF@Z 00486160 f   Game.obj
 0001:00085260       ?DlgBoxClick_Resurect@CGame@@QAEXFF@Z 00486260 f   Game.obj
 0001:00085310       ?DrawDialogBox_CMDHallMenu@CGame@@QAEXFF@Z 00486310 f   Game.obj
 0001:00086270       ?DlgBoxClick_CMDHallMenu@CGame@@QAEXFF@Z 00487270 f   Game.obj
 0001:000868f0       ?DKGlare@CGame@@QAEXHHPAH@Z 004878f0 f   Game.obj
 0001:00086950       ?Abaddon_corpse@CGame@@QAEXHH@Z 00487950 f   Game.obj
 0001:00086c10       ?DebugLog@CGame@@QAEXPAD@Z 00487c10 f   Game.obj
 0001:00086d30       ?DrawDialogBox_EnchantingUpgradeAll@CGame@@QAEXFF@Z 00487d30 f   Game.obj
 0001:00086fd0       ?DlgBoxClick_EnchantingUpgradeAll@CGame@@QAEXFF@Z 00487fd0 f   Game.obj
 0001:000870a0       ?DrawDialogBox_EnchantingUpgrade@CGame@@QAEXHH@Z 004880a0 f   Game.obj
 0001:000872f0       ?DlgBoxClick_EnchantingUpgrade@CGame@@QAEXHH@Z 004882f0 f   Game.obj
 0001:00087410       ?DrawDialogBox_Enchanting@CGame@@QAEXHH@Z 00488410 f   Game.obj
 0001:000883c0       ?DlgBoxClick_Enchanting@CGame@@QAEXHH@Z 004893c0 f   Game.obj
 0001:00088590       ?DrawDialogBox_EnchantingBag@CGame@@QAEXHH@Z 00489590 f   Game.obj
 0001:00088f70       ?CheckValidShard@CGame@@QAE_NK@Z 00489f70 f   Game.obj
 0001:00088fb0       ?CheckValidFragment@CGame@@QAE_NK@Z 00489fb0 f   Game.obj
 0001:00089000       ?GetShardName@CGame@@QAEPADK@Z 0048a000 f   Game.obj
 0001:000890b0       ?GetFragmentName@CGame@@QAEPADK@Z 0048a0b0 f   Game.obj
 0001:00089170       ?DlgBoxClick_EnchantingBag@CGame@@QAEXHH@Z 0048a170 f   Game.obj
 0001:000894c0       ?NotifyMsg_RepairAllPrices@CGame@@QAEXPAD@Z 0048a4c0 f   Game.obj
 0001:00089540       ?DrawDialogBox_RepairAll@CGame@@QAEXFFF@Z 0048a540 f   Game.obj
 0001:00089910       ?DlgBoxClick_RepairAll@CGame@@QAEXFF@Z 0048a910 f   Game.obj
 0001:00089a30       ??$?6U?$char_traits@D@std@@@std@@YAAAV?$basic_ostream@DU?$char_traits@D@std@@@0@AAV10@PBD@Z 0048aa30 f i Game.obj
 0001:00089c40       ??$endl@DU?$char_traits@D@std@@@std@@YAAAV?$basic_ostream@DU?$char_traits@D@std@@@0@AAV10@@Z 0048ac40 f i Game.obj
 0001:00089c80       ??1?$basic_string@DU?$char_traits@D@std@@V?$allocator@D@2@@std@@QAE@XZ 0048ac80 f i Game.obj
 0001:00089c90       ?imbue@?$basic_filebuf@DU?$char_traits@D@std@@@std@@MAEXABVlocale@2@@Z 0048ac90 f i Game.obj
 0001:00089cd0       ?sync@?$basic_filebuf@DU?$char_traits@D@std@@@std@@MAEHXZ 0048acd0 f i Game.obj
 0001:00089d10       ?setbuf@?$basic_filebuf@DU?$char_traits@D@std@@@std@@MAEPAV?$basic_streambuf@DU?$char_traits@D@std@@@2@PAD_J@Z 0048ad10 f i Game.obj
 0001:00089de0       ?seekpos@?$basic_filebuf@DU?$char_traits@D@std@@@std@@MAE?AV?$fpos@U_Mbstatet@@@2@V32@H@Z 0048ade0 f i Game.obj
 0001:00089eb0       ?seekoff@?$basic_filebuf@DU?$char_traits@D@std@@@std@@MAE?AV?$fpos@U_Mbstatet@@@2@_JHH@Z 0048aeb0 f i Game.obj
 0001:00089fc0       ?xsputn@?$basic_filebuf@DU?$char_traits@D@std@@@std@@MAE_JPBD_J@Z 0048afc0 f i Game.obj
 0001:0008a0c0       ?xsgetn@?$basic_filebuf@DU?$char_traits@D@std@@@std@@MAE_JPAD_J@Z 0048b0c0 f i Game.obj
 0001:0008a1e0       ?uflow@?$basic_filebuf@DU?$char_traits@D@std@@@std@@MAEHXZ 0048b1e0 f i Game.obj
 0001:0008a3f0       ?underflow@?$basic_filebuf@DU?$char_traits@D@std@@@std@@MAEHXZ 0048b3f0 f i Game.obj
 0001:0008a430       ?pbackfail@?$basic_filebuf@DU?$char_traits@D@std@@@std@@MAEHH@Z 0048b430 f i Game.obj
 0001:0008a4e0       ?overflow@?$basic_filebuf@DU?$char_traits@D@std@@@std@@MAEHH@Z 0048b4e0 f i Game.obj
 0001:0008a640       ?_Unlock@?$basic_filebuf@DU?$char_traits@D@std@@@std@@UAEXXZ 0048b640 f i Game.obj
 0001:0008a650       ?_Lock@?$basic_filebuf@DU?$char_traits@D@std@@@std@@UAEXXZ 0048b650 f i Game.obj
 0001:0008a660       ??1?$basic_filebuf@DU?$char_traits@D@std@@@std@@UAE@XZ 0048b660 f i Game.obj
 0001:0008a740       ??_E?$basic_ofstream@DU?$char_traits@D@std@@@std@@UAEPAXI@Z 0048b740 f i * CIL library *:* CIL module *
 0001:0008a740       ??_G?$basic_ofstream@DU?$char_traits@D@std@@@std@@UAEPAXI@Z 0048b740 f i Game.obj
 0001:0008a7a0       ??_E?$basic_filebuf@DU?$char_traits@D@std@@@std@@UAEPAXI@Z 0048b7a0 f i * CIL library *:* CIL module *
 0001:0008a7a0       ??_G?$basic_filebuf@DU?$char_traits@D@std@@@std@@UAEPAXI@Z 0048b7a0 f i Game.obj
 0001:0008a7d0       ??$use_facet@V?$codecvt@DDU_Mbstatet@@@std@@@std@@YAABV?$codecvt@DDU_Mbstatet@@@0@ABVlocale@0@@Z 0048b7d0 f i Game.obj
 0001:0008a8f0       ??1?$unique_ptr@V_Facet_base@std@@U?$default_delete@V_Facet_base@std@@@2@@std@@QAE@XZ 0048b8f0 f i Game.obj
 0001:0008a900       ??1sentry@?$basic_ostream@DU?$char_traits@D@std@@@std@@QAE@XZ 0048b900 f i Game.obj
 0001:0008a970       ??0sentry@?$basic_ostream@DU?$char_traits@D@std@@@std@@QAE@AAV12@@Z 0048b970 f i Game.obj
 0001:0008aa10       ?_Tidy_deallocate@?$basic_string@DU?$char_traits@D@std@@V?$allocator@D@2@@std@@AAEXXZ 0048ba10 f i Game.obj
 0001:0008aa70       ?push_back@?$basic_string@DU?$char_traits@D@std@@V?$allocator@D@2@@std@@QAEXD@Z 0048ba70 f i Game.obj
 0001:0008abc0       ?_Endwrite@?$basic_filebuf@DU?$char_traits@D@std@@@std@@IAE_NXZ 0048bbc0 f i Game.obj
 0001:0008ac90       ??1_Sentry_base@?$basic_ostream@DU?$char_traits@D@std@@@std@@QAE@XZ 0048bc90 f i Game.obj
 0001:0008ace0       ??$_Allocate_manually_vector_aligned@U_Default_allocate_traits@std@@@std@@YAPAXI@Z 0048bce0 f i Game.obj
 0001:0008ad0f       ??_E?$basic_ofstream@DU?$char_traits@D@std@@@std@@$4PPPPPPPM@A@AEPAXI@Z 0048bd0f f i Game.obj
 0001:0008ad20       ??0DX11Renderer@@QAE@XZ    0048bd20 f   DX11Renderer.obj
 0001:0008adb0       ?Initialize@DX11Renderer@@QAE_NPAUHWND__@@HH_N@Z 0048bdb0 f   DX11Renderer.obj
 0001:0008aeb0       ?CreateDeviceAndSwapChain@DX11Renderer@@AAE_NPAUHWND__@@HH@Z 0048beb0 f   DX11Renderer.obj
 0001:0008af90       ?CreateRenderTarget@DX11Renderer@@AAE_NXZ 0048bf90 f   DX11Renderer.obj
 0001:0008afe0       ?CreateRasterizerState@DX11Renderer@@AAE_NXZ 0048bfe0 f   DX11Renderer.obj
 0001:0008b080       ?CreateBlendStates@DX11Renderer@@AAE_NXZ 0048c080 f   DX11Renderer.obj
 0001:0008b1b0       ?OnResize@DX11Renderer@@QAEXHH@Z 0048c1b0 f   DX11Renderer.obj
 0001:0008b280       ?BeginFrame@DX11Renderer@@QAEXMMMM@Z 0048c280 f   DX11Renderer.obj
 0001:0008b2d0       ?EndFrame@DX11Renderer@@QAEXXZ 0048c2d0 f   DX11Renderer.obj
 0001:0008b2f0       ??1?$ComPtr@UID3D11BlendState@@@WRL@Microsoft@@QAE@XZ 0048c2f0 f i DX11Renderer.obj
 0001:0008b2f0       ??1?$ComPtr@UID3D11Buffer@@@WRL@Microsoft@@QAE@XZ 0048c2f0 f i SpriteBatcher.obj
 0001:0008b2f0       ??1?$ComPtr@UID3D11InputLayout@@@WRL@Microsoft@@QAE@XZ 0048c2f0 f i SpriteBatcher.obj
 0001:0008b2f0       ??1?$ComPtr@UID3D11PixelShader@@@WRL@Microsoft@@QAE@XZ 0048c2f0 f i SpriteBatcher.obj
 0001:0008b2f0       ??1?$ComPtr@UID3D11RasterizerState@@@WRL@Microsoft@@QAE@XZ 0048c2f0 f i DX11Renderer.obj
 0001:0008b2f0       ??1?$ComPtr@UID3D11SamplerState@@@WRL@Microsoft@@QAE@XZ 0048c2f0 f i SpriteBatcher.obj
 0001:0008b2f0       ??1?$ComPtr@UID3D11VertexShader@@@WRL@Microsoft@@QAE@XZ 0048c2f0 f i SpriteBatcher.obj
 0001:0008b310       ??0SpriteBatcher@@QAE@PAVDX11Renderer@@@Z 0048c310 f   SpriteBatcher.obj
 0001:0008b4d0       ?Initialize@SpriteBatcher@@QAE_NXZ 0048c4d0 f   SpriteBatcher.obj
 0001:0008b4f0       ?InitializeShader@SpriteBatcher@@AAE_NXZ 0048c4f0 f   SpriteBatcher.obj
 0001:0008ba70       ?InitializeBuffers@SpriteBatcher@@AAE_NXZ 0048ca70 f   SpriteBatcher.obj
 0001:0008bbf0       ?Begin@SpriteBatcher@@QAEXXZ 0048cbf0 f   SpriteBatcher.obj
 0001:0008bc10       ?Draw@SpriteBatcher@@QAEXPAUID3D11ShaderResourceView@@MMMMMMMMW4BlendMode@DX11Renderer@@@Z 0048cc10 f   SpriteBatcher.obj
 0001:0008bd20       ?End@SpriteBatcher@@QAEXXZ 0048cd20 f   SpriteBatcher.obj
 0001:0008bd30       ?SortAndRender@SpriteBatcher@@AAEXXZ 0048cd30 f   SpriteBatcher.obj
 0001:0008c490       ?FlushBatch@SpriteBatcher@@AAEXXZ 0048d490 f   SpriteBatcher.obj
 0001:0008c550       ??1?$vector@USpriteVertex@@V?$allocator@USpriteVertex@@@std@@@std@@QAE@XZ 0048d550 f i SpriteBatcher.obj
 0001:0008c5d0       ??1?$vector@URenderCommand@SpriteBatcher@@V?$allocator@URenderCommand@SpriteBatcher@@@std@@@std@@QAE@XZ 0048d5d0 f i SpriteBatcher.obj
 0001:0008c9c0       ?_Xlength@?$vector@URenderCommand@SpriteBatcher@@V?$allocator@URenderCommand@SpriteBatcher@@@std@@@std@@CAXXZ 0048d9c0 f i SpriteBatcher.obj
 0001:0008c9c0       ?_Xlength@?$vector@USpriteVertex@@V?$allocator@USpriteVertex@@@std@@@std@@CAXXZ 0048d9c0 f i SpriteBatcher.obj
 0001:0008cef0       ??$_Emplace_reallocate@ABUSpriteVertex@@@?$vector@USpriteVertex@@V?$allocator@USpriteVertex@@@std@@@std@@AAEPAUSpriteVertex@@QAU2@ABU2@@Z 0048def0 f i SpriteBatcher.obj
 0001:0008d030       ??$_Emplace_reallocate@ABURenderCommand@SpriteBatcher@@@?$vector@URenderCommand@SpriteBatcher@@V?$allocator@URenderCommand@SpriteBatcher@@@std@@@std@@AAEPAURenderCommand@SpriteBatcher@@QAU23@ABU23@@Z 0048e030 f i SpriteBatcher.obj
 0001:0008d190       ?_Change_array@?$vector@USpriteVertex@@V?$allocator@USpriteVertex@@@std@@@std@@AAEXQAUSpriteVertex@@II@Z 0048e190 f i SpriteBatcher.obj
 0001:0008d220       ?_Change_array@?$vector@URenderCommand@SpriteBatcher@@V?$allocator@URenderCommand@SpriteBatcher@@@std@@@std@@AAEXQAURenderCommand@SpriteBatcher@@II@Z 0048e220 f i SpriteBatcher.obj
 0001:0008d4b0       ??$_Copy_memmove@PAURenderCommand@SpriteBatcher@@PAU12@@std@@YAPAURenderCommand@SpriteBatcher@@PAU12@00@Z 0048e4b0 f i SpriteBatcher.obj
 0001:0008d4b0       ??$_Copy_memmove@PAUSpriteVertex@@PAU1@@std@@YAPAUSpriteVertex@@PAU1@00@Z 0048e4b0 f i SpriteBatcher.obj
 0001:0008d4d0       ??$_Copy_backward_memmove@PAURenderCommand@SpriteBatcher@@PAU12@@std@@YAPAURenderCommand@SpriteBatcher@@PAU12@00@Z 0048e4d0 f i SpriteBatcher.obj
 0001:0008d660       ??$_Copy_memmove_tail@PAURenderCommand@SpriteBatcher@@@std@@YAPAURenderCommand@SpriteBatcher@@QBDQAU12@II@Z 0048e660 f i SpriteBatcher.obj
 0001:0008d660       ??$_Copy_memmove_tail@PAUSpriteVertex@@@std@@YAPAUSpriteVertex@@QBDQAU1@II@Z 0048e660 f i SpriteBatcher.obj
 0001:0008d680       ??0TextureManager@@QAE@PAVDX11Renderer@@@Z 0048e680 f   TextureManager.obj
 0001:0008d6e0       ?UpdateBackBuffer@TextureManager@@QAEXPAXHHH@Z 0048e6e0 f   TextureManager.obj
 0001:0008d950       ??1CHardwareCursor@@QAE@XZ 0048e950 f   HardwareCursor.obj
 0001:0008d960       ?Cleanup@CHardwareCursor@@QAEXXZ 0048e960 f   HardwareCursor.obj
 0001:0008d990       ?CleanupGameHardwareCursor@@YAXXZ 0048e990 f   GameCursorIntegration.obj
 0001:0008d9d0       ??0CGameMonitor@@QAE@XZ    0048e9d0 f   GameMonitor.obj
 0001:0008d9f0       ??_ECGameMonitor@@UAEPAXI@Z 0048e9f0 f i * CIL library *:* CIL module *
 0001:0008d9f0       ??_GCGameMonitor@@UAEPAXI@Z 0048e9f0 f i GameMonitor.obj
 0001:0008da20       ??1CGameMonitor@@UAE@XZ    0048ea20 f   GameMonitor.obj
 0001:0008da50       ?iReadBadWordFileList@CGameMonitor@@QAEHPAD@Z 0048ea50 f   GameMonitor.obj
 0001:0008dbd0       ?bCheckBadWord@CGameMonitor@@QAE_NPAD@Z 0048ebd0 f   GameMonitor.obj
 0001:0008dcd0       ??0CItem@@QAE@XZ           0048ecd0 f   Item.obj
 0001:0008dd00       ??_ECItem@@UAEPAXI@Z       0048ed00 f i * CIL library *:* CIL module *
 0001:0008dd00       ??_GCItem@@UAEPAXI@Z       0048ed00 f i Item.obj
 0001:0008dd30       ??1CItem@@UAE@XZ           0048ed30 f   Item.obj
 0001:0008dd40       ??0CItemName@@QAE@XZ       0048ed40 f   ItemName.obj
 0001:0008dd70       ??_ECItemName@@UAEPAXI@Z   0048ed70 f i * CIL library *:* CIL module *
 0001:0008dd70       ??_GCItemName@@UAEPAXI@Z   0048ed70 f i ItemName.obj
 0001:0008dda0       ??1CItemName@@UAE@XZ       0048eda0 f   ItemName.obj
 0001:0008ddb0       ??0CMagic@@QAE@XZ          0048edb0 f   Magic.obj
 0001:0008dde0       ??_ECMagic@@UAEPAXI@Z      0048ede0 f i * CIL library *:* CIL module *
 0001:0008dde0       ??_GCMagic@@UAEPAXI@Z      0048ede0 f i Magic.obj
 0001:0008de10       ??1CMagic@@UAE@XZ          0048ee10 f   Magic.obj
 0001:0008de20       ??0CMapData@@QAE@PAVCGame@@@Z 0048ee20 f   MapData.obj
 0001:0008f0d0       ??_ECMapData@@UAEPAXI@Z    004900d0 f i * CIL library *:* CIL module *
 0001:0008f0d0       ??_GCMapData@@UAEPAXI@Z    004900d0 f i MapData.obj
 0001:0008f120       ?Init@CMapData@@QAEXXZ     00490120 f   MapData.obj
 0001:0008f1a0       ??1CMapData@@UAE@XZ        004901a0 f   MapData.obj
 0001:0008f230       ?OpenMapDataFile@CMapData@@QAEXPAD@Z 00490230 f   MapData.obj
 0001:0008f3f0       ?_bDecodeMapInfo@CMapData@@QAEXPAD@Z 004903f0 f   MapData.obj
 0001:0008f4d0       ?ShiftMapData@CMapData@@QAEXD@Z 004904d0 f   MapData.obj
 0001:0008f710       ?bGetIsLocateable@CMapData@@QAE_NFF@Z 00490710 f   MapData.obj
 0001:0008f930       ?bIsTeleportLoc@CMapData@@QAE_NFF@Z 00490930 f   MapData.obj
 0001:0008f990       ?bSetOwner@CMapData@@QAI_NGHHHHFFFFHHPADFFFFHH@Z 00490990 f   MapData.obj
 0001:00090e60       ?iObjectFrameCounter@CMapData@@QAEHPADFF@Z 00491e60 f   MapData.obj
 0001:000977d0       ?bSetItem@CMapData@@QAE_NFFFDK_N@Z 004987d0 f   MapData.obj
 0001:000979e0       ?bSetDeadOwner@CMapData@@QAI_NGFFFDFFFFHHPAD@Z 004989e0 f   MapData.obj
 0001:00097ce0       ?bSetChatMsgOwner@CMapData@@QAI_NGFFH@Z 00498ce0 f   MapData.obj
 0001:00097e80       ?ClearChatMsg@CMapData@@QAEXFF@Z 00498e80 f   MapData.obj
 0001:00097f30       ?ClearDeadChatMsg@CMapData@@QAEXFF@Z 00498f30 f   MapData.obj
 0001:00097f70       ?bGetOwner@CMapData@@QAI_NFFPADPAFPAHPAG@Z 00498f70 f   MapData.obj
 0001:00098010       ?bSetDynamicObject@CMapData@@QAE_NFFGF_N@Z 00499010 f   MapData.obj
 0001:00098330       ?GetOwnerStatusByObjectID@CMapData@@QAEXGPAD0PAF111PAH20@Z 00499330 f   MapData.obj
 0001:000983f0       ??0CMisc@@QAE@XZ           004993f0 f   Misc.obj
 0001:00098400       ??_ECMisc@@UAEPAXI@Z       00499400 f i * CIL library *:* CIL module *
 0001:00098400       ??_GCMisc@@UAEPAXI@Z       00499400 f i Misc.obj
 0001:00098430       ??1CMisc@@UAE@XZ           00499430 f   Misc.obj
 0001:00098440       ?cGetNextMoveDir@CMisc@@QAEDFFFF@Z 00499440 f   Misc.obj
 0001:000984c0       ?GetPoint@CMisc@@QAEXHHHHPAH00H@Z 004994c0 f   Misc.obj
 0001:000985e0       ?bCheckValidString@CMisc@@QAE_NPAD@Z 004995e0 f   Misc.obj
 0001:00098620       ?bCheckIMEString@CMisc@@QAE_NPAD@Z 00499620 f   Misc.obj
 0001:00098660       ?ReplaceString@CMisc@@QAEXPADDD@Z 00499660 f   Misc.obj
 0001:000986a0       ?cCalcDirection@CMisc@@QAEDFFFF@Z 004996a0 f   Misc.obj
 0001:00098810       ?ColorTransfer@CMisc@@QAEXDKPAG00@Z 00499810 f   Misc.obj
 0001:000988e0       ?bCheckValidName@CMisc@@QAE_NPAD@Z 004998e0 f   Misc.obj
 0001:00098980       ?_iConvertFileXor@CMisc@@QAE_NPAD0D@Z 00499980 f   Misc.obj
 0001:00098b50       ?iGetTextLengthLoc@CMisc@@QAEHPAUHDC__@@PADH@Z 00499b50 f   Misc.obj
 0001:00098bb0       ?bIsValidEmail@CMisc@@QAE_NPAD@Z 00499bb0 f   Misc.obj
 0001:00098c60       ??0CMobCounter@@QAE@XZ     00499c60 f   MobCounter.obj
 0001:00098c90       ??_ECMobCounter@@UAEPAXI@Z 00499c90 f i * CIL library *:* CIL module *
 0001:00098c90       ??_GCMobCounter@@UAEPAXI@Z 00499c90 f i MobCounter.obj
 0001:00098cc0       ??1CMobCounter@@UAE@XZ     00499cc0 f   MobCounter.obj
 0001:00098cd0       ??0CMouseInterface@@QAE@XZ 00499cd0 f   MouseInterface.obj
 0001:00098d20       ??_ECMouseInterface@@UAEPAXI@Z 00499d20 f i * CIL library *:* CIL module *
 0001:00098d20       ??_GCMouseInterface@@UAEPAXI@Z 00499d20 f i MouseInterface.obj
 0001:00098d50       ??1CMouseInterface@@UAE@XZ 00499d50 f   MouseInterface.obj
 0001:00098d80       ?AddRect@CMouseInterface@@QAEXJJJJ@Z 00499d80 f   MouseInterface.obj
 0001:00098dd0       ?iGetStatus@CMouseInterface@@QAEHHHDPAD@Z 00499dd0 f   MouseInterface.obj
 0001:00098e70       ??0CMsg@@QAE@DPADK@Z       00499e70 f   Msg.obj
 0001:00098f00       ??_ECMsg@@UAEPAXI@Z        00499f00 f i * CIL library *:* CIL module *
 0001:00098f00       ??_GCMsg@@UAEPAXI@Z        00499f00 f i Msg.obj
 0001:00098f40       ??1CMsg@@UAE@XZ            00499f40 f   Msg.obj
 0001:00098f60       ??0CMyDib@@QAE@PADK@Z      00499f60 f   Mydib.obj
 0001:00099070       ??1CMyDib@@QAE@XZ          0049a070 f   Mydib.obj
 0001:00099080       ?PaintImage@CMyDib@@QAEXPAUHDC__@@@Z 0049a080 f   Mydib.obj
 0001:000990d0       ??0CSkill@@QAE@XZ          0049a0d0 f   Skill.obj
 0001:00099100       ??_ECSkill@@UAEPAXI@Z      0049a100 f i * CIL library *:* CIL module *
 0001:00099100       ??_GCSkill@@UAEPAXI@Z      0049a100 f i Skill.obj
 0001:00099130       ??1CSkill@@UAE@XZ          0049a130 f   Skill.obj
 0001:00099140       ??0CSoundBuffer@@QAE@PAUIDirectSound@@U_DSCAPS@@PAD_N@Z 0049a140 f   SoundBuffer.obj
 0001:000991e0       ??_ECSoundBuffer@@UAEPAXI@Z 0049a1e0 f i * CIL library *:* CIL module *
 0001:000991e0       ??_GCSoundBuffer@@UAEPAXI@Z 0049a1e0 f i SoundBuffer.obj
 0001:00099210       ??1CSoundBuffer@@UAE@XZ    0049a210 f   SoundBuffer.obj
 0001:00099280       ?_bCreateSoundBuffer@CSoundBuffer@@QAE_NDKKKK_N@Z 0049a280 f   SoundBuffer.obj
 0001:00099340       ?bCreateBuffer_LoadWavFileContents@CSoundBuffer@@QAE_ND@Z 0049a340 f   SoundBuffer.obj
 0001:00099420       ?_LoadWavContents@CSoundBuffer@@QAE_NDPAU_iobuf@@KK@Z 0049a420 f   SoundBuffer.obj
 0001:00099500       ?Play@CSoundBuffer@@QAE_N_NJH@Z 0049a500 f   SoundBuffer.obj
 0001:00099590       ?GetIdleBuffer@CSoundBuffer@@QAEPAUIDirectSoundBuffer@@XZ 0049a590 f   SoundBuffer.obj
 0001:000996f0       ?SetVolume@CSoundBuffer@@QAEXJ@Z 0049a6f0 f   SoundBuffer.obj
 0001:00099720       ?bStop@CSoundBuffer@@QAEX_N@Z 0049a720 f   SoundBuffer.obj
 0001:00099760       ?_ReleaseSoundBuffer@CSoundBuffer@@QAEXXZ 0049a760 f   SoundBuffer.obj
 0001:00099790       ??0CSprite@@QAE@PAXPAVDXC_ddraw@@PADF_N@Z 0049a790 f   Sprite.obj
 0001:000998a0       ??_ECSprite@@UAEPAXI@Z     0049a8a0 f i * CIL library *:* CIL module *
 0001:000998a0       ??_GCSprite@@UAEPAXI@Z     0049a8a0 f i Sprite.obj
 0001:000998e0       ??1CSprite@@UAE@XZ         0049a8e0 f   Sprite.obj
 0001:00099940       ?_pMakeSpriteSurface@CSprite@@QAEPAUIDirectDrawSurface7@@XZ 0049a940 f   Sprite.obj
 0001:00099a50       ?PutSpriteFast@CSprite@@QAEXHHHK@Z 0049aa50 f   Sprite.obj
 0001:00099c50       ?PutSpriteFastNoColorKey@CSprite@@QAEXHHHK@Z 0049ac50 f   Sprite.obj
 0001:00099e50       ?PutSpriteFastNoColorKeyDst@CSprite@@QAEXPAUIDirectDrawSurface7@@HHHK@Z 0049ae50 f   Sprite.obj
 0001:0009a040       ?PutSpriteFastWidth@CSprite@@QAEXHHHHK_N@Z 0049b040 f   Sprite.obj
 0001:0009a280       ?PutShadowSprite@CSprite@@QAEXHHHK@Z 0049b280 f   Sprite.obj
 0001:0009a530       ?PutShadowSpriteClip@CSprite@@QAEXHHHK@Z 0049b530 f   Sprite.obj
 0001:0009a880       ?PutTransSprite@CSprite@@QAEXHHHKH@Z 0049b880 f   Sprite.obj
 0001:0009ac40       ?PutTransSprite_NoColorKey@CSprite@@QAEXHHHKH@Z 0049bc40 f   Sprite.obj
 0001:0009aff0       ?PutTransSprite70@CSprite@@QAEXHHHK@Z 0049bff0 f   Sprite.obj
 0001:0009b3b0       ?PutTransSprite70_NoColorKey@CSprite@@QAEXHHHK@Z 0049c3b0 f   Sprite.obj
 0001:0009b760       ?PutTransSprite50@CSprite@@QAEXHHHK@Z 0049c760 f   Sprite.obj
 0001:0009bb20       ?PutTransSprite50_NoColorKey@CSprite@@QAEXHHHK@Z 0049cb20 f   Sprite.obj
 0001:0009bed0       ?PutTransSprite25@CSprite@@QAEXHHHK@Z 0049ced0 f   Sprite.obj
 0001:0009c290       ?PutTransSprite25_NoColorKey@CSprite@@QAEXHHHK@Z 0049d290 f   Sprite.obj
 0001:0009c640       ?PutTransSprite2@CSprite@@QAEXHHHK@Z 0049d640 f   Sprite.obj
 0001:0009c9e0       ?PutShiftTransSprite2@CSprite@@QAEXHHHHHK@Z 0049d9e0 f   Sprite.obj
 0001:0009cd80       ?PutFadeSprite@CSprite@@QAEXFFFK@Z 0049dd80 f   Sprite.obj
 0001:0009d050       ?_iOpenSprite@CSprite@@QAE_NXZ 0049e050 f   Sprite.obj
 0001:0009d100       ?_iCloseSprite@CSprite@@QAEXXZ 0049e100 f   Sprite.obj
 0001:0009d140       ?PutSpriteRGB@CSprite@@QAEXHHHHHHK@Z 0049e140 f   Sprite.obj
 0001:0009d510       ?PutTransSpriteRGB@CSprite@@QAEXHHHHHHK@Z 0049e510 f   Sprite.obj
 0001:0009d990       ?_GetSpriteRect@CSprite@@QAEXHHH@Z 0049e990 f   Sprite.obj
 0001:0009db00       ?_SetAlphaDegree@CSprite@@QAEXXZ 0049eb00 f   Sprite.obj
 0001:0009dd70       ?_bCheckCollison@CSprite@@QAE_NHHFHH@Z 0049ed70 f   Sprite.obj
 0001:0009e020       ?PutShiftSpriteFast@CSprite@@QAEXHHHHHK@Z 0049f020 f   Sprite.obj
 0001:0009e210       ?PutRevTransSprite@CSprite@@QAEXHHHKH@Z 0049f210 f   Sprite.obj
 0001:0009e590       ??0CStrTok@@QAE@PAD0@Z     0049f590 f   StrTok.obj
 0001:0009e5d0       ??_ECStrTok@@UAEPAXI@Z     0049f5d0 f i * CIL library *:* CIL module *
 0001:0009e5d0       ??_GCStrTok@@UAEPAXI@Z     0049f5d0 f i StrTok.obj
 0001:0009e600       ??1CStrTok@@UAE@XZ         0049f600 f   StrTok.obj
 0001:0009e610       ?pGet@CStrTok@@QAEPADXZ    0049f610 f   StrTok.obj
 0001:0009e720       ?_bIsSeperator@CStrTok@@QAE_NDD@Z 0049f720 f   StrTok.obj
 0001:0009e760       ??0CTile@@QAE@XZ           0049f760 f   Tile.obj
 0001:0009e7b0       ??_ECTile@@UAEPAXI@Z       0049f7b0 f i * CIL library *:* CIL module *
 0001:0009e7b0       ??_GCTile@@UAEPAXI@Z       0049f7b0 f i Tile.obj
 0001:0009e7e0       ??1CTile@@UAE@XZ           0049f7e0 f   Tile.obj
 0001:0009e7f0       ?Clear@CTile@@QAEXXZ       0049f7f0 f   Tile.obj
 0001:0009e860       ??0CTileSpr@@QAE@XZ        0049f860 f   TileSpr.obj
 0001:0009e880       ??_ECTileSpr@@UAEPAXI@Z    0049f880 f i * CIL library *:* CIL module *
 0001:0009e880       ??_GCTileSpr@@UAEPAXI@Z    0049f880 f i TileSpr.obj
 0001:0009e8b0       ??1CTileSpr@@UAE@XZ        0049f8b0 f   TileSpr.obj
 0001:0009e8c0       ?WndProc@@YGJPAUHWND__@@IIJ@Z 0049f8c0 f   Wmain.obj
 0001:0009ebf0       _WinMain@16                0049fbf0 f   Wmain.obj
 0001:0009ee20       ?InitApplication@@YAHPAUHINSTANCE__@@@Z 0049fe20 f   Wmain.obj
 0001:0009ee90       ?InitInstance@@YA_NPAUHINSTANCE__@@H@Z 0049fe90 f   Wmain.obj
 0001:0009ef00       ?EventLoop@@YAXXZ          0049ff00 f   Wmain.obj
 0001:0009efd0       ?OnDestroy@@YAXXZ          0049ffd0 f   Wmain.obj
 0001:0009f000       ?_TimerFunc@@YGXIIKKK@Z    004a0000 f   Wmain.obj
 0001:0009f020       ?_StartTimer@@YAIK@Z       004a0020 f   Wmain.obj
 0001:0009f060       ?_StopTimer@@YAXI@Z        004a0060 f   Wmain.obj
 0001:0009f090       ?Initialize@@YAXPAD@Z      004a0090 f   Wmain.obj
 0001:0009f230       ??0XSocket@@QAE@PAUHWND__@@H@Z 004a0230 f   XSocket.obj
 0001:0009f2c0       ??_EXSocket@@UAEPAXI@Z     004a02c0 f i * CIL library *:* CIL module *
 0001:0009f2c0       ??_GXSocket@@UAEPAXI@Z     004a02c0 f i XSocket.obj
 0001:0009f310       ??1XSocket@@UAE@XZ         004a0310 f   XSocket.obj
 0001:0009f370       ?bInitBufferSize@XSocket@@QAE_NK@Z 004a0370 f   XSocket.obj
 0001:0009f3c0       ?iOnSocketEvent@XSocket@@QAEHIJ@Z 004a03c0 f   XSocket.obj
 0001:0009f4c0       ?bConnect@XSocket@@QAE_NPADHI@Z 004a04c0 f   XSocket.obj
 0001:0009f600       ?_iOnRead@XSocket@@QAEHXZ  004a0600 f   XSocket.obj
 0001:0009f700       ?_iSend@XSocket@@QAEHPADH_N@Z 004a0700 f   XSocket.obj
 0001:0009f7c0       ?_iSend_ForInternalUse@XSocket@@QAEHPADH@Z 004a07c0 f   XSocket.obj
 0001:0009f820       ?_iRegisterUnsentData@XSocket@@QAEHPADH@Z 004a0820 f   XSocket.obj
 0001:0009f8c0       ?_iSendUnsentData@XSocket@@QAEHXZ 004a08c0 f   XSocket.obj
 0001:0009f9d0       ?iSendMsg@XSocket@@QAEHPADKD@Z 004a09d0 f   XSocket.obj
 0001:0009fbe0       ?_CloseConn@XSocket@@QAEXXZ 004a0be0 f   XSocket.obj
 0001:0009fc60       ?pGetRcvDataPointer@XSocket@@QAEPADPAKPAD@Z 004a0c60 f   XSocket.obj
 0001:0009fe00       ?iSendMsgBlockingMode@XSocket@@QAEHPADH@Z 004a0e00 f   XSocket.obj
 0001:0009fe50       ??0YWSound@@QAE@XZ         004a0e50 f   YWSound.obj
 0001:0009fe60       ??_EYWSound@@UAEPAXI@Z     004a0e60 f i * CIL library *:* CIL module *
 0001:0009fe60       ??_GYWSound@@UAEPAXI@Z     004a0e60 f i YWSound.obj
 0001:0009fe90       ??1YWSound@@UAE@XZ         004a0e90 f   YWSound.obj
 0001:0009fee0       ?Create@YWSound@@QAE_NPAUHWND__@@@Z 004a0ee0 f   YWSound.obj
 0001:0009ffd0       ??0CxFile@@QAE@ABV0@@Z     004a0fd0 f i cximage:ximainfo.obj
 0001:0009ffe0       ??0CxFile@@QAE@XZ          004a0fe0 f i cximage:ximainfo.obj
 0001:0009fff0       ??0CxIOFile@@QAE@ABV0@@Z   004a0ff0 f i cximage:ximainfo.obj
 0001:000a0010       ??0CxIOFile@@QAE@PAU_iobuf@@@Z 004a1010 f i cximage:ximainfo.obj
 0001:000a0040       ??0CxMemFile@@QAE@ABV0@@Z  004a1040 f i cximage:ximainfo.obj
 0001:000a0070       ??1CxFile@@UAE@XZ          004a1070 f i cximage:ximainfo.obj
 0001:000a0080       ??1CxIOFile@@UAE@XZ        004a1080 f i cximage:ximainfo.obj
 0001:000a00b0       ??4CxFile@@QAEAAV0@ABV0@@Z 004a10b0 f i cximage:ximainfo.obj
 0001:000a00c0       ??4CxIOFile@@QAEAAV0@ABV0@@Z 004a10c0 f i cximage:ximainfo.obj
 0001:000a00e0       ??4CxMemFile@@QAEAAV0@ABV0@@Z 004a10e0 f i cximage:ximainfo.obj
 0001:000a0110       ??_ECxFile@@UAEPAXI@Z      004a1110 f i cximage:ximainfo.obj
 0001:000a01c0       ??_ECxIOFile@@UAEPAXI@Z    004a11c0 f i cximage:ximainfo.obj
 0001:000a0290       ??_ECxImage@@UAEPAXI@Z     004a1290 f i cximage:ximainfo.obj
 0001:000a0350       ??_ECxMemFile@@UAEPAXI@Z   004a1350 f i cximage:ximainfo.obj
 0001:000a0400       ??_FCxIOFile@@QAEXXZ       004a1400 f i cximage:ximainfo.obj
 0001:000a0420       ??_FCxImage@@QAEXXZ        004a1420 f i cximage:ximainfo.obj
 0001:000a0430       ??_FCxMemFile@@QAEXXZ      004a1430 f i cximage:ximainfo.obj
 0001:000a0440       ??_OCxImage@@QAEXAAV0@@Z   004a1440 f i cximage:ximainfo.obj
 0001:000a0460       ?Close@CxIOFile@@UAE_NXZ   004a1460 f i cximage:ximainfo.obj
 0001:000a0490       ?Enable@CxImage@@QAEX_N@Z  004a1490 f   cximage:ximainfo.obj
 0001:000a04a0       ?Eof@CxIOFile@@UAE_NXZ     004a14a0 f i cximage:ximainfo.obj
 0001:000a04c0       ?Error@CxIOFile@@UAEJXZ    004a14c0 f i cximage:ximainfo.obj
 0001:000a04e0       ?Flush@CxIOFile@@UAE_NXZ   004a14e0 f i cximage:ximainfo.obj
 0001:000a0500       ?GetBpp@CxImage@@QBEGXZ    004a1500 f   cximage:ximainfo.obj
 0001:000a0510       ?GetC@CxIOFile@@UAEJXZ     004a1510 f i cximage:ximainfo.obj
 0001:000a0530       ?GetCodecOption@CxImage@@QAEKK@Z 004a1530 f   cximage:ximainfo.obj
 0001:000a0560       ?GetColorType@CxImage@@QAEEXZ 004a1560 f   cximage:ximainfo.obj
 0001:000a0570       ?GetDIB@CxImage@@QBEPAXXZ  004a1570 f   cximage:ximainfo.obj
 0001:000a0580       ?GetEffWidth@CxImage@@QBEKXZ 004a1580 f   cximage:ximainfo.obj
 0001:000a0590       ?GetEscape@CxImage@@QBEJXZ 004a1590 f   cximage:ximainfo.obj
 0001:000a05a0       ?GetFlags@CxImage@@QBEKXZ  004a15a0 f   cximage:ximainfo.obj
 0001:000a05b0       ?GetFrame@CxImage@@QBEJXZ  004a15b0 f   cximage:ximainfo.obj
 0001:000a05c0       ?GetFrameDelay@CxImage@@QBEKXZ 004a15c0 f   cximage:ximainfo.obj
 0001:000a05d0       ?GetHeight@CxImage@@QBEKXZ 004a15d0 f   cximage:ximainfo.obj
 0001:000a05e0       ?GetJpegQuality@CxImage@@QBEEXZ 004a15e0 f   cximage:ximainfo.obj
 0001:000a05f0       ?GetJpegScale@CxImage@@QBEEXZ 004a15f0 f   cximage:ximainfo.obj
 0001:000a0600       ?GetLastError@CxImage@@QAEPBDXZ 004a1600 f   cximage:ximainfo.obj
 0001:000a0610       ?GetNumColors@CxImage@@QBEKXZ 004a1610 f   cximage:ximainfo.obj
 0001:000a0620       ?GetNumFrames@CxImage@@QBEJXZ 004a1620 f   cximage:ximainfo.obj
 0001:000a0630       ?GetOffset@CxImage@@QAEXPAJ0@Z 004a1630 f   cximage:ximainfo.obj
 0001:000a0650       ?GetProgress@CxImage@@QBEJXZ 004a1650 f   cximage:ximainfo.obj
 0001:000a0660       ?GetTransColor@CxImage@@QAE?AUtagRGBQUAD@@XZ 004a1660 f   cximage:ximainfo.obj
 0001:000a06a0       ?GetTransIndex@CxImage@@QBEJXZ 004a16a0 f   cximage:ximainfo.obj
 0001:000a06b0       ?GetType@CxImage@@QBEKXZ   004a16b0 f   cximage:ximainfo.obj
 0001:000a06c0       ?GetVersion@CxImage@@QAEPBDXZ 004a16c0 f   cximage:ximainfo.obj
 0001:000a06d0       ?GetVersionNumber@CxImage@@QAE?BMXZ 004a16d0 f   cximage:ximainfo.obj
 0001:000a06e0       ?GetWidth@CxImage@@QBEKXZ  004a16e0 f   cximage:ximainfo.obj
 0001:000a06f0       ?GetXDPI@CxImage@@QBEJXZ   004a16f0 f   cximage:ximainfo.obj
 0001:000a0700       ?GetYDPI@CxImage@@QBEJXZ   004a1700 f   cximage:ximainfo.obj
 0001:000a0710       ?IsEnabled@CxImage@@QBE_NXZ 004a1710 f   cximage:ximainfo.obj
 0001:000a0720       ?IsIndexed@CxImage@@QBE_NXZ 004a1720 f   cximage:ximainfo.obj
 0001:000a0730       ?IsTransparent@CxImage@@QBE_NXZ 004a1730 f   cximage:ximainfo.obj
 0001:000a0740       ?Flush@CxMemFile@@UAE_NXZ  004a1740 f   cximage:xmemfile.obj
 0001:000a0740       ?IsValid@CxImage@@QBE_NXZ  004a1740 f   cximage:ximainfo.obj
 0001:000a0750       ?Open@CxIOFile@@QAE_NPBD0@Z 004a1750 f i cximage:ximainfo.obj
 0001:000a0790       ?PutC@CxFile@@UAE_NE@Z     004a1790 f i cximage:ximainfo.obj
 0001:000a07b0       ?PutC@CxIOFile@@UAE_NE@Z   004a17b0 f i cximage:ximainfo.obj
 0001:000a07e0       ?Read@CxIOFile@@UAEIPAXII@Z 004a17e0 f i cximage:ximainfo.obj
 0001:000a0810       ?Seek@CxIOFile@@UAE_NJH@Z  004a1810 f i cximage:ximainfo.obj
 0001:000a0840       ?SetCodecOption@CxImage@@QAE_NKK@Z 004a1840 f   cximage:ximainfo.obj
 0001:000a0870       ?SetEscape@CxImage@@QAEXJ@Z 004a1870 f   cximage:ximainfo.obj
 0001:000a0880       ?SetFlags@CxImage@@QAEXK_N@Z 004a1880 f   cximage:ximainfo.obj
 0001:000a08a0       ?SetFrame@CxImage@@QAEXJ@Z 004a18a0 f   cximage:ximainfo.obj
 0001:000a08b0       ?SetFrameDelay@CxImage@@QAEXK@Z 004a18b0 f   cximage:ximainfo.obj
 0001:000a08c0       ?SetJpegQuality@CxImage@@QAEXE@Z 004a18c0 f   cximage:ximainfo.obj
 0001:000a08d0       ?SetJpegScale@CxImage@@QAEXE@Z 004a18d0 f   cximage:ximainfo.obj
 0001:000a08e0       ?SetOffset@CxImage@@QAEXJJ@Z 004a18e0 f   cximage:ximainfo.obj
 0001:000a0900       ?SetProgress@CxImage@@QAEXJ@Z 004a1900 f   cximage:ximainfo.obj
 0001:000a0910       ?SetTransColor@CxImage@@QAEXUtagRGBQUAD@@@Z 004a1910 f   cximage:ximainfo.obj
 0001:000a0930       ?SetTransIndex@CxImage@@QAEXJ@Z 004a1930 f   cximage:ximainfo.obj
 0001:000a0940       ?SetXDPI@CxImage@@QAEXJ@Z  004a1940 f   cximage:ximainfo.obj
 0001:000a09b0       ?SetYDPI@CxImage@@QAEXJ@Z  004a19b0 f   cximage:ximainfo.obj
 0001:000a0a20       ?Size@CxIOFile@@UAEJXZ     004a1a20 f i cximage:ximainfo.obj
 0001:000a0a80       ?Tell@CxIOFile@@UAEJXZ     004a1a80 f i cximage:ximainfo.obj
 0001:000a0aa0       ?Write@CxIOFile@@UAEIPBXII@Z 004a1aa0 f i cximage:ximainfo.obj
 0001:000a0ad0       ??0CxImage@@QAE@PAEKK@Z    004a1ad0 f   cximage:ximaenc.obj
 0001:000a0b50       ??0CxImage@@QAE@PAU_iobuf@@K@Z 004a1b50 f   cximage:ximaenc.obj
 0001:000a0be0       ??0CxImage@@QAE@PAVCxFile@@K@Z 004a1be0 f   cximage:ximaenc.obj
 0001:000a0c10       ??0CxImage@@QAE@PBDK@Z     004a1c10 f   cximage:ximaenc.obj
 0001:000a0c40       ??0CxImageJPG@@QAE@ABV0@@Z 004a1c40 f i cximage:ximaenc.obj
 0001:000a0cd0       ??1CxImageBMP@@UAE@XZ      004a1cd0 f i cximage:ximaenc.obj
 0001:000a0d20       ??4CxExifInfo@CxImageJPG@@QAEAAV01@ABV01@@Z 004a1d20 f i cximage:ximaenc.obj
 0001:000a0d40       ??4CxImageJPG@@QAEAAV0@ABV0@@Z 004a1d40 f i cximage:ximaenc.obj
 0001:000a0dc0       ??_ECxImageJPG@@UAEPAXI@Z  004a1dc0 f i cximage:ximaenc.obj
 0001:000a0e70       ??_FCxExifInfo@CxImageJPG@@QAEXXZ 004a1e70 f i cximage:ximaenc.obj
 0001:000a0e80       ??_ECxImageBMP@@UAEPAXI@Z  004a1e80 f i cximage:ximaenc.obj
 0001:000a0e80       ??_GCxImageBMP@@UAEPAXI@Z  004a1e80 f i cximage:ximaenc.obj
 0001:000a0ef0       ?Decode@CxImage@@QAE_NPAEKK@Z 004a1ef0 f   cximage:ximaenc.obj
 0001:000a0f60       ?Decode@CxImage@@QAE_NPAU_iobuf@@K@Z 004a1f60 f   cximage:ximaenc.obj
 0001:000a0fe0       ?Decode@CxImage@@QAE_NPAVCxFile@@K@Z 004a1fe0 f   cximage:ximaenc.obj
 0001:000a12b0       ?Decode@CxImageJPG@@QAE_NPAU_iobuf@@@Z 004a22b0 f i cximage:ximaenc.obj
 0001:000a1330       ?DecodeExif@CxImageJPG@@QAE_NPAU_iobuf@@@Z 004a2330 f i cximage:ximaenc.obj
 0001:000a13b0       ?Encode2RGBA@CxImage@@QAE_NAAPAEAAJ@Z 004a23b0 f   cximage:ximaenc.obj
 0001:000a1490       ?Encode2RGBA@CxImage@@QAE_NPAVCxFile@@@Z 004a2490 f   cximage:ximaenc.obj
 0001:000a1580       ?Encode@CxImage@@QAE_NAAPAEAAJK@Z 004a2580 f   cximage:ximaenc.obj
 0001:000a1660       ?Encode@CxImage@@QAE_NPAU_iobuf@@K@Z 004a2660 f   cximage:ximaenc.obj
 0001:000a16e0       ?Encode@CxImage@@QAE_NPAU_iobuf@@PAPAV1@HK@Z 004a26e0 f   cximage:ximaenc.obj
 0001:000a16e0       ?Encode@CxImage@@QAE_NPAVCxFile@@PAPAV1@HK@Z 004a26e0 f   cximage:ximaenc.obj
 0001:000a1720       ?Encode@CxImage@@QAE_NPAVCxFile@@K@Z 004a2720 f   cximage:ximaenc.obj
 0001:000a18b0       ?Encode@CxImageJPG@@QAE_NPAU_iobuf@@@Z 004a28b0 f i cximage:ximaenc.obj
 0001:000a1930       ?EncodeSafeCheck@CxImage@@IAE_NPAVCxFile@@@Z 004a2930 f   cximage:ximaenc.obj
 0001:000a1990       ?Load@CxImage@@QAE_NPBDK@Z 004a2990 f   cximage:ximaenc.obj
 0001:000a1b60       ?LoadResource@CxImage@@QAE_NPAUHRSRC__@@KPAUHINSTANCE__@@@Z 004a2b60 f   cximage:ximaenc.obj
 0001:000a1c30       ?Save@CxImage@@QAE_NPBDK@Z 004a2c30 f   cximage:ximaenc.obj
 0001:000a1cf0       ??0CxImage@@QAE@ABV0@_N11@Z 004a2cf0 f   cximage:xImage.obj
 0001:000a1d30       ??0CxImage@@QAE@K@Z        004a2d30 f   cximage:xImage.obj
 0001:000a1d50       ??0CxImage@@QAE@KKKK@Z     004a2d50 f   cximage:xImage.obj
 0001:000a1d80       ??4CxImage@@QAEAAV0@ABV0@@Z 004a2d80 f   cximage:xImage.obj
 0001:000a1da0       ?Bitfield2RGB@CxImage@@IAEXPAEGGGE@Z 004a2da0 f   cximage:xImage.obj
 0001:000a1f80       ?Clear@CxImage@@QAEXE@Z    004a2f80 f   cximage:xImage.obj
 0001:000a1fe0       ?CompareColors@CxImage@@KAHPBX0@Z 004a2fe0 f   cximage:xImage.obj
 0001:000a2040       ?Copy@CxImage@@QAEXABV1@_N11@Z 004a3040 f   cximage:xImage.obj
 0001:000a2160       ?CopyInfo@CxImage@@IAEXABV1@@Z 004a3160 f   cximage:xImage.obj
 0001:000a2190       ?Create@CxImage@@QAEPAXKKKK@Z 004a3190 f   cximage:xImage.obj
 0001:000a2360       ?CreateFromArray@CxImage@@QAE_NPAEKKKK_N@Z 004a3360 f   cximage:xImage.obj
 0001:000a2450       ?CreateFromMatrix@CxImage@@QAE_NPAPAEKKKK_N@Z 004a3450 f   cximage:xImage.obj
 0001:000a2540       ?Destroy@CxImage@@QAE_NXZ  004a3540 f   cximage:xImage.obj
 0001:000a2600       ?FreeMemory@CxImage@@QAEXPAX@Z 004a3600 f   cximage:xImage.obj
 0001:000a2620       ?GetBits@CxImage@@QAEPAEK@Z 004a3620 f   cximage:xImage.obj
 0001:000a2680       ?GetSize@CxImage@@QAEJXZ   004a3680 f   cximage:xImage.obj
 0001:000a26a0       ?Ghost@CxImage@@IAEXPAV1@@Z 004a36a0 f   cximage:xImage.obj
 0001:000a2710       ?IsInside@CxImage@@QAE_NJJ@Z 004a3710 f   cximage:xImage.obj
 0001:000a2740       ?Startup@CxImage@@IAEXK@Z  004a3740 f   cximage:xImage.obj
 0001:000a27d0       ?Transfer@CxImage@@QAE_NAAV1@@Z 004a37d0 f   cximage:xImage.obj
 0001:000a28a0       ??0CxMemFile@@QAE@PAEK@Z   004a38a0 f   cximage:xmemfile.obj
 0001:000a28e0       ??1CxMemFile@@UAE@XZ       004a38e0 f   cximage:xmemfile.obj
 0001:000a2920       ?Alloc@CxMemFile@@IAEXK@Z  004a3920 f   cximage:xmemfile.obj
 0001:000a2980       ?Close@CxMemFile@@UAE_NXZ  004a3980 f   cximage:xmemfile.obj
 0001:000a29b0       ?Eof@CxMemFile@@UAE_NXZ    004a39b0 f   cximage:xmemfile.obj
 0001:000a29d0       ?Error@CxMemFile@@UAEJXZ   004a39d0 f   cximage:xmemfile.obj
 0001:000a29f0       ?Free@CxMemFile@@IAEXXZ    004a39f0 f   cximage:xmemfile.obj
 0001:000a2a00       ?GetBuffer@CxMemFile@@QAEPAE_N@Z 004a3a00 f   cximage:xmemfile.obj
 0001:000a2a20       ?GetC@CxMemFile@@UAEJXZ    004a3a20 f   cximage:xmemfile.obj
 0001:000a2a50       ?Open@CxMemFile@@QAE_NXZ   004a3a50 f   cximage:xmemfile.obj
 0001:000a2a90       ?PutC@CxMemFile@@UAE_NE@Z  004a3a90 f   cximage:xmemfile.obj
 0001:000a2ae0       ?Read@CxMemFile@@UAEIPAXII@Z 004a3ae0 f   cximage:xmemfile.obj
 0001:000a2b40       ?Seek@CxMemFile@@UAE_NJH@Z 004a3b40 f   cximage:xmemfile.obj
 0001:000a2b90       ?Size@CxMemFile@@UAEJXZ    004a3b90 f   cximage:xmemfile.obj
 0001:000a2ba0       ?Tell@CxMemFile@@UAEJXZ    004a3ba0 f   cximage:xmemfile.obj
 0001:000a2bb0       ?Write@CxMemFile@@UAEIPBXII@Z 004a3bb0 f   cximage:xmemfile.obj
 0001:000a2c20       ?BlendPalette@CxImage@@QAEXKJ@Z 004a3c20 f   cximage:ximapal.obj
 0001:000a2d00       ?BlendPixelColor@CxImage@@QAEXJJUtagRGBQUAD@@M_N@Z 004a3d00 f   cximage:ximapal.obj
 0001:000a2e00       ?BlindGetPixelColor@CxImage@@IAE?AUtagRGBQUAD@@JJ@Z 004a3e00 f   cximage:ximapal.obj
 0001:000a2e90       ?BlindGetPixelIndex@CxImage@@IAEEJJ@Z 004a3e90 f   cximage:ximapal.obj
 0001:000a2f20       ?BlindGetPixelPointer@CxImage@@IAEPAXJJ@Z 004a3f20 f   cximage:ximapal.obj
 0001:000a2f50       ?DrawLine@CxImage@@QAEXHHHHK@Z 004a3f50 f   cximage:ximapal.obj
 0001:000a2f90       ?DrawLine@CxImage@@QAEXHHHHUtagRGBQUAD@@_N@Z 004a3f90 f   cximage:ximapal.obj
 0001:000a3120       ?GetClrImportant@CxImage@@QBEKXZ 004a4120 f   cximage:ximapal.obj
 0001:000a3130       ?GetNearestIndex@CxImage@@QAEEUtagRGBQUAD@@@Z 004a4130 f   cximage:ximapal.obj
 0001:000a3230       ?GetPalette@CxImage@@QBEPAUtagRGBQUAD@@XZ 004a4230 f   cximage:ximapal.obj
 0001:000a3250       ?GetPaletteColor@CxImage@@QAE?AUtagRGBQUAD@@E@Z 004a4250 f   cximage:ximapal.obj
 0001:000a32b0       ?GetPaletteColor@CxImage@@QAE_NEPAE00@Z 004a42b0 f   cximage:ximapal.obj
 0001:000a3300       ?GetPaletteSize@CxImage@@QAEKXZ 004a4300 f   cximage:ximapal.obj
 0001:000a3310       ?GetPixelColor@CxImage@@QAE?AUtagRGBQUAD@@JJ_N@Z 004a4310 f   cximage:ximapal.obj
 0001:000a3410       ?GetPixelGray@CxImage@@QAEEJJ@Z 004a4410 f   cximage:ximapal.obj
 0001:000a3450       ?GetPixelIndex@CxImage@@QAEEJJ@Z 004a4450 f   cximage:ximapal.obj
 0001:000a3510       ?IsGrayScale@CxImage@@QAE_NXZ 004a4510 f   cximage:ximapal.obj
 0001:000a3570       ?IsSamePalette@CxImage@@QAE_NAAV1@_N@Z 004a4570 f   cximage:ximapal.obj
 0001:000a3670       ?IsTransparent@CxImage@@QAE_NJJ@Z 004a4670 f   cximage:ximapal.obj
 0001:000a36d0       ?RGBQUADtoRGB@CxImage@@SAKUtagRGBQUAD@@@Z 004a46d0 f   cximage:ximapal.obj
 0001:000a3700       ?RGBtoBGR@CxImage@@IAEXPAEH@Z 004a4700 f   cximage:ximapal.obj
 0001:000a3740       ?RGBtoRGBQUAD@CxImage@@SA?AUtagRGBQUAD@@K@Z 004a4740 f   cximage:ximapal.obj
 0001:000a3770       ?SetClrImportant@CxImage@@QAEXK@Z 004a4770 f   cximage:ximapal.obj
 0001:000a37d0       ?SetGrayPalette@CxImage@@QAEXXZ 004a47d0 f   cximage:ximapal.obj
 0001:000a3820       ?SetPalette@CxImage@@QAEXKPAE00@Z 004a4820 f   cximage:ximapal.obj
 0001:000a38a0       ?SetPalette@CxImage@@QAEXPAUrgb_color@1@K@Z 004a48a0 f   cximage:ximapal.obj
 0001:000a3900       ?SetPalette@CxImage@@QAEXPAUtagRGBQUAD@@K@Z 004a4900 f   cximage:ximapal.obj
 0001:000a3960       ?SetPaletteColor@CxImage@@QAEXEEEEE@Z 004a4960 f   cximage:ximapal.obj
 0001:000a39b0       ?SetPaletteColor@CxImage@@QAEXEK@Z 004a49b0 f   cximage:ximapal.obj
 0001:000a3a00       ?SetPaletteColor@CxImage@@QAEXEUtagRGBQUAD@@@Z 004a4a00 f   cximage:ximapal.obj
 0001:000a3a50       ?SetPixelColor@CxImage@@QAEXJJK@Z 004a4a50 f   cximage:ximapal.obj
 0001:000a3a90       ?SetPixelColor@CxImage@@QAEXJJUtagRGBQUAD@@_N@Z 004a4a90 f   cximage:ximapal.obj
 0001:000a3b00       ?SetPixelIndex@CxImage@@QAEXJJE@Z 004a4b00 f   cximage:ximapal.obj
 0001:000a3bc0       ?SetStdPalette@CxImage@@QAEXXZ 004a4bc0 f   cximage:ximapal.obj
 0001:000a3cc0       ?SwapIndex@CxImage@@QAEXEE@Z 004a4cc0 f   cximage:ximapal.obj
 0001:000a3d80       ??0CxFileJpg@CxImageJPG@@QAE@PAVCxFile@@@Z 004a4d80 f i cximage:ximajpg.obj
 0001:000a3df0       ??0CxImageJPG@@QAE@XZ      004a4df0 f   cximage:ximajpg.obj
 0001:000a3e30       ??1CxFileJpg@CxImageJPG@@QAE@XZ 004a4e30 f i cximage:ximajpg.obj
 0001:000a3e40       ??1CxImageJPG@@UAE@XZ      004a4e40 f   cximage:ximajpg.obj
 0001:000a3ec0       ?Decode@CxImageJPG@@QAE_NPAVCxFile@@@Z 004a4ec0 f   cximage:ximajpg.obj
 0001:000a4520       ?DecodeExif@CxImageJPG@@QAE_NPAVCxFile@@@Z 004a5520 f   cximage:ximajpg.obj
 0001:000a45f0       ?EmptyOutputBuffer@CxFileJpg@CxImageJPG@@SAEPAUjpeg_compress_struct@@@Z 004a55f0 f i cximage:ximajpg.obj
 0001:000a4640       ?Encode@CxImageJPG@@QAE_NPAVCxFile@@@Z 004a5640 f   cximage:ximajpg.obj
 0001:000a4ab0       ?FillInputBuffer@CxFileJpg@CxImageJPG@@SAEPAUjpeg_decompress_struct@@@Z 004a5ab0 f i cximage:ximajpg.obj
 0001:000a4b80       ?InitDestination@CxFileJpg@CxImageJPG@@SAXPAUjpeg_compress_struct@@@Z 004a5b80 f i cximage:ximajpg.obj
 0001:000a4ba0       ?InitSource@CxFileJpg@CxImageJPG@@SAXPAUjpeg_decompress_struct@@@Z 004a5ba0 f i cximage:ximajpg.obj
 0001:000a4bc0       ?SkipInputData@CxFileJpg@CxImageJPG@@SAXPAUjpeg_decompress_struct@@J@Z 004a5bc0 f i cximage:ximajpg.obj
 0001:000a4d00       ?TermDestination@CxFileJpg@CxImageJPG@@SAXPAUjpeg_compress_struct@@@Z 004a5d00 f i cximage:ximajpg.obj
 0001:000a4d70       ?Upset@CImageIterator@@QAEXXZ 004a5d70 f i cximage:ximajpg.obj
 0001:000a4df0       ??0CxExifInfo@CxImageJPG@@QAE@PAUtag_ExifInfo@1@@Z 004a5df0 f   cximage:ximaexif.obj
 0001:000a4e70       ??1CxExifInfo@CxImageJPG@@QAE@XZ 004a5e70 f   cximage:ximaexif.obj
 0001:000a4ed0       ?ConvertAnyFormat@CxExifInfo@CxImageJPG@@IAENPAXH@Z 004a5ed0 f   cximage:ximaexif.obj
 0001:000a5080       ?DecodeExif@CxExifInfo@CxImageJPG@@QAE_NPAVCxFile@@H@Z 004a6080 f   cximage:ximaexif.obj
 0001:000a54e0       ?DiscardAllButExif@CxExifInfo@CxImageJPG@@QAEXXZ 004a64e0 f   cximage:ximaexif.obj
 0001:000a5600       ?EncodeExif@CxExifInfo@CxImageJPG@@QAE_NPAVCxFile@@@Z 004a6600 f   cximage:ximaexif.obj
 0001:000a5730       ?FindSection@CxExifInfo@CxImageJPG@@IAEPAXH@Z 004a6730 f   cximage:ximaexif.obj
 0001:000a5770       ?Get16m@CxExifInfo@CxImageJPG@@IAEHPAX@Z 004a6770 f   cximage:ximaexif.obj
 0001:000a5790       ?Get16u@CxExifInfo@CxImageJPG@@IAEHPAX@Z 004a6790 f   cximage:ximaexif.obj
 0001:000a57c0       ?Get32s@CxExifInfo@CxImageJPG@@IAEJPAX@Z 004a67c0 f   cximage:ximaexif.obj
 0001:000a57c0       ?Get32u@CxExifInfo@CxImageJPG@@IAEKPAX@Z 004a67c0 f   cximage:ximaexif.obj
 0001:000a5820       ?ProcessExifDir@CxExifInfo@CxImageJPG@@IAE_NPAE0IQAUtag_ExifInfo@2@QAPAE@Z 004a6820 f   cximage:ximaexif.obj
 0001:000a6310       ?process_COM@CxExifInfo@CxImageJPG@@IAEXPBEH@Z 004a7310 f   cximage:ximaexif.obj
 0001:000a63f0       ?process_EXIF@CxExifInfo@CxImageJPG@@IAE_NPAEI@Z 004a73f0 f   cximage:ximaexif.obj
 0001:000a65e0       ?process_SOFn@CxExifInfo@CxImageJPG@@IAEXPBEH@Z 004a75e0 f   cximage:ximaexif.obj
 0001:000a6630       _printf                    004a7630 f i cximage:ximaexif.obj
 0001:000a6660       ?Decode@CxImageBMP@@QAE_NPAVCxFile@@@Z 004a7660 f   cximage:ximabmp.obj
 0001:000a6fa0       ?DibReadBitmapInfo@CxImageBMP@@IAE_NPAVCxFile@@PAUtagBITMAPINFOHEADER@@@Z 004a7fa0 f   cximage:ximabmp.obj
 0001:000a7100       ?Encode@CxImageBMP@@QAE_NPAVCxFile@@@Z 004a8100 f   cximage:ximabmp.obj
 0001:000a71c0       ??4CxPoint2@@QAEAAV0@ABV0@@Z 004a81c0 f i cximage:ximatran.obj
 0001:000a71e0       ??4CxRect2@@QAEAAV0@ABV0@@Z 004a81e0 f i cximage:ximatran.obj
 0001:000a7200       ?Flip@CxImage@@QAE_NXZ     004a8200 f   cximage:ximatran.obj
 0001:000a7300       ?GrayScale@CxImage@@QAE_NXZ 004a8300 f   cximage:ximatran.obj
 0001:000a7680       ?Mirror@CxImage@@QAE_NXZ   004a8680 f   cximage:ximatran.obj
 0001:000a7870       ?Negative@CxImage@@QAE_NXZ 004a8870 f   cximage:ximatran.obj
 0001:000a7a30       ?RotateLeft@CxImage@@QAE_NPAV1@@Z 004a8a30 f   cximage:ximatran.obj
 0001:000a7f10       ?RotateRight@CxImage@@QAE_NPAV1@@Z 004a8f10 f   cximage:ximatran.obj
 0001:000a84d0       _fprintf                   004a94d0 f i Jpeg:Jerror.obj
 0001:000a8500       _jpeg_std_error            004a9500 f   Jpeg:Jerror.obj
 0001:000a85f0       _jpeg_CreateCompress       004a95f0 f   Jpeg:Jcapimin.obj
 0001:000a8710       _jpeg_destroy_compress     004a9710 f   Jpeg:Jcapimin.obj
 0001:000a8710       _jpeg_destroy_decompress   004a9710 f   Jpeg:Jdapimin.obj
 0001:000a8720       _jpeg_finish_compress      004a9720 f   Jpeg:Jcapimin.obj
 0001:000a8840       _jpeg_suppress_tables      004a9840 f   Jpeg:Jcapimin.obj
 0001:000a8aa0       _jpeg_CreateDecompress     004a9aa0 f   Jpeg:Jdapimin.obj
 0001:000a8be0       _jpeg_finish_decompress    004a9be0 f   Jpeg:Jdapimin.obj
 0001:000a8cb0       _jpeg_read_header          004a9cb0 f   Jpeg:Jdapimin.obj
 0001:000a8f70       _jpeg_add_quant_table      004a9f70 f   Jpeg:Jcparam.obj
 0001:000a9050       _jpeg_set_colorspace       004aa050 f   Jpeg:Jcparam.obj
 0001:000a9400       _jpeg_set_defaults         004aa400 f   Jpeg:Jcparam.obj
 0001:000a95e0       _jpeg_set_quality          004aa5e0 f   Jpeg:Jcparam.obj
 0001:000a9650       _jpeg_simple_progression   004aa650 f   Jpeg:Jcparam.obj
 0001:000a9900       _jpeg_start_compress       004aa900 f   Jpeg:Jcapistd.obj
 0001:000a9980       _jpeg_write_scanlines      004aa980 f   Jpeg:Jcapistd.obj
 0001:000a9a40       _jpeg_read_scanlines       004aaa40 f   Jpeg:Jdapistd.obj
 0001:000a9ae0       _jpeg_start_decompress     004aaae0 f   Jpeg:Jdapistd.obj
 0001:000a9cd0       _jinit_master_decompress   004aacd0 f   Jpeg:Jdmaster.obj
 0001:000a9d10       _jpeg_calc_output_dimensions 004aad10 f   Jpeg:Jdmaster.obj
 0001:000ab6c0       _jinit_marker_reader       004ac6c0 f   Jpeg:Jdmarker.obj
 0001:000ab770       _jpeg_resync_to_restart    004ac770 f   Jpeg:Jdmarker.obj
 0001:000ac080       _jpeg_abort                004ad080 f   Jpeg:Jcomapi.obj
 0001:000ac0c0       _jpeg_alloc_huff_table     004ad0c0 f   Jpeg:Jcomapi.obj
 0001:000ac0f0       _jpeg_alloc_quant_table    004ad0f0 f   Jpeg:Jcomapi.obj
 0001:000ac120       _jpeg_destroy              004ad120 f   Jpeg:Jcomapi.obj
 0001:000acdb0       _jinit_marker_writer       004addb0 f   Jpeg:Jcmarker.obj
 0001:000ad1d0       ___local_stdio_scanf_options 004ae1d0 f i Jpeg:Jmemmgr.obj
 0001:000ada30       _jinit_memory_mgr          004aea30 f   Jpeg:Jmemmgr.obj
 0001:000adf30       _sscanf                    004aef30 f i Jpeg:Jmemmgr.obj
 0001:000ae280       _jinit_input_controller    004af280 f   Jpeg:Jdinput.obj
 0001:000ae5a0       _jinit_compress_master     004af5a0 f   Jpeg:Jcinit.obj
 0001:000ae660       _jinit_d_main_controller   004af660 f   Jpeg:Jdmainct.obj
 0001:000afab0       ___scrt_exe_initialize_mta 004b0ab0 f   MSVCRT:utility_desktop.obj
 0001:000afab0       ___scrt_initialize_winrt   004b0ab0 f   MSVCRT:utility_desktop.obj
 0001:000afab0       ___scrt_stub_for_initialize_mta 004b0ab0 f   MSVCRT:utility_desktop.obj
 0001:000afab0       __get_startup_commit_mode  004b0ab0 f   MSVCRT:commit_mode.obj
 0001:000afab0       __get_startup_new_mode     004b0ab0 f   MSVCRT:new_mode.obj
 0001:000afab0       __get_startup_thread_locale_mode 004b0ab0 f   MSVCRT:thread_locale.obj
 0001:000afab0       __matherr                  004b0ab0 f   MSVCRT:matherr.obj
 0001:000afab0       _jpeg_mem_init             004b0ab0 f   Jpeg:Jmemnobs.obj
 0001:000afac0       _jinit_d_coef_controller   004b0ac0 f   Jpeg:Jdcoefct.obj
 0001:000afea0       _jinit_d_post_controller   004b0ea0 f   Jpeg:Jdpostct.obj
 0001:000b0690       _jinit_huff_decoder        004b1690 f   Jpeg:Jdhuff.obj
 0001:000b0700       _jpeg_fill_bit_buffer      004b1700 f   Jpeg:Jdhuff.obj
 0001:000b0840       _jpeg_huff_decode          004b1840 f   Jpeg:Jdhuff.obj
 0001:000b0920       _jpeg_make_d_derived_tbl   004b1920 f   Jpeg:Jdhuff.obj
 0001:000b17d0       _jinit_phuff_decoder       004b27d0 f   Jpeg:Jdphuff.obj
 0001:000b1ba0       _jinit_inverse_dct         004b2ba0 f   Jpeg:Jddctmgr.obj
 0001:000b24d0       _jinit_upsampler           004b34d0 f   Jpeg:Jdsample.obj
 0001:000b2950       _jinit_color_deconverter   004b3950 f   Jpeg:Jdcolor.obj
 0001:000b3340       _jinit_1pass_quantizer     004b4340 f   Jpeg:Jquant1.obj
 0001:000b3f20       _jinit_2pass_quantizer     004b4f20 f   Jpeg:Jquant2.obj
 0001:000b5340       _jinit_merged_upsampler    004b6340 f   Jpeg:Jdmerge.obj
 0001:000b5590       _jcopy_block_row           004b6590 f   Jpeg:Jutils.obj
 0001:000b55b0       _jcopy_sample_rows         004b65b0 f   Jpeg:Jutils.obj
 0001:000b5600       _jdiv_round_up             004b6600 f   Jpeg:Jutils.obj
 0001:000b5610       _jround_up                 004b6610 f   Jpeg:Jutils.obj
 0001:000b5630       _jzero_far                 004b6630 f   Jpeg:Jutils.obj
 0001:000b5650       _jpeg_free_large           004b6650 f   Jpeg:Jmemnobs.obj
 0001:000b5650       _jpeg_free_small           004b6650 f   Jpeg:Jmemnobs.obj
 0001:000b5670       _jpeg_get_large            004b6670 f   Jpeg:Jmemnobs.obj
 0001:000b5670       _jpeg_get_small            004b6670 f   Jpeg:Jmemnobs.obj
 0001:000b5690       _jpeg_mem_available        004b6690 f   Jpeg:Jmemnobs.obj
 0001:000b56a0       _jpeg_open_backing_store   004b66a0 f   Jpeg:Jmemnobs.obj
 0001:000b5920       _jinit_c_master_control    004b6920 f   Jpeg:Jcmaster.obj
 0001:000b6360       _jinit_c_main_controller   004b7360 f   Jpeg:Jcmainct.obj
 0001:000b64f0       _jinit_c_prep_controller   004b74f0 f   Jpeg:Jcprepct.obj
 0001:000b7180       _jinit_c_coef_controller   004b8180 f   Jpeg:Jccoefct.obj
 0001:000b7590       _jinit_color_converter     004b8590 f   Jpeg:Jccolor.obj
 0001:000b83b0       _jinit_downsampler         004b93b0 f   Jpeg:Jcsample.obj
 0001:000b9160       _jinit_forward_dct         004ba160 f   Jpeg:Jcdctmgr.obj
 0001:000ba0b0       _jinit_huff_encoder        004bb0b0 f   Jpeg:Jchuff.obj
 0001:000ba150       _jpeg_gen_optimal_table    004bb150 f   Jpeg:Jchuff.obj
 0001:000ba380       _jpeg_make_c_derived_tbl   004bb380 f   Jpeg:Jchuff.obj
 0001:000bb400       _jinit_phuff_encoder       004bc400 f   Jpeg:Jcphuff.obj
 0001:000bb610       _jpeg_idct_islow           004bc610 f   Jpeg:Jidctint.obj
 0001:000bbb90       _jpeg_idct_ifast           004bcb90 f   Jpeg:Jidctfst.obj
 0001:000bc010       _jpeg_idct_float           004bd010 f   Jpeg:Jidctflt.obj
 0001:000bc4e0       _jpeg_idct_1x1             004bd4e0 f   Jpeg:Jidctred.obj
 0001:000bc520       _jpeg_idct_2x2             004bd520 f   Jpeg:Jidctred.obj
 0001:000bc770       _jpeg_idct_4x4             004bd770 f   Jpeg:Jidctred.obj
 0001:000bcae0       _jpeg_fdct_islow           004bdae0 f   Jpeg:Jfdctint.obj
 0001:000bdf30       _jpeg_fdct_ifast           004bef30 f   Jpeg:Jfdctfst.obj
 0001:000bed90       _jpeg_fdct_float           004bfd90 f   Jpeg:Jfdctflt.obj
 0001:000c0238       @__security_check_cookie@4 004c1238 f   MSVCRT:secchk.obj
 0001:000c0246       ??3@YAXPAXI@Z              004c1246 f   MSVCRT:delete_scalar_size.obj
 0001:000c0254       ??_Etype_info@@UAEPAXI@Z   004c1254 f i MSVCRT:std_type_info_static.obj
 0001:000c0254       ??_Gtype_info@@UAEPAXI@Z   004c1254 f i MSVCRT:std_type_info_static.obj
 0001:000c0277       ___raise_securityfailure   004c1277 f   MSVCRT:gs_report.obj
 0001:000c029f       ___report_gsfailure        004c129f f   MSVCRT:gs_report.obj
 0001:000c039a       ___report_rangecheckfailure 004c139a f   MSVCRT:gs_report.obj
 0001:000c03a7       ___report_securityfailure  004c13a7 f   MSVCRT:gs_report.obj
 0001:000c0477       ??_V@YAXPAX@Z              004c1477 f   MSVCRT:delete_array.obj
 0001:000c047c       ??_U@YAPAXI@Z              004c147c f   MSVCRT:new_array.obj
 0001:000c0485       __Init_thread_abort        004c1485 f   MSVCRT:thread_safe_statics.obj
 0001:000c04b3       __Init_thread_footer       004c14b3 f   MSVCRT:thread_safe_statics.obj
 0001:000c0504       __Init_thread_header       004c1504 f   MSVCRT:thread_safe_statics.obj
 0001:000c0556       __Init_thread_wait_v2      004c1556 f   MSVCRT:thread_safe_statics.obj
 0001:000c056b       ??2@YAPAXI@Z               004c156b f   MSVCRT:new_scalar.obj
 0001:000c05dd       ___scrt_acquire_startup_lock 004c15dd f   MSVCRT:utility.obj
 0001:000c060f       ___scrt_initialize_crt     004c160f f   MSVCRT:utility.obj
 0001:000c0648       ___scrt_initialize_onexit_tables 004c1648 f   MSVCRT:utility.obj
 0001:000c06cf       ___scrt_is_nonwritable_in_current_image 004c16cf f   MSVCRT:utility.obj
 0001:000c0766       ___scrt_release_startup_lock 004c1766 f   MSVCRT:utility.obj
 0001:000c0783       ___scrt_uninitialize_crt   004c1783 f   MSVCRT:utility.obj
 0001:000c07ab       __onexit                   004c17ab f   MSVCRT:utility.obj
 0001:000c07d9       _atexit                    004c17d9 f   MSVCRT:utility.obj
 0001:000c07ee       ??_M@YGXPAXIIP6EX0@Z@Z     004c17ee f   MSVCRT:ehvecdtr.obj
 0001:000c0876       ?__ArrayUnwind@@YGXPAXIIP6EX0@Z@Z 004c1876 f   MSVCRT:ehvecdtr.obj
 0001:000c0906       ??_L@YGXPAXIIP6EX0@Z1@Z    004c1906 f   MSVCRT:ehvecctr.obj
 0001:000c0bbe       _WinMainCRTStartup         004c1bbe f   MSVCRT:exe_winmain.obj
 0001:000c0bc8       ??_V@YAXPAXI@Z             004c1bc8 f   MSVCRT:delete_array_size.obj
 0001:000c0be0       __ftol2_sse                004c1be0 f   MSVCRT:ftol2.obj
 0001:000c0bf0       __ftoi2                    004c1bf0 f   MSVCRT:ftol2.obj
 0001:000c0c70       __dtol3                    004c1c70 f   MSVCRT:ftol3.obj
 0001:000c0d1f       ___isa_available_init      004c1d1f f   MSVCRT:cpu_disp.obj
 0001:000c1039       ??3@YAXPAX@Z               004c2039 f   MSVCRT:delete_scalar.obj
 0001:000c103e       ??0bad_alloc@std@@QAE@XZ   004c203e f i MSVCRT:throw_bad_alloc.obj
 0001:000c105c       ?__scrt_throw_std_bad_alloc@@YAXXZ 004c205c f   MSVCRT:throw_bad_alloc.obj
 0001:000c1079       __get_startup_argv_mode    004c2079 f   MSVCRT:argv_mode.obj
 0001:000c107d       ___scrt_is_ucrt_dll_in_use 004c207d f   MSVCRT:ucrt_detection.obj
 0001:000c1089       ___scrt_fastfail           004c2089 f   MSVCRT:utility_desktop.obj
 0001:000c119e       ___scrt_get_show_window_mode 004c219e f   MSVCRT:utility_desktop.obj
 0001:000c11ce       ___scrt_initialize_mta     004c21ce f   MSVCRT:utility_desktop.obj
 0001:000c11d3       ___scrt_is_managed_app     004c21d3 f   MSVCRT:utility_desktop.obj
 0001:000c1215       ___scrt_set_unhandled_exception_filter 004c2215 f   MSVCRT:utility_desktop.obj
 0001:000c1221       ___scrt_unhandled_exception_filter@4 004c2221 f   MSVCRT:utility_desktop.obj
 0001:000c1277       __crt_debugger_hook        004c2277 f   MSVCRT:utility_desktop.obj
 0001:000c1290       __SEH_prolog4              004c2290 f   MSVCRT:sehprolg4.obj
 0001:000c12d5       __except_handler4          004c22d5 f   MSVCRT:chandler4gs.obj
 0001:000c1351       ___security_init_cookie    004c2351 f   MSVCRT:gs_support.obj
 0001:000c139c       __get_startup_file_mode    004c239c f   MSVCRT:file_mode.obj
 0001:000c13a2       ?__scrt_initialize_type_info@@YAXXZ 004c23a2 f   MSVCRT:tncleanup.obj
 0001:000c13ae       ___acrt_initialize         004c23ae f   MSVCRT:ucrt_stubs.obj
 0001:000c13ae       ___acrt_uninitialize       004c23ae f   MSVCRT:ucrt_stubs.obj
 0001:000c13ae       ___scrt_stub_for_acrt_initialize 004c23ae f   MSVCRT:ucrt_stubs.obj
 0001:000c13ae       ___scrt_stub_for_acrt_uninitialize 004c23ae f   MSVCRT:ucrt_stubs.obj
 0001:000c13ae       ___vcrt_initialize         004c23ae f   MSVCRT:ucrt_stubs.obj
 0001:000c13ae       ___vcrt_uninitialize       004c23ae f   MSVCRT:ucrt_stubs.obj
 0001:000c13ae       __should_initialize_environment 004c23ae f   MSVCRT:env_mode.obj
 0001:000c13b1       __initialize_default_precision 004c23b1 f   MSVCRT:default_precision.obj
 0001:000c13d2       ___scrt_initialize_default_local_stdio_options 004c23d2 f   MSVCRT:default_local_stdio_options.obj
 0001:000c13ef       ___scrt_is_user_matherr_present 004c23ef f   MSVCRT:matherr_detection.obj
 0001:000c13fb       ___scrt_get_dyn_tls_init_callback 004c23fb f   MSVCRT:dyn_tls_init.obj
 0001:000c1401       ___scrt_get_dyn_tls_dtor_callback 004c2401 f   MSVCRT:dyn_tls_dtor.obj
 0001:000c1407       __RTC_Initialize           004c2407 f   MSVCRT:initsect.obj
 0001:000c1433       __RTC_Terminate            004c2433 f   MSVCRT:initsect.obj
 0001:000c145f       ??1_Fac_node@std@@QAE@XZ   004c245f f i msvcprt:locale0_implib.obj
 0001:000c1490       ??1_Fac_tidy_reg_t@std@@QAE@XZ 004c2490 f i msvcprt:locale0_implib.obj
 0001:000c14ab       ??_G_Fac_node@std@@QAEPAXI@Z 004c24ab f i msvcprt:locale0_implib.obj
 0001:000c14dc       ?_Facet_Register@std@@YAXPAV_Facet_base@1@@Z 004c24dc f   msvcprt:locale0_implib.obj
 0001:000c150a       ?showmanyc@?$basic_streambuf@DU?$char_traits@D@std@@@std@@MAE_JXZ 004c250a f   msvcprt:MSVCP140.dll
 0001:000c1510       ?_Xbad_alloc@std@@YAXXZ    004c2510 f   msvcprt:MSVCP140.dll
 0001:000c1516       ___CxxFrameHandler3        004c2516 f   vcruntime:VCRUNTIME140.dll
 0001:000c151c       ___std_terminate           004c251c f   vcruntime:VCRUNTIME140.dll
 0001:000c1522       __purecall                 004c2522 f   vcruntime:VCRUNTIME140.dll
 0001:000c1528       _memcpy                    004c2528 f   vcruntime:VCRUNTIME140.dll
 0001:000c152e       _memset                    004c252e f   vcruntime:VCRUNTIME140.dll
 0001:000c1534       _longjmp                   004c2534 f   vcruntime:VCRUNTIME140.dll
 0001:000c153a       ___CxxLongjmpUnwind@4      004c253a f   vcruntime:VCRUNTIME140.dll
 0001:000c1540       __setjmp3                  004c2540 f   vcruntime:VCRUNTIME140.dll
 0001:000c1546       __CxxThrowException@8      004c2546 f   vcruntime:VCRUNTIME140.dll
 0001:000c154c       ___current_exception       004c254c f   vcruntime:VCRUNTIME140.dll
 0001:000c1552       ___current_exception_context 004c2552 f   vcruntime:VCRUNTIME140.dll
 0001:000c1558       __except_handler4_common   004c2558 f   vcruntime:VCRUNTIME140.dll
 0001:000c155e       _floor                     004c255e f   ucrt:api-ms-win-crt-math-l1-1-0.dll
 0001:000c1564       _free                      004c2564 f   ucrt:api-ms-win-crt-heap-l1-1-0.dll
 0001:000c156a       _malloc                    004c256a f   ucrt:api-ms-win-crt-heap-l1-1-0.dll
 0001:000c1570       __libm_sse2_exp_precise    004c2570 f   ucrt:api-ms-win-crt-math-l1-1-0.dll
 0001:000c1576       __libm_sse2_log_precise    004c2576 f   ucrt:api-ms-win-crt-math-l1-1-0.dll
 0001:000c157c       _exit                      004c257c f   ucrt:api-ms-win-crt-runtime-l1-1-0.dll
 0001:000c1582       __callnewh                 004c2582 f   ucrt:api-ms-win-crt-heap-l1-1-0.dll
 0001:000c1588       __configure_narrow_argv    004c2588 f   ucrt:api-ms-win-crt-runtime-l1-1-0.dll
 0001:000c158e       __initialize_narrow_environment 004c258e f   ucrt:api-ms-win-crt-runtime-l1-1-0.dll
 0001:000c1594       __initialize_onexit_table  004c2594 f   ucrt:api-ms-win-crt-runtime-l1-1-0.dll
 0001:000c159a       __register_onexit_function 004c259a f   ucrt:api-ms-win-crt-runtime-l1-1-0.dll
 0001:000c15a0       __crt_atexit               004c25a0 f   ucrt:api-ms-win-crt-runtime-l1-1-0.dll
 0001:000c15a6       __cexit                    004c25a6 f   ucrt:api-ms-win-crt-runtime-l1-1-0.dll
 0001:000c15ac       _terminate                 004c25ac f   ucrt:api-ms-win-crt-runtime-l1-1-0.dll
 0001:000c15b2       __seh_filter_exe           004c25b2 f   ucrt:api-ms-win-crt-runtime-l1-1-0.dll
 0001:000c15b8       __set_app_type             004c25b8 f   ucrt:api-ms-win-crt-runtime-l1-1-0.dll
 0001:000c15be       ___setusermatherr          004c25be f   ucrt:api-ms-win-crt-math-l1-1-0.dll
 0001:000c15c4       __get_narrow_winmain_command_line 004c25c4 f   ucrt:api-ms-win-crt-runtime-l1-1-0.dll
 0001:000c15ca       __initterm                 004c25ca f   ucrt:api-ms-win-crt-runtime-l1-1-0.dll
 0001:000c15d0       __initterm_e               004c25d0 f   ucrt:api-ms-win-crt-runtime-l1-1-0.dll
 0001:000c15d6       __exit                     004c25d6 f   ucrt:api-ms-win-crt-runtime-l1-1-0.dll
 0001:000c15dc       __set_fmode                004c25dc f   ucrt:api-ms-win-crt-stdio-l1-1-0.dll
 0001:000c15e2       __c_exit                   004c25e2 f   ucrt:api-ms-win-crt-runtime-l1-1-0.dll
 0001:000c15e8       __register_thread_local_exe_atexit_callback 004c25e8 f   ucrt:api-ms-win-crt-runtime-l1-1-0.dll
 0001:000c15ee       __configthreadlocale       004c25ee f   ucrt:api-ms-win-crt-locale-l1-1-0.dll
 0001:000c15f4       __set_new_mode             004c25f4 f   ucrt:api-ms-win-crt-heap-l1-1-0.dll
 0001:000c15fa       ___p__commode              004c25fa f   ucrt:api-ms-win-crt-stdio-l1-1-0.dll
 0001:000c1600       __controlfp_s              004c2600 f   ucrt:api-ms-win-crt-runtime-l1-1-0.dll
 0001:000c1606       __filter_x86_sse2_floating_point_exception 004c2606 f   MSVCRT:x86_exception_filter.obj
 0001:000c1606       __filter_x86_sse2_floating_point_exception_default 004c2606 f   MSVCRT:x86_exception_filter.obj
 0001:000c1680       __alloca_probe             004c2680 f   MSVCRT:chkstk.obj
 0001:000c1680       __chkstk                   004c2680 f   MSVCRT:chkstk.obj
 0001:000c16ab       _memmove                   004c26ab f   vcruntime:VCRUNTIME140.dll
 0002:00000000       __imp__RegCloseKey@4       004c5000     advapi32:ADVAPI32.dll
 0002:00000004       __imp__RegQueryValueExA@24 004c5004     advapi32:ADVAPI32.dll
 0002:00000008       __imp__RegCreateKeyExA@36  004c5008     advapi32:ADVAPI32.dll
 0002:0000000c       __imp__RegSetValueExA@24   004c500c     advapi32:ADVAPI32.dll
 0002:00000010       \177ADVAPI32_NULL_THUNK_DATA 004c5010     advapi32:ADVAPI32.dll
 0002:00000014       __imp__D3DCompileFromFile@36 004c5014     d3dcompiler:D3DCOMPILER_47.dll
 0002:00000018       \177D3DCOMPILER_47_NULL_THUNK_DATA 004c5018     d3dcompiler:D3DCOMPILER_47.dll
 0002:0000001c       __imp__DirectDrawCreateEx@16 004c501c     ddraw:DDRAW.dll
 0002:00000020       \177DDRAW_NULL_THUNK_DATA  004c5020     ddraw:DDRAW.dll
 0002:00000024       __imp__DirectInputCreateA@16 004c5024     DINPUT:DINPUT.dll
 0002:00000028       \177DINPUT_NULL_THUNK_DATA 004c5028     DINPUT:DINPUT.dll
 0002:0000002c       __imp__DirectSoundCreate@12 004c502c     DSOUND:DSOUND.dll
 0002:00000030       \177DSOUND_NULL_THUNK_DATA 004c5030     DSOUND:DSOUND.dll
 0002:00000034       __imp__GetDIBits@28        004c5034     gdi32:GDI32.dll
 0002:00000038       __imp__CreateCompatibleDC@4 004c5038     gdi32:GDI32.dll
 0002:0000003c       __imp__CreateFontA@56      004c503c     gdi32:GDI32.dll
 0002:00000040       __imp__SetBkColor@8        004c5040     gdi32:GDI32.dll
 0002:00000044       __imp__CreateCompatibleBitmap@12 004c5044     gdi32:GDI32.dll
 0002:00000048       __imp__DeleteDC@4          004c5048     gdi32:GDI32.dll
 0002:0000004c       __imp__SetTextColor@8      004c504c     gdi32:GDI32.dll
 0002:00000050       __imp__SetBkMode@8         004c5050     gdi32:GDI32.dll
 0002:00000054       __imp__TextOutA@20         004c5054     gdi32:GDI32.dll
 0002:00000058       __imp__SelectObject@8      004c5058     gdi32:GDI32.dll
 0002:0000005c       __imp__DeleteObject@4      004c505c     gdi32:GDI32.dll
 0002:00000060       __imp__BitBlt@36           004c5060     gdi32:GDI32.dll
 0002:00000064       __imp__GetTextExtentPoint32A@16 004c5064     gdi32:GDI32.dll
 0002:00000068       __imp__SetDIBitsToDevice@48 004c5068     gdi32:GDI32.dll
 0002:0000006c       \177GDI32_NULL_THUNK_DATA  004c506c     gdi32:GDI32.dll
 0002:00000070       __imp__ImmReleaseContext@8 004c5070     IMM32:IMM32.dll
 0002:00000074       __imp__ImmGetCompositionStringA@16 004c5074     IMM32:IMM32.dll
 0002:00000078       __imp__ImmGetContext@4     004c5078     IMM32:IMM32.dll
 0002:0000007c       \177IMM32_NULL_THUNK_DATA  004c507c     IMM32:IMM32.dll
 0002:00000080       __imp__GetModuleHandleW@4  004c5080     kernel32:KERNEL32.dll
 0002:00000084       __imp__QueryPerformanceCounter@4 004c5084     kernel32:KERNEL32.dll
 0002:00000088       __imp__GetCurrentProcessId@0 004c5088     kernel32:KERNEL32.dll
 0002:0000008c       __imp__HeapFree@12         004c508c     kernel32:KERNEL32.dll
 0002:00000090       __imp__WriteFile@20        004c5090     kernel32:KERNEL32.dll
 0002:00000094       __imp__OutputDebugStringA@4 004c5094     kernel32:KERNEL32.dll
 0002:00000098       __imp__SetFilePointer@16   004c5098     kernel32:KERNEL32.dll
 0002:0000009c       __imp__CreateFileA@28      004c509c     kernel32:KERNEL32.dll
 0002:000000a0       __imp__GetCurrentThreadId@0 004c50a0     kernel32:KERNEL32.dll
 0002:000000a4       __imp__GetProcessHeap@0    004c50a4     kernel32:KERNEL32.dll
 0002:000000a8       __imp__ReadFile@20         004c50a8     kernel32:KERNEL32.dll
 0002:000000ac       __imp__DeleteFileA@4       004c50ac     kernel32:KERNEL32.dll
 0002:000000b0       __imp__HeapAlloc@12        004c50b0     kernel32:KERNEL32.dll
 0002:000000b4       __imp__GetLocalTime@4      004c50b4     kernel32:KERNEL32.dll
 0002:000000b8       __imp__GetFileSize@8       004c50b8     kernel32:KERNEL32.dll
 0002:000000bc       __imp__SetPriorityClass@8  004c50bc     kernel32:KERNEL32.dll
 0002:000000c0       __imp__GetCurrentProcess@0 004c50c0     kernel32:KERNEL32.dll
 0002:000000c4       __imp__SetProcessAffinityMask@8 004c50c4     kernel32:KERNEL32.dll
 0002:000000c8       __imp__CreateMutexA@12     004c50c8     kernel32:KERNEL32.dll
 0002:000000cc       __imp__ReleaseMutex@4      004c50cc     kernel32:KERNEL32.dll
 0002:000000d0       __imp__Sleep@4             004c50d0     kernel32:KERNEL32.dll
 0002:000000d4       __imp__OpenMutexA@12       004c50d4     kernel32:KERNEL32.dll
 0002:000000d8       __imp__GetStartupInfoW@4   004c50d8     kernel32:KERNEL32.dll
 0002:000000dc       __imp__GetProcAddress@8    004c50dc     kernel32:KERNEL32.dll
 0002:000000e0       __imp__FreeLibrary@4       004c50e0     kernel32:KERNEL32.dll
 0002:000000e4       __imp__LoadResource@8      004c50e4     kernel32:KERNEL32.dll
 0002:000000e8       __imp__LockResource@4      004c50e8     kernel32:KERNEL32.dll
 0002:000000ec       __imp__SizeofResource@8    004c50ec     kernel32:KERNEL32.dll
 0002:000000f0       __imp__GetSystemTimeAsFileTime@4 004c50f0     kernel32:KERNEL32.dll
 0002:000000f4       __imp__InitializeSListHead@4 004c50f4     kernel32:KERNEL32.dll
 0002:000000f8       __imp__IsDebuggerPresent@0 004c50f8     kernel32:KERNEL32.dll
 0002:000000fc       __imp__UnhandledExceptionFilter@4 004c50fc     kernel32:KERNEL32.dll
 0002:00000100       __imp__SetUnhandledExceptionFilter@4 004c5100     kernel32:KERNEL32.dll
 0002:00000104       __imp__TerminateProcess@8  004c5104     kernel32:KERNEL32.dll
 0002:00000108       __imp__IsProcessorFeaturePresent@4 004c5108     kernel32:KERNEL32.dll
 0002:0000010c       __imp__ReleaseSRWLockExclusive@4 004c510c     kernel32:KERNEL32.dll
 0002:00000110       __imp__AcquireSRWLockExclusive@4 004c5110     kernel32:KERNEL32.dll
 0002:00000114       __imp__WakeAllConditionVariable@4 004c5114     kernel32:KERNEL32.dll
 0002:00000118       __imp__CloseHandle@4       004c5118     kernel32:KERNEL32.dll
 0002:0000011c       __imp__SleepConditionVariableSRW@16 004c511c     kernel32:KERNEL32.dll
 0002:00000120       __imp__LoadLibraryA@4      004c5120     kernel32:KERNEL32.dll
 0002:00000124       \177KERNEL32_NULL_THUNK_DATA 004c5124     kernel32:KERNEL32.dll
 0002:00000128       __imp_?sputn@?$basic_streambuf@DU?$char_traits@D@std@@@std@@QAE_JPBD_J@Z 004c5128     msvcprt:MSVCP140.dll
 0002:0000012c       __imp_?sputc@?$basic_streambuf@DU?$char_traits@D@std@@@std@@QAEHD@Z 004c512c     msvcprt:MSVCP140.dll
 0002:00000130       __imp_??0?$basic_ios@DU?$char_traits@D@std@@@std@@IAE@XZ 004c5130     msvcprt:MSVCP140.dll
 0002:00000134       __imp_?widen@?$basic_ios@DU?$char_traits@D@std@@@std@@QBEDD@Z 004c5134     msvcprt:MSVCP140.dll
 0002:00000138       __imp_?setstate@?$basic_ios@DU?$char_traits@D@std@@@std@@QAEXH_N@Z 004c5138     msvcprt:MSVCP140.dll
 0002:0000013c       __imp_?_Getcat@?$codecvt@DDU_Mbstatet@@@std@@SAIPAPBVfacet@locale@2@PBV42@@Z 004c513c     msvcprt:MSVCP140.dll
 0002:00000140       __imp_?_Osfx@?$basic_ostream@DU?$char_traits@D@std@@@std@@QAEXXZ 004c5140     msvcprt:MSVCP140.dll
 0002:00000144       __imp_?_Init@?$basic_streambuf@DU?$char_traits@D@std@@@std@@IAEXPAPAD0PAH001@Z 004c5144     msvcprt:MSVCP140.dll
 0002:00000148       __imp_?_Init@?$basic_streambuf@DU?$char_traits@D@std@@@std@@IAEXXZ 004c5148     msvcprt:MSVCP140.dll
 0002:0000014c       __imp_??0?$basic_ostream@DU?$char_traits@D@std@@@std@@QAE@PAV?$basic_streambuf@DU?$char_traits@D@std@@@1@_N@Z 004c514c     msvcprt:MSVCP140.dll
 0002:00000150       __imp_?put@?$basic_ostream@DU?$char_traits@D@std@@@std@@QAEAAV12@D@Z 004c5150     msvcprt:MSVCP140.dll
 0002:00000154       __imp_?flush@?$basic_ostream@DU?$char_traits@D@std@@@std@@QAEAAV12@XZ 004c5154     msvcprt:MSVCP140.dll
 0002:00000158       __imp_?in@?$codecvt@DDU_Mbstatet@@@std@@QBEHAAU_Mbstatet@@PBD1AAPBDPAD3AAPAD@Z 004c5158     msvcprt:MSVCP140.dll
 0002:0000015c       __imp_?out@?$codecvt@DDU_Mbstatet@@@std@@QBEHAAU_Mbstatet@@PBD1AAPBDPAD3AAPAD@Z 004c515c     msvcprt:MSVCP140.dll
 0002:00000160       __imp_??1?$basic_ios@DU?$char_traits@D@std@@@std@@UAE@XZ 004c5160     msvcprt:MSVCP140.dll
 0002:00000164       __imp_??1?$basic_streambuf@DU?$char_traits@D@std@@@std@@UAE@XZ 004c5164     msvcprt:MSVCP140.dll
 0002:00000168       __imp_?unshift@?$codecvt@DDU_Mbstatet@@@std@@QBEHAAU_Mbstatet@@PAD1AAPAD@Z 004c5168     msvcprt:MSVCP140.dll
 0002:0000016c       __imp_?showmanyc@?$basic_streambuf@DU?$char_traits@D@std@@@std@@MAE_JXZ 004c516c     msvcprt:MSVCP140.dll
 0002:00000170       __imp_?xsgetn@?$basic_streambuf@DU?$char_traits@D@std@@@std@@MAE_JPAD_J@Z 004c5170     msvcprt:MSVCP140.dll
 0002:00000174       __imp_?xsputn@?$basic_streambuf@DU?$char_traits@D@std@@@std@@MAE_JPBD_J@Z 004c5174     msvcprt:MSVCP140.dll
 0002:00000178       __imp_??1?$basic_ostream@DU?$char_traits@D@std@@@std@@UAE@XZ 004c5178     msvcprt:MSVCP140.dll
 0002:0000017c       __imp_??6?$basic_ostream@DU?$char_traits@D@std@@@std@@QAEAAV01@P6AAAV01@AAV01@@Z@Z 004c517c     msvcprt:MSVCP140.dll
 0002:00000180       __imp_?good@ios_base@std@@QBE_NXZ 004c5180     msvcprt:MSVCP140.dll
 0002:00000184       __imp_?always_noconv@codecvt_base@std@@QBE_NXZ 004c5184     msvcprt:MSVCP140.dll
 0002:00000188       __imp_?_Xbad_alloc@std@@YAXXZ 004c5188     msvcprt:MSVCP140.dll
 0002:0000018c       __imp_?getloc@?$basic_streambuf@DU?$char_traits@D@std@@@std@@QBE?AVlocale@2@XZ 004c518c     msvcprt:MSVCP140.dll
 0002:00000190       __imp_??1_Lockit@std@@QAE@XZ 004c5190     msvcprt:MSVCP140.dll
 0002:00000194       __imp_??0_Lockit@std@@QAE@H@Z 004c5194     msvcprt:MSVCP140.dll
 0002:00000198       __imp_?_Getgloballocale@locale@std@@CAPAV_Locimp@12@XZ 004c5198     msvcprt:MSVCP140.dll
 0002:0000019c       __imp_?uncaught_exception@std@@YA_NXZ 004c519c     msvcprt:MSVCP140.dll
 0002:000001a0       __imp_?_Id_cnt@id@locale@std@@0HA 004c51a0     msvcprt:MSVCP140.dll
 0002:000001a4       __imp_?id@?$codecvt@DDU_Mbstatet@@@std@@2V0locale@2@A 004c51a4     msvcprt:MSVCP140.dll
 0002:000001a8       __imp_?_Fiopen@std@@YAPAU_iobuf@@PBDHH@Z 004c51a8     msvcprt:MSVCP140.dll
 0002:000001ac       __imp_?_Xlength_error@std@@YAXPBD@Z 004c51ac     msvcprt:MSVCP140.dll
 0002:000001b0       __imp_??0?$basic_streambuf@DU?$char_traits@D@std@@@std@@IAE@XZ 004c51b0     msvcprt:MSVCP140.dll
 0002:000001b4       \177MSVCP140_NULL_THUNK_DATA 004c51b4     msvcprt:MSVCP140.dll
 0002:000001b8       __imp__GetMessageA@16      004c51b8     user32:USER32.dll
 0002:000001bc       __imp__DispatchMessageA@4  004c51bc     user32:USER32.dll
 0002:000001c0       __imp__PostMessageA@16     004c51c0     user32:USER32.dll
 0002:000001c4       __imp__WaitMessage@0       004c51c4     user32:USER32.dll
 0002:000001c8       __imp__ShowWindow@8        004c51c8     user32:USER32.dll
 0002:000001cc       __imp__DefWindowProcA@16   004c51cc     user32:USER32.dll
 0002:000001d0       __imp__CreateWindowExA@48  004c51d0     user32:USER32.dll
 0002:000001d4       __imp__TranslateMessage@4  004c51d4     user32:USER32.dll
 0002:000001d8       __imp__PeekMessageA@20     004c51d8     user32:USER32.dll
 0002:000001dc       __imp__PostQuitMessage@4   004c51dc     user32:USER32.dll
 0002:000001e0       __imp__UpdateWindow@4      004c51e0     user32:USER32.dll
 0002:000001e4       __imp__LoadCursorA@8       004c51e4     user32:USER32.dll
 0002:000001e8       __imp__SetRect@20          004c51e8     user32:USER32.dll
 0002:000001ec       __imp__GetAsyncKeyState@4  004c51ec     user32:USER32.dll
 0002:000001f0       __imp__MessageBoxA@16      004c51f0     user32:USER32.dll
 0002:000001f4       __imp__SendMessageA@16     004c51f4     user32:USER32.dll
 0002:000001f8       __imp__GetCursorPos@4      004c51f8     user32:USER32.dll
 0002:000001fc       __imp__SetWindowPos@28     004c51fc     user32:USER32.dll
 0002:00000200       __imp__GetSystemMetrics@4  004c5200     user32:USER32.dll
 0002:00000204       __imp__wsprintfA           004c5204     user32:USER32.dll
 0002:00000208       __imp__OffsetRect@12       004c5208     user32:USER32.dll
 0002:0000020c       __imp__DrawTextA@20        004c520c     user32:USER32.dll
 0002:00000210       __imp__SetWindowLongA@12   004c5210     user32:USER32.dll
 0002:00000214       __imp__ClientToScreen@8    004c5214     user32:USER32.dll
 0002:00000218       __imp__ChangeDisplaySettingsA@8 004c5218     user32:USER32.dll
 0002:0000021c       __imp__EnumDisplaySettingsA@12 004c521c     user32:USER32.dll
 0002:00000220       __imp__GetClientRect@8     004c5220     user32:USER32.dll
 0002:00000224       __imp__RegisterClassA@4    004c5224     user32:USER32.dll
 0002:00000228       \177USER32_NULL_THUNK_DATA 004c5228     user32:USER32.dll
 0002:0000022c       __imp___purecall           004c522c     vcruntime:VCRUNTIME140.dll
 0002:00000230       __imp__memcpy              004c5230     vcruntime:VCRUNTIME140.dll
 0002:00000234       __imp__memset              004c5234     vcruntime:VCRUNTIME140.dll
 0002:00000238       __imp__longjmp             004c5238     vcruntime:VCRUNTIME140.dll
 0002:0000023c       __imp____std_exception_copy 004c523c     vcruntime:VCRUNTIME140.dll
 0002:00000240       __imp___setjmp3            004c5240     vcruntime:VCRUNTIME140.dll
 0002:00000244       __imp___CxxThrowException@8 004c5244     vcruntime:VCRUNTIME140.dll
 0002:00000248       __imp____current_exception 004c5248     vcruntime:VCRUNTIME140.dll
 0002:0000024c       __imp____current_exception_context 004c524c     vcruntime:VCRUNTIME140.dll
 0002:00000250       __imp___except_handler4_common 004c5250     vcruntime:VCRUNTIME140.dll
 0002:00000254       __imp____CxxLongjmpUnwind@4 004c5254     vcruntime:VCRUNTIME140.dll
 0002:00000258       __imp____std_exception_destroy 004c5258     vcruntime:VCRUNTIME140.dll
 0002:0000025c       __imp__strchr              004c525c     vcruntime:VCRUNTIME140.dll
 0002:00000260       __imp__memmove             004c5260     vcruntime:VCRUNTIME140.dll
 0002:00000264       __imp____CxxFrameHandler3  004c5264     vcruntime:VCRUNTIME140.dll
 0002:00000268       __imp____std_terminate     004c5268     vcruntime:VCRUNTIME140.dll
 0002:0000026c       __imp__strstr              004c526c     vcruntime:VCRUNTIME140.dll
 0002:00000270       \177VCRUNTIME140_NULL_THUNK_DATA 004c5270     vcruntime:VCRUNTIME140.dll
 0002:00000274       __imp__timeGetTime@0       004c5274     winmm:WINMM.dll
 0002:00000278       __imp__timeGetDevCaps@8    004c5278     winmm:WINMM.dll
 0002:0000027c       __imp__timeBeginPeriod@4   004c527c     winmm:WINMM.dll
 0002:00000280       __imp__timeSetEvent@20     004c5280     winmm:WINMM.dll
 0002:00000284       __imp__timeEndPeriod@4     004c5284     winmm:WINMM.dll
 0002:00000288       __imp__timeKillEvent@4     004c5288     winmm:WINMM.dll
 0002:0000028c       \177WINMM_NULL_THUNK_DATA  004c528c     winmm:WINMM.dll
 0002:00000290       __imp__shutdown@8          004c5290     wsock32:WSOCK32.dll
 0002:00000294       __imp__closesocket@4       004c5294     wsock32:WSOCK32.dll
 0002:00000298       __imp__WSAStartup@8        004c5298     wsock32:WSOCK32.dll
 0002:0000029c       __imp__WSACleanup@0        004c529c     wsock32:WSOCK32.dll
 0002:000002a0       __imp__WSAGetLastError@0   004c52a0     wsock32:WSOCK32.dll
 0002:000002a4       __imp__setsockopt@20       004c52a4     wsock32:WSOCK32.dll
 0002:000002a8       __imp__htons@4             004c52a8     wsock32:WSOCK32.dll
 0002:000002ac       __imp__recv@16             004c52ac     wsock32:WSOCK32.dll
 0002:000002b0       __imp__connect@12          004c52b0     wsock32:WSOCK32.dll
 0002:000002b4       __imp__socket@12           004c52b4     wsock32:WSOCK32.dll
 0002:000002b8       __imp__send@16             004c52b8     wsock32:WSOCK32.dll
 0002:000002bc       __imp__inet_addr@4         004c52bc     wsock32:WSOCK32.dll
 0002:000002c0       __imp__WSAAsyncSelect@16   004c52c0     wsock32:WSOCK32.dll
 0002:000002c4       \177WSOCK32_NULL_THUNK_DATA 004c52c4     wsock32:WSOCK32.dll
 0002:000002c8       __imp___ltoa               004c52c8     ucrt:api-ms-win-crt-convert-l1-1-0.dll
 0002:000002c8       __imp__ltoa                004c52c8     ucrt:api-ms-win-crt-convert-l1-1-0.dll
 0002:000002cc       __imp__atoi                004c52cc     ucrt:api-ms-win-crt-convert-l1-1-0.dll
 0002:000002d0       __imp___itoa               004c52d0     ucrt:api-ms-win-crt-convert-l1-1-0.dll
 0002:000002d4       \177api-ms-win-crt-convert-l1-1-0_NULL_THUNK_DATA 004c52d4     ucrt:api-ms-win-crt-convert-l1-1-0.dll
 0002:000002d8       __imp__getenv              004c52d8     ucrt:api-ms-win-crt-environment-l1-1-0.dll
 0002:000002dc       \177api-ms-win-crt-environment-l1-1-0_NULL_THUNK_DATA 004c52dc     ucrt:api-ms-win-crt-environment-l1-1-0.dll
 0002:000002e0       __imp___mkdir              004c52e0     ucrt:api-ms-win-crt-filesystem-l1-1-0.dll
 0002:000002e4       __imp___unlock_file        004c52e4     ucrt:api-ms-win-crt-filesystem-l1-1-0.dll
 0002:000002e8       __imp___lock_file          004c52e8     ucrt:api-ms-win-crt-filesystem-l1-1-0.dll
 0002:000002ec       \177api-ms-win-crt-filesystem-l1-1-0_NULL_THUNK_DATA 004c52ec     ucrt:api-ms-win-crt-filesystem-l1-1-0.dll
 0002:000002f0       __imp__realloc             004c52f0     ucrt:api-ms-win-crt-heap-l1-1-0.dll
 0002:000002f4       __imp___callnewh           004c52f4     ucrt:api-ms-win-crt-heap-l1-1-0.dll
 0002:000002f8       __imp__free                004c52f8     ucrt:api-ms-win-crt-heap-l1-1-0.dll
 0002:000002fc       __imp___set_new_mode       004c52fc     ucrt:api-ms-win-crt-heap-l1-1-0.dll
 0002:00000300       __imp__malloc              004c5300     ucrt:api-ms-win-crt-heap-l1-1-0.dll
 0002:00000304       \177api-ms-win-crt-heap-l1-1-0_NULL_THUNK_DATA 004c5304     ucrt:api-ms-win-crt-heap-l1-1-0.dll
 0002:00000308       __imp___configthreadlocale 004c5308     ucrt:api-ms-win-crt-locale-l1-1-0.dll
 0002:0000030c       \177api-ms-win-crt-locale-l1-1-0_NULL_THUNK_DATA 004c530c     ucrt:api-ms-win-crt-locale-l1-1-0.dll
 0002:00000310       __imp____setusermatherr    004c5310     ucrt:api-ms-win-crt-math-l1-1-0.dll
 0002:00000314       __imp__floor               004c5314     ucrt:api-ms-win-crt-math-l1-1-0.dll
 0002:00000318       __imp___libm_sse2_log_precise 004c5318     ucrt:api-ms-win-crt-math-l1-1-0.dll
 0002:0000031c       __imp___libm_sse2_exp_precise 004c531c     ucrt:api-ms-win-crt-math-l1-1-0.dll
 0002:00000320       \177api-ms-win-crt-math-l1-1-0_NULL_THUNK_DATA 004c5320     ucrt:api-ms-win-crt-math-l1-1-0.dll
 0002:00000324       __imp___exit               004c5324     ucrt:api-ms-win-crt-runtime-l1-1-0.dll
 0002:00000328       __imp___initterm_e         004c5328     ucrt:api-ms-win-crt-runtime-l1-1-0.dll
 0002:0000032c       __imp___c_exit             004c532c     ucrt:api-ms-win-crt-runtime-l1-1-0.dll
 0002:00000330       __imp___controlfp_s        004c5330     ucrt:api-ms-win-crt-runtime-l1-1-0.dll
 0002:00000334       __imp___invoke_watson      004c5334     ucrt:api-ms-win-crt-runtime-l1-1-0.dll
 0002:00000338       __imp___initterm           004c5338     ucrt:api-ms-win-crt-runtime-l1-1-0.dll
 0002:0000033c       __imp___get_narrow_winmain_command_line 004c533c     ucrt:api-ms-win-crt-runtime-l1-1-0.dll
 0002:00000340       __imp__exit                004c5340     ucrt:api-ms-win-crt-runtime-l1-1-0.dll
 0002:00000344       __imp___register_thread_local_exe_atexit_callback 004c5344     ucrt:api-ms-win-crt-runtime-l1-1-0.dll
 0002:00000348       __imp___configure_narrow_argv 004c5348     ucrt:api-ms-win-crt-runtime-l1-1-0.dll
 0002:0000034c       __imp___initialize_narrow_environment 004c534c     ucrt:api-ms-win-crt-runtime-l1-1-0.dll
 0002:00000350       __imp___initialize_onexit_table 004c5350     ucrt:api-ms-win-crt-runtime-l1-1-0.dll
 0002:00000354       __imp___register_onexit_function 004c5354     ucrt:api-ms-win-crt-runtime-l1-1-0.dll
 0002:00000358       __imp___crt_atexit         004c5358     ucrt:api-ms-win-crt-runtime-l1-1-0.dll
 0002:0000035c       __imp___cexit              004c535c     ucrt:api-ms-win-crt-runtime-l1-1-0.dll
 0002:00000360       __imp__terminate           004c5360     ucrt:api-ms-win-crt-runtime-l1-1-0.dll
 0002:00000364       __imp___seh_filter_exe     004c5364     ucrt:api-ms-win-crt-runtime-l1-1-0.dll
 0002:00000368       __imp___set_app_type       004c5368     ucrt:api-ms-win-crt-runtime-l1-1-0.dll
 0002:0000036c       \177api-ms-win-crt-runtime-l1-1-0_NULL_THUNK_DATA 004c536c     ucrt:api-ms-win-crt-runtime-l1-1-0.dll
 0002:00000370       __imp__fopen               004c5370     ucrt:api-ms-win-crt-stdio-l1-1-0.dll
 0002:00000374       __imp__fgetpos             004c5374     ucrt:api-ms-win-crt-stdio-l1-1-0.dll
 0002:00000378       __imp____stdio_common_vfprintf 004c5378     ucrt:api-ms-win-crt-stdio-l1-1-0.dll
 0002:0000037c       __imp____acrt_iob_func     004c537c     ucrt:api-ms-win-crt-stdio-l1-1-0.dll
 0002:00000380       __imp___set_fmode          004c5380     ucrt:api-ms-win-crt-stdio-l1-1-0.dll
 0002:00000384       __imp__fputc               004c5384     ucrt:api-ms-win-crt-stdio-l1-1-0.dll
 0002:00000388       __imp__getc                004c5388     ucrt:api-ms-win-crt-stdio-l1-1-0.dll
 0002:0000038c       __imp__ftell               004c538c     ucrt:api-ms-win-crt-stdio-l1-1-0.dll
 0002:00000390       __imp__ferror              004c5390     ucrt:api-ms-win-crt-stdio-l1-1-0.dll
 0002:00000394       __imp____p__commode        004c5394     ucrt:api-ms-win-crt-stdio-l1-1-0.dll
 0002:00000398       __imp__feof                004c5398     ucrt:api-ms-win-crt-stdio-l1-1-0.dll
 0002:0000039c       __imp__fseek               004c539c     ucrt:api-ms-win-crt-stdio-l1-1-0.dll
 0002:000003a0       __imp__fwrite              004c53a0     ucrt:api-ms-win-crt-stdio-l1-1-0.dll
 0002:000003a4       __imp__fgets               004c53a4     ucrt:api-ms-win-crt-stdio-l1-1-0.dll
 0002:000003a8       __imp__setvbuf             004c53a8     ucrt:api-ms-win-crt-stdio-l1-1-0.dll
 0002:000003ac       __imp__fflush              004c53ac     ucrt:api-ms-win-crt-stdio-l1-1-0.dll
 0002:000003b0       __imp__fclose              004c53b0     ucrt:api-ms-win-crt-stdio-l1-1-0.dll
 0002:000003b4       __imp____stdio_common_vsscanf 004c53b4     ucrt:api-ms-win-crt-stdio-l1-1-0.dll
 0002:000003b8       __imp__fgetc               004c53b8     ucrt:api-ms-win-crt-stdio-l1-1-0.dll
 0002:000003bc       __imp__ungetc              004c53bc     ucrt:api-ms-win-crt-stdio-l1-1-0.dll
 0002:000003c0       __imp___get_stream_buffer_pointers 004c53c0     ucrt:api-ms-win-crt-stdio-l1-1-0.dll
 0002:000003c4       __imp___fseeki64           004c53c4     ucrt:api-ms-win-crt-stdio-l1-1-0.dll
 0002:000003c8       __imp__fread               004c53c8     ucrt:api-ms-win-crt-stdio-l1-1-0.dll
 0002:000003cc       __imp__fsetpos             004c53cc     ucrt:api-ms-win-crt-stdio-l1-1-0.dll
 0002:000003d0       __imp____stdio_common_vsprintf 004c53d0     ucrt:api-ms-win-crt-stdio-l1-1-0.dll
 0002:000003d4       \177api-ms-win-crt-stdio-l1-1-0_NULL_THUNK_DATA 004c53d4     ucrt:api-ms-win-crt-stdio-l1-1-0.dll
 0002:000003d8       __imp__strncpy             004c53d8     ucrt:api-ms-win-crt-string-l1-1-0.dll
 0002:000003dc       __imp__strtok              004c53dc     ucrt:api-ms-win-crt-string-l1-1-0.dll
 0002:000003e0       __imp___strlwr             004c53e0     ucrt:api-ms-win-crt-string-l1-1-0.dll
 0002:000003e4       __imp___strrev             004c53e4     ucrt:api-ms-win-crt-string-l1-1-0.dll
 0002:000003e4       __imp__strrev              004c53e4     ucrt:api-ms-win-crt-string-l1-1-0.dll
 0002:000003e8       __imp__isprint             004c53e8     ucrt:api-ms-win-crt-string-l1-1-0.dll
 0002:000003ec       \177api-ms-win-crt-string-l1-1-0_NULL_THUNK_DATA 004c53ec     ucrt:api-ms-win-crt-string-l1-1-0.dll
 0002:000003f0       __imp___time64             004c53f0     ucrt:api-ms-win-crt-time-l1-1-0.dll
 0002:000003f4       \177api-ms-win-crt-time-l1-1-0_NULL_THUNK_DATA 004c53f4     ucrt:api-ms-win-crt-time-l1-1-0.dll
 0002:000003f8       __imp__rand                004c53f8     ucrt:api-ms-win-crt-utility-l1-1-0.dll
 0002:000003fc       __imp__srand               004c53fc     ucrt:api-ms-win-crt-utility-l1-1-0.dll
 0002:00000400       \177api-ms-win-crt-utility-l1-1-0_NULL_THUNK_DATA 004c5400     ucrt:api-ms-win-crt-utility-l1-1-0.dll
 0002:00000404       __imp__D3D11CreateDeviceAndSwapChain@48 004c5404     d3d11:d3d11.dll
 0002:00000408       \177d3d11_NULL_THUNK_DATA  004c5408     d3d11:d3d11.dll
 0002:0000040c       __imp____FindHackingDll__  004c540c     search:search.dll
 0002:00000410       \177search_NULL_THUNK_DATA 004c5410     search:search.dll
 0002:00000414       ___guard_check_icall_fptr  004c5414     MSVCRT:guard_support.obj
 0002:00000418       ___castguard_check_failure_os_handled_fptr 004c5418     MSVCRT:guard_support.obj
 0002:0000041c       ___xc_a                    004c541c     MSVCRT:initializers.obj
 0002:00000428       ___xc_z                    004c5428     MSVCRT:initializers.obj
 0002:0000042c       ___xi_a                    004c542c     MSVCRT:initializers.obj
 0002:00000438       ___xi_z                    004c5438     MSVCRT:initializers.obj
 0002:0000043c       ___xl_a                    004c543c     MSVCRT:tlssup.obj
 0002:00000440       ___xl_z                    004c5440     MSVCRT:tlssup.obj
 0002:00000444       ___xp_a                    004c5444     MSVCRT:initializers.obj
 0002:00000448       ___xp_z                    004c5448     MSVCRT:initializers.obj
 0002:0000044c       ___xt_a                    004c544c     MSVCRT:initializers.obj
 0002:00000450       ___xt_z                    004c5450     MSVCRT:initializers.obj
 0002:00000460       _c_dfDIMouse               004c5460     DINPUT:dilib1.obj
 0002:00000478       _GUID_SysMouse             004c5478     DXGUID:dxguid.obj
 0002:00000488       _GUID_ZAxis                004c5488     DXGUID:dxguid.obj
 0002:00000498       _GUID_YAxis                004c5498     DXGUID:dxguid.obj
 0002:000004a8       _GUID_XAxis                004c54a8     DXGUID:dxguid.obj
 0002:000004b8       _IID_IDirectDraw7          004c54b8     DXGUID:dxguid.obj
 0002:000004cc       ??_7CxFile@@6B@            004c54cc     cximage:ximainfo.obj
 0002:00000500       ??_7CxIOFile@@6B@          004c5500     cximage:ximainfo.obj
 0002:00000534       ??_7CxMemFile@@6B@         004c5534     cximage:ximainfo.obj
 0002:00000568       ??_7CxImage@@6B@           004c5568     cximage:ximainfo.obj
 0002:00000580       __real@406fc00000000000    004c5580     cximage:ximainfo.obj
 0002:00000588       __real@40bfae53            004c5588     cximage:ximainfo.obj
 0002:00000590       __real@40c3880000000000    004c5590     cximage:ximainfo.obj
 0002:0000059c       ??_7CxImageJPG@@6B@        004c559c     cximage:ximaenc.obj
 0002:000005a4       ??_7CxImageBMP@@6B@        004c55a4     cximage:ximaenc.obj
 0002:000005a8       ??_C@_0BC@EKOABIK@null?5file?5handler@ 004c55a8     cximage:ximaenc.obj
 0002:000005bc       ??_C@_0O@IJEAEGNE@null?5image?$CB?$CB?$CB@ 004c55bc     cximage:ximaenc.obj
 0002:000005cc       ??_C@_02GMLFBBN@wb@        004c55cc     cximage:ximaenc.obj
 0002:000005d0       ??_C@_0BJ@JPAHFJOJ@the?5buffer?5must?5be?5empty@ 004c55d0     cximage:ximaenc.obj
 0002:000005ec       ??_C@_0BH@HNPCMEDE@Encode?3?5Unknown?5format@ 004c55ec     cximage:ximaenc.obj
 0002:00000604       ??_C@_0DI@LGEEEMNB@Multipage?5Encode?0?5Unsupported?5o@ 004c5604     cximage:ximaenc.obj
 0002:0000063c       ??_C@_0BJ@NMMAEJFL@Unable?5to?5load?5resource?$CB@ 004c563c     cximage:ximaenc.obj
 0002:00000658       ??_C@_0CA@NAFMDIED@Decode?3?5Unknown?5or?5wrong?5format@ 004c5658     cximage:ximaenc.obj
 0002:00000678       ??_C@_0DN@KLHAEJEG@CxImage?3?3Create?5?3?5width?5and?5hei@ 004c5678     cximage:xImage.obj
 0002:000006b8       ??_C@_0CG@JLAAPCEK@CxImage?3?3Create?5can?8t?5allocate?5@ 004c56b8     cximage:xImage.obj
 0002:000006e0       __real@43800000            004c56e0     cximage:ximapal.obj
 0002:000006e8       __static@a682e339cc434bb93577049199bf951699d64aaf21a751334f0122fd36d3d083 004c56e8     cximage:ximapal.obj
 0002:00000ae8       ??_C@_0CL@KPHOOAPK@JPEG?5can?5save?5only?5RGB?5or?5GreyS@ 004c5ae8     cximage:ximajpg.obj
 0002:00000b14       ??_C@_0BO@JBJCBMF@Too?5many?5sections?5in?5jpg?5file@ 004c5b14     cximage:ximaexif.obj
 0002:00000b34       ??_C@_0BI@GILAKKGB@too?5many?5padding?5bytes?6@ 004c5b34     cximage:ximaexif.obj
 0002:00000b4c       ??_C@_0P@GIOMEOHA@invalid?5marker@ 004c5b4c     cximage:ximaexif.obj
 0002:00000b5c       ??_C@_0BK@GELCMLJO@Could?5not?5allocate?5memory@ 004c5b5c     cximage:ximaexif.obj
 0002:00000b78       ??_C@_0BH@DLNAHNHC@Premature?5end?5of?5file?$DP@ 004c5b78     cximage:ximaexif.obj
 0002:00000b90       ??_C@_0CJ@DHLAJHLD@could?5not?5allocate?5data?5for?5ent@ 004c5b90     cximage:ximaexif.obj
 0002:00000bbc       ??_C@_0CF@HHNEBEEO@could?5not?5read?5the?5rest?5of?5the?5@ 004c5bbc     cximage:ximaexif.obj
 0002:00000be4       ??_C@_0BD@JNCCPKKG@No?5image?5in?5jpeg?$CB?6@ 004c5be4     cximage:ximaexif.obj
 0002:00000c00       ??_C@_0BG@LDMGCFJC@Incorrect?5Exif?5header@ 004c5c00     cximage:ximaexif.obj
 0002:00000c18       ??_C@_0BP@BLDLDBDJ@Invalid?5Exif?5alignment?5marker?4@ 004c5c18     cximage:ximaexif.obj
 0002:00000c38       ??_C@_0BH@OHLDIHNI@Invalid?5Exif?5start?5?$CI1?$CJ@ 004c5c38     cximage:ximaexif.obj
 0002:00000c84       ??_C@_0BK@KFGLINEN@Illegally?5sized?5directory@ 004c5c84     cximage:ximaexif.obj
 0002:00000ca0       ??_C@_0CA@HCHEHDKG@Illegal?5format?5code?5in?5EXIF?5dir@ 004c5ca0     cximage:ximaexif.obj
 0002:00000cc0       ??_C@_0CG@HFLLICMD@Illegal?5pointer?5offset?5value?5in@ 004c5cc0     cximage:ximaexif.obj
 0002:00000ce8       ??_C@_0BJ@KDNMDBJE@Undefined?5rotation?5value@ 004c5ce8     cximage:ximaexif.obj
 0002:00000d04       ??_C@_0BK@HCEKCMHN@Illegal?5subdirectory?5link@ 004c5d04     cximage:ximaexif.obj
 0002:00000d20       ??_C@_0CD@MKABLANM@Can?8t?5write?5exif?5?3?5didn?8t?5read?5@ 004c5d20     cximage:ximaexif.obj
 0002:00000d48       __real@4000000000000000    004c5d48     cximage:ximaexif.obj
 0002:00000d50       ??_C@_09JPGGIJD@Not?5a?5BMP@ 004c5d50     cximage:ximabmp.obj
 0002:00000d5c       ??_C@_0BH@HMJAGFGH@Error?5reading?5BMP?5info@ 004c5d5c     cximage:ximabmp.obj
 0002:00000d74       ??_C@_0BL@MMFAAPEC@output?5dimensions?5returned@ 004c5d74     cximage:ximabmp.obj
 0002:00000d90       ??_C@_0BG@DGPOBAHL@Can?8t?5allocate?5memory@ 004c5d90     cximage:ximabmp.obj
 0002:00000da8       ??_C@_09GHFJLBEK@Cancelled@ 004c5da8     cximage:ximabmp.obj
 0002:00000db4       ??_C@_0BG@LOGBICLI@can?8t?5allocate?5memory@ 004c5db4     cximage:ximabmp.obj
 0002:00000dcc       ??_C@_0BE@KPDOCLHP@unknown?5compression@ 004c5dcc     cximage:ximabmp.obj
 0002:00000de0       ??_C@_0BP@FPENCJEH@compression?5type?5not?5supported@ 004c5de0     cximage:ximabmp.obj
 0002:00000e00       _jpeg_std_message_table    004c5e00     Jpeg:Jerror.obj
 0002:00000ff4       ??_C@_0BG@MIBALFBH@Bogus?5message?5code?5?$CFd@ 004c5ff4     Jpeg:Jerror.obj
 0002:0000100c       ??_C@_0DJ@KONAFFHE@Sorry?0?5there?5are?5legal?5restrict@ 004c600c     Jpeg:Jerror.obj
 0002:00001048       ??_C@_0CA@FDMPGPNI@ALIGN_TYPE?5is?5wrong?0?5please?5fix@ 004c6048     Jpeg:Jerror.obj
 0002:00001068       ??_C@_0CF@DENLILGA@MAX_ALLOC_CHUNK?5is?5wrong?0?5pleas@ 004c6068     Jpeg:Jerror.obj
 0002:00001090       ??_C@_0BK@DKALDNKG@Bogus?5buffer?5control?5mode@ 004c6090     Jpeg:Jerror.obj
 0002:000010ac       ??_C@_0BP@ONFLCDHG@Invalid?5component?5ID?5?$CFd?5in?5SOS@ 004c60ac     Jpeg:Jerror.obj
 0002:000010cc       ??_C@_0BN@OJEJKKDL@DCT?5coefficient?5out?5of?5range@ 004c60cc     Jpeg:Jerror.obj
 0002:000010ec       ??_C@_0CI@MBJANLAP@IDCT?5output?5block?5size?5?$CFd?5not?5s@ 004c60ec     Jpeg:Jerror.obj
 0002:00001114       ??_C@_0BP@EOFJNLFD@Bogus?5Huffman?5table?5definition@ 004c6114     Jpeg:Jerror.obj
 0002:00001134       ??_C@_0BH@BGDIGLHC@Bogus?5input?5colorspace@ 004c6134     Jpeg:Jerror.obj
 0002:0000114c       ??_C@_0BG@NEGIHEMC@Bogus?5JPEG?5colorspace@ 004c614c     Jpeg:Jerror.obj
 0002:00001164       ??_C@_0BE@OGLAEMOG@Bogus?5marker?5length@ 004c6164     Jpeg:Jerror.obj
 0002:00001178       ??_C@_0DN@ELFKFKL@Wrong?5JPEG?5library?5version?3?5lib@ 004c6178     Jpeg:Jerror.obj
 0002:000011b8       ??_C@_0DA@HLEOHNPA@Sampling?5factors?5too?5large?5for?5@ 004c61b8     Jpeg:Jerror.obj
 0002:000011e8       ??_C@_0BM@OEMICEFD@Invalid?5memory?5pool?5code?5?$CFd@ 004c61e8     Jpeg:Jerror.obj
 0002:00001204       ??_C@_0CD@LDBDNLHK@Unsupported?5JPEG?5data?5precision@ 004c6204     Jpeg:Jerror.obj
 0002:00001228       ??_C@_0DH@LNGGEGOL@Invalid?5progressive?5parameters?5@ 004c6228     Jpeg:Jerror.obj
 0002:00001260       ??_C@_0DH@HIKEGPKP@Invalid?5progressive?5parameters?5@ 004c6260     Jpeg:Jerror.obj
 0002:00001298       ??_C@_0BH@HMMHPOPE@Bogus?5sampling?5factors@ 004c6298     Jpeg:Jerror.obj
 0002:000012b0       ??_C@_0CA@MJDDICLK@Invalid?5scan?5script?5at?5entry?5?$CFd@ 004c62b0     Jpeg:Jerror.obj
 0002:000012d0       ??_C@_0CK@BAMFIBMM@Improper?5call?5to?5JPEG?5library?5i@ 004c62d0     Jpeg:Jerror.obj
 0002:00001300       ??_C@_0EN@DKAEGIBH@JPEG?5parameter?5struct?5mismatch?3@ 004c6300     Jpeg:Jerror.obj
 0002:00001350       ??_C@_0BL@CBOEEPLK@Bogus?5virtual?5array?5access@ 004c6350     Jpeg:Jerror.obj
 0002:0000136c       ??_C@_0CL@JKHIPJLJ@Buffer?5passed?5to?5JPEG?5library?5i@ 004c636c     Jpeg:Jerror.obj
 0002:00001398       ??_C@_0BM@PKHCPJDH@Suspension?5not?5allowed?5here@ 004c6398     Jpeg:Jerror.obj
 0002:000013b4       ??_C@_0CF@LAEFHNAH@CCIR601?5sampling?5not?5implemente@ 004c63b4     Jpeg:Jerror.obj
 0002:000013dc       ??_C@_0CG@BEBDNOCG@Too?5many?5color?5components?3?5?$CFd?0?5@ 004c63dc     Jpeg:Jerror.obj
 0002:00001404       ??_C@_0CF@JDLOPNGO@Unsupported?5color?5conversion?5re@ 004c6404     Jpeg:Jerror.obj
 0002:0000142c       ??_C@_0BD@LDBBBMFL@Bogus?5DAC?5index?5?$CFd@ 004c642c     Jpeg:Jerror.obj
 0002:00001440       ??_C@_0BF@CLIOOJFM@Bogus?5DAC?5value?50x?$CFx@ 004c6440     Jpeg:Jerror.obj
 0002:00001458       ??_C@_0BD@KJHFPHIC@Bogus?5DHT?5index?5?$CFd@ 004c6458     Jpeg:Jerror.obj
 0002:0000146c       ??_C@_0BD@DIMECAOP@Bogus?5DQT?5index?5?$CFd@ 004c646c     Jpeg:Jerror.obj
 0002:00001480       ??_C@_0CF@DAGGEAPM@Empty?5JPEG?5image?5?$CIDNL?5not?5suppo@ 004c6480     Jpeg:Jerror.obj
 0002:000014a8       ??_C@_0BF@CPNENPBA@Read?5from?5EMS?5failed@ 004c64a8     Jpeg:Jerror.obj
 0002:000014c0       ??_C@_0BE@DGJBKIEB@Write?5to?5EMS?5failed@ 004c64c0     Jpeg:Jerror.obj
 0002:000014d4       ??_C@_0CB@DMGINPNE@Didn?8t?5expect?5more?5than?5one?5sca@ 004c64d4     Jpeg:Jerror.obj
 0002:000014f8       ??_C@_0BG@BALCKDNL@Input?5file?5read?5error@ 004c64f8     Jpeg:Jerror.obj
 0002:00001510       ??_C@_0CP@IDOBLGGD@Output?5file?5write?5error?5?9?9?9?5out@ 004c6510     Jpeg:Jerror.obj
 0002:00001540       ??_C@_0CI@EKDDDHFF@Fractional?5sampling?5not?5impleme@ 004c6540     Jpeg:Jerror.obj
 0002:00001568       ??_C@_0CB@LLDOGNPJ@Huffman?5code?5size?5table?5overflo@ 004c6568     Jpeg:Jerror.obj
 0002:0000158c       ??_C@_0CB@LFBMFPHI@Missing?5Huffman?5code?5table?5entr@ 004c658c     Jpeg:Jerror.obj
 0002:000015b0       ??_C@_0CP@EKFPGPNP@Maximum?5supported?5image?5dimensi@ 004c65b0     Jpeg:Jerror.obj
 0002:000015e0       ??_C@_0BB@JJAIKFBB@Empty?5input?5file@ 004c65e0     Jpeg:Jerror.obj
 0002:000015f4       ??_C@_0BM@KEKMMNGA@Premature?5end?5of?5input?5file@ 004c65f4     Jpeg:Jerror.obj
 0002:00001610       ??_C@_0DO@OPNPKGO@Cannot?5transcode?5due?5to?5multipl@ 004c6610     Jpeg:Jerror.obj
 0002:00001650       ??_C@_0CH@NIBDNILP@Scan?5script?5does?5not?5transmit?5a@ 004c6650     Jpeg:Jerror.obj
 0002:00001678       ??_C@_0CH@EFBBPPCK@Invalid?5color?5quantization?5mode@ 004c6678     Jpeg:Jerror.obj
 0002:000016a0       ??_C@_0BE@EOAAHHJ@Not?5implemented?5yet@ 004c66a0     Jpeg:Jerror.obj
 0002:000016b4       ??_C@_0CO@BEHINNOI@Requested?5feature?5was?5omitted?5a@ 004c66b4     Jpeg:Jerror.obj
 0002:000016e4       ??_C@_0BM@HJHFKLAF@Backing?5store?5not?5supported@ 004c66e4     Jpeg:Jerror.obj
 0002:00001700       ??_C@_0CF@BKANFCCL@Huffman?5table?50x?$CF02x?5was?5not?5de@ 004c6700     Jpeg:Jerror.obj
 0002:00001728       ??_C@_0CC@BKPLBDLJ@JPEG?5datastream?5contains?5no?5ima@ 004c6728     Jpeg:Jerror.obj
 0002:0000174c       ??_C@_0CK@CCHKIENB@Quantization?5table?50x?$CF02x?5was?5n@ 004c674c     Jpeg:Jerror.obj
 0002:00001778       ??_C@_0CL@GNLFDFCL@Not?5a?5JPEG?5file?3?5starts?5with?50x@ 004c6778     Jpeg:Jerror.obj
 0002:000017a4       ??_C@_0BO@DJPLELIB@Insufficient?5memory?5?$CIcase?5?$CFd?$CJ@ 004c67a4     Jpeg:Jerror.obj
 0002:000017c4       ??_C@_0CO@HPDBAEEA@Cannot?5quantize?5more?5than?5?$CFd?5co@ 004c67c4     Jpeg:Jerror.obj
 0002:000017f4       ??_C@_0CI@PLMPLCNO@Cannot?5quantize?5to?5fewer?5than?5?$CF@ 004c67f4     Jpeg:Jerror.obj
 0002:0000181c       ??_C@_0CH@NHMNHHIB@Cannot?5quantize?5to?5more?5than?5?$CFd@ 004c681c     Jpeg:Jerror.obj
 0002:00001844       ??_C@_0CN@IHJJJAFJ@Invalid?5JPEG?5file?5structure?3?5tw@ 004c6844     Jpeg:Jerror.obj
 0002:00001874       ??_C@_0DA@GJIJGINK@Invalid?5JPEG?5file?5structure?3?5mi@ 004c6874     Jpeg:Jerror.obj
 0002:000018a4       ??_C@_0CK@HMKECJK@Unsupported?5JPEG?5process?3?5SOF?5t@ 004c68a4     Jpeg:Jerror.obj
 0002:000018d0       ??_C@_0CN@HGJCMLNE@Invalid?5JPEG?5file?5structure?3?5tw@ 004c68d0     Jpeg:Jerror.obj
 0002:00001900       ??_C@_0CM@HONLBDPH@Invalid?5JPEG?5file?5structure?3?5SO@ 004c6900     Jpeg:Jerror.obj
 0002:0000192c       ??_C@_0CD@POKNOPOF@Failed?5to?5create?5temporary?5file@ 004c692c     Jpeg:Jerror.obj
 0002:00001950       ??_C@_0BO@EEPJGHHI@Read?5failed?5on?5temporary?5file@ 004c6950     Jpeg:Jerror.obj
 0002:00001970       ??_C@_0BO@GOBJOAAI@Seek?5failed?5on?5temporary?5file@ 004c6970     Jpeg:Jerror.obj
 0002:00001990       ??_C@_0DG@KALDLIJB@Write?5failed?5on?5temporary?5file?5@ 004c6990     Jpeg:Jerror.obj
 0002:000019c8       ??_C@_0CK@EPADOAKC@Application?5transferred?5too?5few@ 004c69c8     Jpeg:Jerror.obj
 0002:000019f4       ??_C@_0BP@BPKOBOIP@Unsupported?5marker?5type?50x?$CF02x@ 004c69f4     Jpeg:Jerror.obj
 0002:00001a14       ??_C@_0CD@GCLFJCHC@Virtual?5array?5controller?5messed@ 004c6a14     Jpeg:Jerror.obj
 0002:00001a38       ??_C@_0CH@LJLHCCHC@Image?5too?5wide?5for?5this?5impleme@ 004c6a38     Jpeg:Jerror.obj
 0002:00001a60       ??_C@_0BF@EKLGFGNM@Read?5from?5XMS?5failed@ 004c6a60     Jpeg:Jerror.obj
 0002:00001a78       ??_C@_0BE@FDPDCBIN@Write?5to?5XMS?5failed@ 004c6a78     Jpeg:Jerror.obj
 0002:00001a8c       ??_C@_0CD@IMBKIDCD@Copyright?5?$CIC?$CJ?51998?0?5Thomas?5G?4?5L@ 004c6a8c     Jpeg:Jerror.obj
 0002:00001ab0       ??_C@_0BA@LIJBPGPA@6b?5?527?9Mar?91998@ 004c6ab0     Jpeg:Jerror.obj
 0002:00001ac0       ??_C@_0DO@EGLODMBB@Caution?3?5quantization?5tables?5ar@ 004c6ac0     Jpeg:Jerror.obj
 0002:00001b00       ??_C@_0EC@EHPKAOHA@Adobe?5APP14?5marker?3?5version?5?$CFd?0@ 004c6b00     Jpeg:Jerror.obj
 0002:00001b44       ??_C@_0CK@HCPFFNKJ@Unknown?5APP0?5marker?5?$CInot?5JFIF?$CJ?0@ 004c6b44     Jpeg:Jerror.obj
 0002:00001b70       ??_C@_0CM@CAEPHFAA@Unknown?5APP14?5marker?5?$CInot?5Adobe@ 004c6b70     Jpeg:Jerror.obj
 0002:00001b9c       ??_C@_0CH@KIJGKPAA@Define?5Arithmetic?5Table?50x?$CF02x?3@ 004c6b9c     Jpeg:Jerror.obj
 0002:00001bc4       ??_C@_0BM@MDIEILCE@Define?5Huffman?5Table?50x?$CF02x@ 004c6bc4     Jpeg:Jerror.obj
 0002:00001be0       ??_C@_0CL@KLDOJIKN@Define?5Quantization?5Table?5?$CFd?5?5p@ 004c6be0     Jpeg:Jerror.obj
 0002:00001c0c       ??_C@_0BL@EMFIKBEK@Define?5Restart?5Interval?5?$CFu@ 004c6c0c     Jpeg:Jerror.obj
 0002:00001c28       ??_C@_0BE@IPCOOGDJ@Freed?5EMS?5handle?5?$CFu@ 004c6c28     Jpeg:Jerror.obj
 0002:00001c3c       ??_C@_0BH@GIPOLIGC@Obtained?5EMS?5handle?5?$CFu@ 004c6c3c     Jpeg:Jerror.obj
 0002:00001c54       ??_C@_0N@HJHFKELG@End?5Of?5Image@ 004c6c54     Jpeg:Jerror.obj
 0002:00001c64       ??_C@_0CI@FKGPAJC@?5?5?5?5?5?5?5?5?$CF3d?5?$CF3d?5?$CF3d?5?$CF3d?5?$CF3d?5?$CF3d@ 004c6c64     Jpeg:Jerror.obj
 0002:00001c8c       ??_C@_0DF@LOKNABIG@JFIF?5APP0?5marker?3?5version?5?$CFd?4?$CF0@ 004c6c8c     Jpeg:Jerror.obj
 0002:00001cc4       ??_C@_0DM@JLHNPIBE@Warning?3?5thumbnail?5image?5size?5d@ 004c6cc4     Jpeg:Jerror.obj
 0002:00001d00       ??_C@_0CO@KKPHGHBA@JFIF?5extension?5marker?3?5type?50x?$CF@ 004c6d00     Jpeg:Jerror.obj
 0002:00001d30       ??_C@_0CB@BADBMAAB@?5?5?5?5with?5?$CFd?5x?5?$CFd?5thumbnail?5imag@ 004c6d30     Jpeg:Jerror.obj
 0002:00001d54       ??_C@_0CH@EHHJCMGA@Miscellaneous?5marker?50x?$CF02x?0?5le@ 004c6d54     Jpeg:Jerror.obj
 0002:00001d7c       ??_C@_0BJ@COPODLDN@Unexpected?5marker?50x?$CF02x@ 004c6d7c     Jpeg:Jerror.obj
 0002:00001d98       ??_C@_0CI@GHPOCOCL@?5?5?5?5?5?5?5?5?$CF4u?5?$CF4u?5?$CF4u?5?$CF4u?5?$CF4u?5?$CF4u@ 004c6d98     Jpeg:Jerror.obj
 0002:00001dc0       ??_C@_0CD@CNNAOOFA@Quantizing?5to?5?$CFd?5?$DN?5?$CFd?$CK?$CFd?$CK?$CFd?5col@ 004c6dc0     Jpeg:Jerror.obj
 0002:00001de4       ??_C@_0BI@NEIBNACE@Quantizing?5to?5?$CFd?5colors@ 004c6de4     Jpeg:Jerror.obj
 0002:00001dfc       ??_C@_0CE@FDPBEAOO@Selected?5?$CFd?5colors?5for?5quantiza@ 004c6dfc     Jpeg:Jerror.obj
 0002:00001e20       ??_C@_0CF@NIMOLBCP@At?5marker?50x?$CF02x?0?5recovery?5acti@ 004c6e20     Jpeg:Jerror.obj
 0002:00001e48       ??_C@_05LLAPAOG@RST?$CFd@  004c6e48     Jpeg:Jerror.obj
 0002:00001e50       ??_C@_0DJ@PCBCLFML@Smoothing?5not?5supported?5with?5no@ 004c6e50     Jpeg:Jerror.obj
 0002:00001e8c       ??_C@_0DK@DMINKOGN@Start?5Of?5Frame?50x?$CF02x?3?5width?$DN?$CFu@ 004c6e8c     Jpeg:Jerror.obj
 0002:00001ec8       ??_C@_0BP@EDCAMHHE@?5?5?5?5Component?5?$CFd?3?5?$CFdhx?$CFdv?5q?$DN?$CFd@ 004c6ec8     Jpeg:Jerror.obj
 0002:00001ee8       ??_C@_0P@JLCHJELA@Start?5of?5Image@ 004c6ee8     Jpeg:Jerror.obj
 0002:00001ef8       ??_C@_0BN@BLOOHNC@Start?5Of?5Scan?3?5?$CFd?5components@ 004c6ef8     Jpeg:Jerror.obj
 0002:00001f18       ??_C@_0BO@CDEKFGLC@?5?5?5?5Component?5?$CFd?3?5dc?$DN?$CFd?5ac?$DN?$CFd@ 004c6f18     Jpeg:Jerror.obj
 0002:00001f38       ??_C@_0BN@GAMIJLDC@?5?5Ss?$DN?$CFd?0?5Se?$DN?$CFd?0?5Ah?$DN?$CFd?0?5Al?$DN?$CFd@ 004c6f38     Jpeg:Jerror.obj
 0002:00001f58       ??_C@_0BJ@KDCGAOJB@Closed?5temporary?5file?5?$CFs@ 004c6f58     Jpeg:Jerror.obj
 0002:00001f74       ??_C@_0BJ@GOCABEP@Opened?5temporary?5file?5?$CFs@ 004c6f74     Jpeg:Jerror.obj
 0002:00001f90       ??_C@_0EC@ELDEPOJP@JFIF?5extension?5marker?3?5JPEG?9com@ 004c6f90     Jpeg:Jerror.obj
 0002:00001fd4       ??_C@_0DK@JGAPDCJL@JFIF?5extension?5marker?3?5palette?5@ 004c6fd4     Jpeg:Jerror.obj
 0002:00002010       ??_C@_0DG@FCFDGNHE@JFIF?5extension?5marker?3?5RGB?5thum@ 004c7010     Jpeg:Jerror.obj
 0002:00002048       ??_C@_0DE@EEJCDLOO@Unrecognized?5component?5IDs?5?$CFd?5?$CF@ 004c7048     Jpeg:Jerror.obj
 0002:0000207c       ??_C@_0BE@FOGGKKAO@Freed?5XMS?5handle?5?$CFu@ 004c707c     Jpeg:Jerror.obj
 0002:00002090       ??_C@_0BH@LJLGPEFF@Obtained?5XMS?5handle?5?$CFu@ 004c7090     Jpeg:Jerror.obj
 0002:000020a8       ??_C@_0CG@KEGHCDOM@Unknown?5Adobe?5color?5transform?5c@ 004c70a8     Jpeg:Jerror.obj
 0002:000020d0       ??_C@_0EC@CBCJOINE@Inconsistent?5progression?5sequen@ 004c70d0     Jpeg:Jerror.obj
 0002:00002114       ??_C@_0DM@PCOGCKJB@Corrupt?5JPEG?5data?3?5?$CFu?5extraneou@ 004c7114     Jpeg:Jerror.obj
 0002:00002150       ??_C@_0DB@PGMEPGHN@Corrupt?5JPEG?5data?3?5premature?5en@ 004c7150     Jpeg:Jerror.obj
 0002:00002184       ??_C@_0CE@PBLDOPKB@Corrupt?5JPEG?5data?3?5bad?5Huffman?5@ 004c7184     Jpeg:Jerror.obj
 0002:000021a8       ??_C@_0CO@ODCCEDLN@Warning?3?5unknown?5JFIF?5revision?5@ 004c71a8     Jpeg:Jerror.obj
 0002:000021d8       ??_C@_0BL@DPFPFMLM@Premature?5end?5of?5JPEG?5file@ 004c71d8     Jpeg:Jerror.obj
 0002:000021f4       ??_C@_0DI@NFMBADOH@Corrupt?5JPEG?5data?3?5found?5marker@ 004c71f4     Jpeg:Jerror.obj
 0002:0000222c       ??_C@_0CL@BAKCGOKJ@Invalid?5SOS?5parameters?5for?5sequ@ 004c722c     Jpeg:Jerror.obj
 0002:00002258       ??_C@_0CL@OCGBAKPF@Application?5transferred?5too?5man@ 004c7258     Jpeg:Jerror.obj
 0002:00002284       ??_C@_03OFAPEBGM@?$CFs?6@  004c7284     Jpeg:Jerror.obj
 0002:0000264c       ??_C@_07OOOLPGAB@JPEGMEM@  004c764c     Jpeg:Jmemmgr.obj
 0002:00002654       ??_C@_05IBIMIMKO@?$CFld?$CFc@ 004c7654     Jpeg:Jmemmgr.obj
 0002:00002820       __real@3fd1a855de72ab5d    004c7820     Jpeg:Jddctmgr.obj
 0002:00002828       __real@3fe1517a7bc720bb    004c7828     Jpeg:Jddctmgr.obj
 0002:00002830       __real@3fe92469c0a7bf3b    004c7830     Jpeg:Jddctmgr.obj
 0002:00002838       __real@3ff2d062ef6c11aa    004c7838     Jpeg:Jddctmgr.obj
 0002:00002840       __real@3ff4e7ae914d6fca    004c7840     Jpeg:Jddctmgr.obj
 0002:00002848       __real@3ff63150b14861ef    004c7848     Jpeg:Jddctmgr.obj
 0002:00002850       __xmm@00000800000008000000080000000800 004c7850     Jpeg:Jddctmgr.obj
 0002:00002970       _jpeg_natural_order        004c7970     Jpeg:Jutils.obj
 0002:00002ab0       __xmm@00001d2f00001d2f00001d2f00001d2f 004c7ab0     Jpeg:Jccolor.obj
 0002:00002ac0       __xmm@00004c8b00004c8b00004c8b00004c8b 004c7ac0     Jpeg:Jccolor.obj
 0002:00002ad0       __xmm@00008000000080000000800000008000 004c7ad0     Jpeg:Jccolor.obj
 0002:00002ae0       __xmm@00009646000096460000964600009646 004c7ae0     Jpeg:Jccolor.obj
 0002:00002af0       __xmm@00807fff00807fff00807fff00807fff 004c7af0     Jpeg:Jccolor.obj
 0002:00002b00       __xmm@ffff94d1ffff94d1ffff94d1ffff94d1 004c7b00     Jpeg:Jccolor.obj
 0002:00002b10       __xmm@ffffab33ffffab33ffffab33ffffab33 004c7b10     Jpeg:Jccolor.obj
 0002:00002b20       __xmm@ffffd4cdffffd4cdffffd4cdffffd4cd 004c7b20     Jpeg:Jccolor.obj
 0002:00002b30       __xmm@ffffeb2fffffeb2fffffeb2fffffeb2f 004c7b30     Jpeg:Jccolor.obj
 0002:00002c00       __real@4020000000000000    004c7c00     Jpeg:Jcdctmgr.obj
 0002:00002c08       __real@46800100            004c7c08     Jpeg:Jcdctmgr.obj
 0002:00002c10       __xmm@00000400000004000000040000000400 004c7c10     Jpeg:Jcdctmgr.obj
 0002:00002c20       __xmm@40004000400040004000400040004000 004c7c20     Jpeg:Jcdctmgr.obj
 0002:00002c30       __xmm@46800100468001004680010046800100 004c7c30     Jpeg:Jcdctmgr.obj
 0002:00002c40       __real@3f8a8bd4            004c7c40     Jpeg:Jidctflt.obj
 0002:00002c44       __real@3fb504f3            004c7c44     Jpeg:Jidctflt.obj
 0002:00002c48       __real@3fec835e            004c7c48     Jpeg:Jidctflt.obj
 0002:00002c4c       __real@40273d75            004c7c4c     Jpeg:Jidctflt.obj
 0002:00002c50       __real@3ec3ef15            004c7c50     Jpeg:Jfdctflt.obj
 0002:00002c54       __real@3f0a8bd4            004c7c54     Jpeg:Jfdctflt.obj
 0002:00002c58       __real@3f3504f3            004c7c58     Jpeg:Jfdctflt.obj
 0002:00002c5c       __real@3fa73d75            004c7c5c     Jpeg:Jfdctflt.obj
 0002:00002c64       ??_7type_info@@6B@         004c7c64     MSVCRT:std_type_info_static.obj
 0002:00002cb4       ??_7exception@std@@6B@     004c7cb4     MSVCRT:throw_bad_alloc.obj
 0002:00002cc0       ??_7bad_alloc@std@@6B@     004c7cc0     MSVCRT:throw_bad_alloc.obj
 0002:00002cc8       ??_C@_0P@GHFPNOJB@bad?5allocation@ 004c7cc8     MSVCRT:throw_bad_alloc.obj
 0002:00002cdc       ??_7bad_array_new_length@std@@6B@ 004c7cdc     MSVCRT:throw_bad_alloc.obj
 0002:00002ce8       ??_7CBuildItem@@6B@        004c7ce8     BuildItem.obj
 0002:00002cf0       ??_7CCharInfo@@6B@         004c7cf0     CharInfo.obj
 0002:00002cf4       ??_C@_01KDCPPGHE@r@        004c7cf4     Curse.obj
 0002:00002cf8       ??_C@_07MDIPJLCH@?7?5_?9?4?3?$FO@ 004c7cf8     Curse.obj
 0002:00002d04       ??_7CCurse@@6B@            004c7d04     Curse.obj
 0002:00002d08       ??_C@_06IAEPOIJG@Tahoma@   004c7d08     DXC_ddraw.obj
 0002:00002d10       ??_C@_0BF@CKKDLFNC@Screenshot?5Success?$AN?6@ 004c7d10     DXC_ddraw.obj
 0002:00002d28       ??_C@_0BH@LGKKNBIG@Screenshot?5error?5?$CD?$CFi?$AN?6@ 004c7d28     DXC_ddraw.obj
 0002:00002d40       ??_C@_0BD@KKDKCIL@Screenshot?5error?$AN?6@ 004c7d40     DXC_ddraw.obj
 0002:00002d58       ??_7DXC_ddraw@@6B@         004c7d58     DXC_ddraw.obj
 0002:00002d60       ??_7DXC_dinput@@6B@        004c7d60     DXC_dinput.obj
 0002:00002d68       ??_7CEffect@@6B@           004c7d68     Effect.obj
 0002:00002d6c       ??_C@_0BC@EOODALEL@Unknown?5exception@ 004c7d6c     Game.obj
 0002:00002d80       ??_C@_0BF@KINCDENJ@bad?5array?5new?5length@ 004c7d80     Game.obj
 0002:00002d98       ??_C@_0BA@JFNIOLAK@string?5too?5long@ 004c7d98     Game.obj
 0002:00002da8       ??_C@_08EPJLHIJG@bad?5cast@ 004c7da8     Game.obj
 0002:00002db1       ??_C@_00CNPNBAHC@@         004c7db1     Game.obj
 0002:00002db4       ??_C@_0P@PLPHDCDF@dx11_debug?4txt@ 004c7db4     Game.obj
 0002:00002dc4       ??_C@_0CH@LONBONGE@Software?2Siementech?2Helbreath?2S@ 004c7dc4     Game.obj
 0002:00002dec       ??_C@_05PGIOBOGC@Magic@    004c7dec     Game.obj
 0002:00002df4       ??_C@_09IEGODBPE@ShortCut0@ 004c7df4     Game.obj
 0002:00002e00       ??_C@_09JNHFAALF@ShortCut1@ 004c7e00     Game.obj
 0002:00002e0c       ??_C@_09LGFIFDHG@ShortCut2@ 004c7e0c     Game.obj
 0002:00002e18       ??_C@_09KPEDGCDH@ShortCut3@ 004c7e18     Game.obj
 0002:00002e24       ??_C@_09OAACPEPA@ShortCut4@ 004c7e24     Game.obj
 0002:00002e30       ??_C@_06KIABNEND@?$CG?$DN?5?0?7?6@ 004c7e30     Game.obj
 0002:00002e38       ??_C@_05OCGGJDIG@dataq@    004c7e38     Game.obj
 0002:00002e40       ??_C@_06BNCHPKAP@ERROR1@   004c7e40     Game.obj
 0002:00002e48       ??_C@_0CO@MIOCPNKM@File?5checksum?5error?$CB?5Get?5Update@ 004c7e48     Game.obj
 0002:00002e78       ??_C@_06DGAKKJMM@ERROR2@   004c7e78     Game.obj
 0002:00002e80       ??_C@_0BD@CHLGNKEA@contents?2login?4cfg@ 004c7e80     Game.obj
 0002:00002e94       ??_C@_05MBDEGLCK@ERROR@    004c7e94     Game.obj
 0002:00002e9c       ??_C@_0CK@NHCMJPEG@login?4cfg?5file?5contains?5wrong?5i@ 004c7e9c     Game.obj
 0002:00002ec8       ??_C@_0CN@HNDAHFDD@ItemName?4cfg?5file?5contains?5wron@ 004c7ec8     Game.obj
 0002:00002ef8       ??_C@_0CN@JAEBGEHB@MAGICCFG?4TXT?5file?5contains?5wron@ 004c7ef8     Game.obj
 0002:00002f28       ??_C@_0CN@JIEJKLFK@SKILLCFG?4TXT?5file?5contains?5wron@ 004c7f28     Game.obj
 0002:00002f58       ??_C@_0BF@HMOCLEFO@Renderer?5Init?5Failed@ 004c7f58     Game.obj
 0002:00002f70       ??_C@_0BG@BFNFDCKC@Renderer?5Init?5Success@ 004c7f70     Game.obj
 0002:00002f88       ??_C@_0CD@GCOBLLEC@This?5program?5requires?5DirectX7?4@ 004c7f88     Game.obj
 0002:00002fac       ??_C@_0BH@JMLPABGA@sprites?2New?9Dialog?4pak@ 004c7fac     Game.obj
 0002:00002fc4       ??_C@_0L@PCBDACJG@New?9Dialog@ 004c7fc4     Game.obj
 0002:00002fd0       ??_C@_0BH@FLCBKILN@sprites?2interface2?4pak@ 004c7fd0     Game.obj
 0002:00002fe8       ??_C@_0L@MOHMJIIE@interface2@ 004c7fe8     Game.obj
 0002:00002ff4       ??_C@_0BF@CPBIOGMK@sprites?2sprfonts?4pak@ 004c7ff4     Game.obj
 0002:0000300c       ??_C@_08EOKDCCIB@sprfonts@ 004c800c     Game.obj
 0002:00003018       ??_C@_0BF@NCMIPABI@contents?2badword?4tmp@ 004c8018     Game.obj
 0002:00003030       ??_C@_0BF@KMEJFEIH@contents?2badword?4txt@ 004c8030     Game.obj
 0002:00003048       ??_C@_0CM@GBGOCIJM@BADWORD?4TXT?5file?5contains?5wrong@ 004c8048     Game.obj
 0002:00003074       ??_C@_0BD@PJCEECKP@contents?2Curse?4tmp@ 004c8074     Game.obj
 0002:00003088       ??_C@_0BD@IHKFOGDA@contents?2Curse?4txt@ 004c8088     Game.obj
 0002:0000309c       ??_C@_0CK@LCHACNII@CURSE?4TXT?5file?5contains?5wrong?5i@ 004c809c     Game.obj
 0002:000030c8       ??_C@_0FJ@DODGICIP@A?5civilian?5cannot?5go?5to?5a?5dange@ 004c80c8     Game.obj
 0002:00003124       ??_C@_07CHIMIKGG@William@  004c8124     Game.obj
 0002:0000312c       ??_C@_04NONKMINJ@Gail@     004c812c     Game.obj
 0002:00003134       ??_C@_01CLKCMJKC@?5@       004c8134     Game.obj
 0002:00003138       ??_C@_0BF@CJBCKMGP@?5?5?5?5?5?5?5?5?5?5?5?5?5?5?5?5?5?5?5?5@ 004c8138     Game.obj
 0002:00003150       ??_C@_04DFGAAIOO@?$DN?5?7?6@ 004c8150     Game.obj
 0002:00003158       ??_C@_0O@MAMHELEF@?$FLENDITEMLIST?$FN@ 004c8158     Game.obj
 0002:00003168       ??_C@_0BA@FIKNGGBM@Monster?8s?5Kills@ 004c8168     Game.obj
 0002:00003178       ??_C@_04FABLJDN@Name@      004c8178     Game.obj
 0002:00003180       ??_C@_08DAJBHHIG@Progress@ 004c8180     Game.obj
 0002:0000318c       ??_C@_05KOHFLOFG@Level@    004c818c     Game.obj
 0002:00003194       ??_C@_02DKCKIIND@?$CFs@    004c8194     Game.obj
 0002:00003198       ??_C@_05LCKIIOJE@?$CFd?1?$CFd@ 004c8198     Game.obj
 0002:000031a0       ??_C@_02DPKJAMEF@?$CFd@    004c81a0     Game.obj
 0002:000031a4       ??_C@_02CMAFNKKL@3J@       004c81a4     Game.obj
 0002:000031a8       ??_C@_0BC@FCIOADFM@Locked?5BackBuffer@ 004c81a8     Game.obj
 0002:000031bc       ??_C@_0BK@FANACFIM@Failed?5to?5Lock?5BackBuffer@ 004c81bc     Game.obj
 0002:000031d8       ??_C@_0M@JGBMGJHA@Batch?5Begin@ 004c81d8     Game.obj
 0002:000031e4       ??_C@_0L@CNIJGLPO@Batch?5Draw@ 004c81e4     Game.obj
 0002:000031f0       ??_C@_09JFBCFOFE@Batch?5End@ 004c81f0     Game.obj
 0002:000031fc       ??_C@_0BB@HNFKHEAK@EndFrame?5Present@ 004c81fc     Game.obj
 0002:00003210       ??_C@_0BC@JFENPIBB@Frame?5End?5Success@ 004c8210     Game.obj
 0002:00003224       ??_C@_0P@MCECNMNE@sprites?2?$CFs?4pak@ 004c8224     Game.obj
 0002:00003234       ??_C@_0BG@EMKPDLLA@sprites?2interface?4pak@ 004c8234     Game.obj
 0002:0000324c       ??_C@_09NFKLEKPH@interface@ 004c824c     Game.obj
 0002:00003258       ??_C@_0BE@KPJFGICJ@sprites?2Newmaps?4pak@ 004c8258     Game.obj
 0002:0000326c       ??_C@_07NLLIMPIN@Newmaps@  004c826c     Game.obj
 0002:00003274       ??_C@_0BI@JKLOHDFN@sprites?2LoginDialog?4pak@ 004c8274     Game.obj
 0002:0000328c       ??_C@_0M@FHNPFDKD@LoginDialog@ 004c828c     Game.obj
 0002:00003298       ??_C@_0BJ@GNAIPJEJ@sprites?2CreateNewAcc?4pak@ 004c8298     Game.obj
 0002:000032b4       ??_C@_0N@DCEJOMBG@CreateNewAcc@ 004c82b4     Game.obj
 0002:000032c4       ??_C@_0BH@ELFGJIOG@sprites?2GameDialog?4pak@ 004c82c4     Game.obj
 0002:000032dc       ??_C@_0L@EDCDINNO@GameDialog@ 004c82dc     Game.obj
 0002:000032e8       ??_C@_0BI@NJCOKFNP@sprites?2GameDialog2?4pak@ 004c82e8     Game.obj
 0002:00003300       ??_C@_0M@IMFIIICP@GameDialog2@ 004c8300     Game.obj
 0002:0000330c       ??_C@_0BI@PGLIHECN@sprites?2PartySprite?4pak@ 004c830c     Game.obj
 0002:00003324       ??_C@_0M@FCLGMNAA@PartySprite@ 004c8324     Game.obj
 0002:00003330       ??_C@_0BH@IJMHBLCA@sprites?2DialogText?4pak@ 004c8330     Game.obj
 0002:00003348       ??_C@_0L@KLJCMDBJ@DialogText@ 004c8348     Game.obj
 0002:00003354       ??_C@_09JIKOMBPD@Telescope@ 004c8354     Game.obj
 0002:00003360       ??_C@_0L@MJFMFJBG@Telescope2@ 004c8360     Game.obj
 0002:0000336c       ??_C@_07JHAJHILB@monster@  004c836c     Game.obj
 0002:00003374       ??_C@_09CICIPKFC@maptiles1@ 004c8374     Game.obj
 0002:00003380       ??_C@_0BI@MIIKHGEO@sprites?2structures1?4pak@ 004c8380     Game.obj
 0002:00003398       ??_C@_0M@NDCBDCON@structures1@ 004c8398     Game.obj
 0002:000033a4       ??_C@_08GDJFBOLE@Sinside1@ 004c83a4     Game.obj
 0002:000033b0       ??_C@_06DOCDGPFI@Trees1@   004c83b0     Game.obj
 0002:000033b8       ??_C@_0M@MGCAPAGO@TreeShadows@ 004c83b8     Game.obj
 0002:000033c4       ??_C@_08NFDIGEEN@objects1@ 004c83c4     Game.obj
 0002:000033d0       ??_C@_08POBFDHIO@objects2@ 004c83d0     Game.obj
 0002:000033dc       ??_C@_08OHAOAGMP@objects3@ 004c83dc     Game.obj
 0002:000033e8       ??_C@_08KIEPJAAI@objects4@ 004c83e8     Game.obj
 0002:000033f4       ??_C@_0M@NBLGGNOE@Tile223?9225@ 004c83f4     Game.obj
 0002:00003400       ??_C@_0M@CNMOLDFL@Tile226?9229@ 004c8400     Game.obj
 0002:0000340c       ??_C@_08LBFEKBEJ@objects5@ 004c840c     Game.obj
 0002:00003418       ??_C@_08JKHJPCIK@objects6@ 004c8418     Game.obj
 0002:00003424       ??_C@_08IDGCMDML@objects7@ 004c8424     Game.obj
 0002:00003430       ??_C@_09DAFKJJB@maptiles2@ 004c8430     Game.obj
 0002:0000343c       ??_C@_09FFFPAOBH@maptiles4@ 004c843c     Game.obj
 0002:00003448       ??_C@_09EMEEDPFG@maptiles5@ 004c8448     Game.obj
 0002:00003454       ??_C@_09GHGJGMJF@maptiles6@ 004c8454     Game.obj
 0002:00003460       ??_C@_0BA@BHPOKLGI@maptiles353?9361@ 004c8460     Game.obj
 0002:00003470       ??_C@_0M@HNMLNFBD@Tile363?9366@ 004c8470     Game.obj
 0002:0000347c       ??_C@_0M@PPEBKGEE@Tile367?9367@ 004c847c     Game.obj
 0002:00003488       ??_C@_0M@BIPHBHME@Tile370?9381@ 004c8488     Game.obj
 0002:00003494       ??_C@_0M@PFCNGBKA@Tile382?9387@ 004c8494     Game.obj
 0002:000034a0       ??_C@_0M@LKAFNPIC@Tile388?9402@ 004c84a0     Game.obj
 0002:000034ac       ??_C@_0M@KGKJPOPI@Tile403?9405@ 004c84ac     Game.obj
 0002:000034b8       ??_C@_0M@JBIMHOCB@Tile406?9421@ 004c84b8     Game.obj
 0002:000034c4       ??_C@_0M@FFFLKHBG@Tile422?9429@ 004c84c4     Game.obj
 0002:000034d0       ??_C@_0M@EAIGJJJB@Tile430?9443@ 004c84d0     Game.obj
 0002:000034dc       ??_C@_0M@FBPBHDMO@Tile444?9444@ 004c84dc     Game.obj
 0002:000034e8       ??_C@_0M@OEFOIAEA@Tile445?9461@ 004c84e8     Game.obj
 0002:000034f4       ??_C@_0M@FNDAKJGE@Tile462?9473@ 004c84f4     Game.obj
 0002:00003500       ??_C@_0M@MOOKJIAG@Tile474?9478@ 004c8500     Game.obj
 0002:0000350c       ??_C@_0M@HJCIMMOF@Tile479?9488@ 004c850c     Game.obj
 0002:00003518       ??_C@_0M@MAKELGDF@Tile489?9522@ 004c8518     Game.obj
 0002:00003524       ??_C@_0M@DKBBMCDG@Tile523?9530@ 004c8524     Game.obj
 0002:00003530       ??_C@_0M@NEOBHOAM@Tile531?9540@ 004c8530     Game.obj
 0002:0000353c       ??_C@_0M@GMDBLEMH@Tile541?9545@ 004c853c     Game.obj
 0002:00003548       ??_C@_09ODEAAIEE@item?9pack@ 004c8548     Game.obj
 0002:00003554       ??_C@_0BG@ECEGDMNE@sprites?2item?9pack?4pak@ 004c8554     Game.obj
 0002:0000356c       ??_C@_0M@ILBLLGCC@item?9ground@ 004c856c     Game.obj
 0002:00003578       ??_C@_0BI@EAIBDMPN@sprites?2item?9ground?4pak@ 004c8578     Game.obj
 0002:00003590       ??_C@_0N@FDOCOPHF@item?9dynamic@ 004c8590     Game.obj
 0002:000035a0       ??_C@_0BI@PGGCGBNJ@sprites?2item?9equipM?4pak@ 004c85a0     Game.obj
 0002:000035b8       ??_C@_0M@PIHBKDDA@item?9equipM@ 004c85b8     Game.obj
 0002:000035c4       ??_C@_0BI@FECPEACE@sprites?2item?9equipW?4pak@ 004c85c4     Game.obj
 0002:000035dc       ??_C@_0M@EIFMFJOL@item?9equipW@ 004c85dc     Game.obj
 0002:000035e8       ??_C@_02KDPDGKKJ@Bm@       004c85e8     Game.obj
 0002:000035ec       ??_C@_02LJBOALDC@Wm@       004c85ec     Game.obj
 0002:000035f0       ??_C@_02LDIACGDI@Ym@       004c85f0     Game.obj
 0002:000035f4       ??_C@_0O@KPLJODFB@TutelarAngel1@ 004c85f4     Game.obj
 0002:00003604       ??_C@_0O@IEJELAJC@TutelarAngel2@ 004c8604     Game.obj
 0002:00003614       ??_C@_0O@JNIPIBND@TutelarAngel3@ 004c8614     Game.obj
 0002:00003624       ??_C@_0O@NCMOBHBE@TutelarAngel4@ 004c8624     Game.obj
 0002:00003634       ??_C@_02BDNOJAHC@Bw@       004c8634     Game.obj
 0002:00003638       ??_C@_02JDDPBOJ@Ww@        004c8638     Game.obj
 0002:0000363c       ??_C@_02DKNNMOD@Yw@        004c863c     Game.obj
 0002:00003640       ??_C@_03DGKPAIDP@slm@      004c8640     Game.obj
 0002:00003644       ??_C@_03PLDJJELC@ske@      004c8644     Game.obj
 0002:00003648       ??_C@_03FCLLOINB@Gol@      004c8648     Game.obj
 0002:0000364c       ??_C@_03ECOKLMIL@Cyc@      004c864c     Game.obj
 0002:00003650       ??_C@_03EGJOMNC@Orc@       004c8650     Game.obj
 0002:00003654       ??_C@_07FMICIIFH@Shopkpr@  004c8654     Game.obj
 0002:0000365c       ??_C@_03PEAJEFGD@Ant@      004c865c     Game.obj
 0002:00003660       ??_C@_03GCKNIMCA@Scp@      004c8660     Game.obj
 0002:00003664       ??_C@_03OJNDFGNC@Zom@      004c8664     Game.obj
 0002:00003668       ??_C@_06MALLOAJE@Gandlf@   004c8668     Game.obj
 0002:00003670       ??_C@_06HCFJBIDE@Howard@   004c8670     Game.obj
 0002:00003678       ??_C@_05LICMIJMM@Guard@    004c8678     Game.obj
 0002:00003680       ??_C@_03JCCDDODO@Amp@      004c8680     Game.obj
 0002:00003684       ??_C@_03GKDBLPJC@Cla@      004c8684     Game.obj
 0002:00003688       ??_C@_03KJDOIONP@tom@      004c8688     Game.obj
 0002:0000368c       ??_C@_07JOIDJMBL@Kennedy@  004c868c     Game.obj
 0002:00003694       ??_C@_04ELKACHDK@Helb@     004c8694     Game.obj
 0002:0000369c       ??_C@_05LBPAFGKI@Troll@    004c869c     Game.obj
 0002:000036a4       ??_C@_04HHFKONCK@Orge@     004c86a4     Game.obj
 0002:000036ac       ??_C@_05NFFINMOA@Liche@    004c86ac     Game.obj
 0002:000036b4       ??_C@_05PKJPALPB@Demon@    004c86b4     Game.obj
 0002:000036bc       ??_C@_07GCLFKEMB@Unicorn@  004c86bc     Game.obj
 0002:000036c4       ??_C@_08CPBMDMDB@WereWolf@ 004c86c4     Game.obj
 0002:000036d0       ??_C@_05JMHIMMIL@Dummy@    004c86d0     Game.obj
 0002:000036d8       ??_C@_0BE@FLDKCIPH@sprites?2Effect5?4pak@ 004c86d8     Game.obj
 0002:000036ec       ??_C@_07EEODNLGN@Effect5@  004c86ec     Game.obj
 0002:000036f4       ??_C@_08HJNGEBKC@GT?9Arrow@ 004c86f4     Game.obj
 0002:00003700       ??_C@_09NOJLNMJO@GT?9Cannon@ 004c8700     Game.obj
 0002:0000370c       ??_C@_0O@FKCKKGMC@ManaCollector@ 004c870c     Game.obj
 0002:0000371c       ??_C@_08CGNANAGL@Detector@ 004c871c     Game.obj
 0002:00003728       ??_C@_03KDLDMBMH@ESG@      004c8728     Game.obj
 0002:0000372c       ??_C@_03BPACIHDG@GMG@      004c872c     Game.obj
 0002:00003730       ??_C@_09GLEHNJGN@ManaStone@ 004c8730     Game.obj
 0002:0000373c       ??_C@_03KEMFNCNE@LWB@      004c873c     Game.obj
 0002:00003740       ??_C@_03LFHMAKNB@GHK@      004c8740     Game.obj
 0002:00003744       ??_C@_06OODHOCEO@GHKABS@   004c8744     Game.obj
 0002:0000374c       ??_C@_02HIIGDGEP@TK@       004c874c     Game.obj
 0002:00003750       ??_C@_02MMJIKGIB@BG@       004c8750     Game.obj
 0002:00003754       ??_C@_07HJALAEIF@Stalker@  004c8754     Game.obj
 0002:0000375c       ??_C@_08FBJOAGCB@Hellclaw@ 004c875c     Game.obj
 0002:00003768       ??_C@_09LGJBJCDA@Tigerworm@ 004c8768     Game.obj
 0002:00003774       ??_C@_08JGIKGCKG@Catapult@ 004c8774     Game.obj
 0002:00003780       ??_C@_07NFKHDBPN@Gagoyle@  004c8780     Game.obj
 0002:00003788       ??_C@_08ILPBDJKF@Beholder@ 004c8788     Game.obj
 0002:00003794       ??_C@_07GMGDBHCM@DarkElf@  004c8794     Game.obj
 0002:0000379c       ??_C@_05FKNCDOCB@Bunny@    004c879c     Game.obj
 0002:000037a4       ??_C@_03FFFMMKNF@Cat@      004c87a4     Game.obj
 0002:000037a8       ??_C@_09LIBKNAGG@GiantFrog@ 004c87a8     Game.obj
 0002:000037b4       ??_C@_07PDCANPFI@MTGiant@  004c87b4     Game.obj
 0002:000037bc       ??_C@_05EFNPACMB@Ettin@    004c87bc     Game.obj
 0002:000037c4       ??_C@_08ODONBLAL@CanPlant@ 004c87c4     Game.obj
 0002:000037d0       ??_C@_07DDKMEHDF@Rudolph@  004c87d0     Game.obj
 0002:000037d8       ??_C@_08GDIIALDO@DireBoar@ 004c87d8     Game.obj
 0002:000037e4       ??_C@_05GNCDIMBK@frost@    004c87e4     Game.obj
 0002:000037ec       ??_C@_04ILAMLHIH@Crop@     004c87ec     Game.obj
 0002:000037f4       ??_C@_08KKNBEMF@IceGolem@  004c87f4     Game.obj
 0002:00003800       ??_C@_06HOKNEDPI@Wyvern@   004c8800     Game.obj
 0002:00003808       ??_C@_08JOAMKDOF@McGaffin@ 004c8808     Game.obj
 0002:00003814       ??_C@_05HLNPLIAA@Perry@    004c8814     Game.obj
 0002:0000381c       ??_C@_06DBPEAEFA@Devlin@   004c881c     Game.obj
 0002:00003824       ??_C@_06OJHKBCEH@Barlog@   004c8824     Game.obj
 0002:0000382c       ??_C@_09MHMOPCKJ@Centaurus@ 004c882c     Game.obj
 0002:00003838       ??_C@_0L@EPPJKAHJ@ClawTurtle@ 004c8838     Game.obj
 0002:00003844       ??_C@_0L@NNBHJEPA@FireWyvern@ 004c8844     Game.obj
 0002:00003850       ??_C@_0O@GOOIAMLB@GiantCrayfish@ 004c8850     Game.obj
 0002:00003860       ??_C@_0M@KDJKFOEK@GiantLizard@ 004c8860     Game.obj
 0002:0000386c       ??_C@_0L@KGLOGJG@GiantPlant@ 004c886c     Game.obj
 0002:00003878       ??_C@_0O@POHOMPNI@MasterMageOrc@ 004c8878     Game.obj
 0002:00003888       ??_C@_09EAJHFGM@Minotaurs@ 004c8888     Game.obj
 0002:00003894       ??_C@_05LEEDAPMJ@Nizie@    004c8894     Game.obj
 0002:0000389c       ??_C@_08IOMPDIEM@Tentocle@ 004c889c     Game.obj
 0002:000038a8       ??_C@_05CENPDIA@yspro@     004c88a8     Game.obj
 0002:000038b0       ??_C@_09BMNBPCGJ@Sorceress@ 004c88b0     Game.obj
 0002:000038bc       ??_C@_08CINILLKI@TPKnight@ 004c88bc     Game.obj
 0002:000038c8       ??_C@_09CHHLPHMM@ElfMaster@ 004c88c8     Game.obj
 0002:000038d4       ??_C@_0L@NEKOKPML@DarkKnight@ 004c88d4     Game.obj
 0002:000038e0       ??_C@_06NNKOBNND@HBTank@   004c88e0     Game.obj
 0002:000038e8       ??_C@_08FOEPCOFE@CBTurret@ 004c88e8     Game.obj
 0002:000038f4       ??_C@_08FNAFANNO@Babarian@ 004c88f4     Game.obj
 0002:00003900       ??_C@_07IMKPNCNG@ACannon@  004c8900     Game.obj
 0002:00003908       ??_C@_04BLOGEDLD@Gate@     004c8908     Game.obj
 0002:00003910       ??_C@_0BA@PKJHKIPJ@sprites?2Mpt?4pak@ 004c8910     Game.obj
 0002:00003920       ??_C@_03KIGHHEKB@Mpt@      004c8920     Game.obj
 0002:00003924       ??_C@_0BA@HIPPJJEN@sprites?2Mhr?4pak@ 004c8924     Game.obj
 0002:00003934       ??_C@_03OMAICBOP@Mhr@      004c8934     Game.obj
 0002:00003938       ??_C@_07HLDGDKHG@MLArmor@  004c8938     Game.obj
 0002:00003940       ??_C@_06GDDEJEGA@MCMail@   004c8940     Game.obj
 0002:00003948       ??_C@_06GAOCJGPL@MSMail@   004c8948     Game.obj
 0002:00003950       ??_C@_06OGHGOEFF@MPMail@   004c8950     Game.obj
 0002:00003958       ??_C@_06DEOBFMKL@Mtunic@   004c8958     Game.obj
 0002:00003960       ??_C@_06EAFEMKJ@MRobe1@    004c8960     Game.obj
 0002:00003968       ??_C@_06JNOAAKMG@MSanta@   004c8968     Game.obj
 0002:00003970       ??_C@_07BMOLLECF@MHRobe1@  004c8970     Game.obj
 0002:00003978       ??_C@_07DHMGOHOG@MHRobe2@  004c8978     Game.obj
 0002:00003980       ??_C@_08DJKMPFNO@MHPMail1@ 004c8980     Game.obj
 0002:0000398c       ??_C@_08BCIBKGBN@MHPMail2@ 004c898c     Game.obj
 0002:00003998       ??_C@_06DOBPMKKI@MShirt@   004c8998     Game.obj
 0002:000039a0       ??_C@_08IEALCADE@MHauberk@ 004c89a0     Game.obj
 0002:000039ac       ??_C@_0L@JEJFLOBB@MHHauberk1@ 004c89ac     Game.obj
 0002:000039b8       ??_C@_0L@LPLIONNC@MHHauberk2@ 004c89b8     Game.obj
 0002:000039c4       ??_C@_08HOLPPMMC@MTrouser@ 004c89c4     Game.obj
 0002:000039d0       ??_C@_09FKOPEJEF@MHTrouser@ 004c89d0     Game.obj
 0002:000039dc       ??_C@_07JGELNMFP@MCHoses@  004c89dc     Game.obj
 0002:000039e4       ??_C@_09IKCNGKEA@MLeggings@ 004c89e4     Game.obj
 0002:000039f0       ??_C@_0M@HPMCAGJH@MHLeggings1@ 004c89f0     Game.obj
 0002:000039fc       ??_C@_0M@FEOPFFFE@MHLeggings2@ 004c89fc     Game.obj
 0002:00003a08       ??_C@_06ENFMLGEG@MShoes@   004c8a08     Game.obj
 0002:00003a10       ??_C@_07MGLDKOLA@MLBoots@  004c8a10     Game.obj
 0002:00003a18       ??_C@_0BA@ENOLMAMK@sprites?2Msw?4pak@ 004c8a18     Game.obj
 0002:00003a28       ??_C@_03IBAMJJDL@Msw@      004c8a28     Game.obj
 0002:00003a2c       ??_C@_04FGGMBGED@Mswx@     004c8a2c     Game.obj
 0002:00003a34       ??_C@_04FMPKLBMM@Msw2@     004c8a34     Game.obj
 0002:00003a3c       ??_C@_04EFOBIAIN@Msw3@     004c8a3c     Game.obj
 0002:00003a44       ??_C@_0O@DLOFPPCH@MStormBringer@ 004c8a44     Game.obj
 0002:00003a54       ??_C@_09MPJOLJMJ@MDarkExec@ 004c8a54     Game.obj
 0002:00003a60       ??_C@_0O@IACOJNFD@MKlonessBlade@ 004c8a60     Game.obj
 0002:00003a70       ??_C@_0P@MMAPNFCN@MKlonessAstock@ 004c8a70     Game.obj
 0002:00003a80       ??_C@_0M@EGNDFIOO@MDebastator@ 004c8a80     Game.obj
 0002:00003a8c       ??_C@_05LOKCLABN@MAxe1@    004c8a8c     Game.obj
 0002:00003a94       ??_C@_05JFIPODNO@MAxe2@    004c8a94     Game.obj
 0002:00003a9c       ??_C@_05IMJENCJP@MAxe3@    004c8a9c     Game.obj
 0002:00003aa4       ??_C@_05MDNFEEFI@MAxe4@    004c8aa4     Game.obj
 0002:00003aac       ??_C@_05NKMOHFBJ@MAxe5@    004c8aac     Game.obj
 0002:00003ab4       ??_C@_09FBPDLPGN@MPickAxe1@ 004c8ab4     Game.obj
 0002:00003ac0       ??_C@_05PBODCGNK@MAxe6@    004c8ac0     Game.obj
 0002:00003ac8       ??_C@_04DMCNFIAJ@Mhoe@     004c8ac8     Game.obj
 0002:00003ad0       ??_C@_0M@NJGFBGEH@MKlonessAxe@ 004c8ad0     Game.obj
 0002:00003adc       ??_C@_0M@DCPBNFBE@MLightBlade@ 004c8adc     Game.obj
 0002:00003ae8       ??_C@_07GHPCJONG@MHammer@  004c8ae8     Game.obj
 0002:00003af0       ??_C@_08BCCEKDON@MBHammer@ 004c8af0     Game.obj
 0002:00003afc       ??_C@_0L@IFIKJGDL@MBabHammer@ 004c8afc     Game.obj
 0002:00003b08       ??_C@_0O@EPMDIKOJ@MBShadowSword@ 004c8b08     Game.obj
 0002:00003b18       ??_C@_0N@HNNKKHI@MBerserkWand@ 004c8b18     Game.obj
 0002:00003b28       ??_C@_07FFGODEMJ@Mstaff1@  004c8b28     Game.obj
 0002:00003b30       ??_C@_07HOEDGHAK@Mstaff2@  004c8b30     Game.obj
 0002:00003b38       ??_C@_07KIOFGPNH@MStaff3@  004c8b38     Game.obj
 0002:00003b40       ??_C@_0N@NLKELJOC@MReMagicWand@ 004c8b40     Game.obj
 0002:00003b50       ??_C@_0N@CHBEIKFA@MKlonessWand@ 004c8b50     Game.obj
 0002:00003b60       ??_C@_0L@EJBELHBA@MDirectBow@ 004c8b60     Game.obj
 0002:00003b6c       ??_C@_08MCCHGKDA@MFireBow@ 004c8b6c     Game.obj
 0002:00003b78       ??_C@_03BOPDMICF@Mbo@      004c8b78     Game.obj
 0002:00003b7c       ??_C@_0BA@GDMHNHEG@sprites?2Mbo?4pak@ 004c8b7c     Game.obj
 0002:00003b8c       ??_C@_0BA@LPGLHAIE@sprites?2Msh?4pak@ 004c8b8c     Game.obj
 0002:00003b9c       ??_C@_03EMFGJHKF@Msh@      004c8b9c     Game.obj
 0002:00003ba0       ??_C@_09DPGKNKHP@Mmantle01@ 004c8ba0     Game.obj
 0002:00003bac       ??_C@_09BEEHIJLM@Mmantle02@ 004c8bac     Game.obj
 0002:00003bb8       ??_C@_09NFMLIPN@Mmantle03@ 004c8bb8     Game.obj
 0002:00003bc4       ??_C@_09ECBNCODK@Mmantle04@ 004c8bc4     Game.obj
 0002:00003bd0       ??_C@_09FLAGBPHL@Mmantle05@ 004c8bd0     Game.obj
 0002:00003bdc       ??_C@_09HACLEMLI@Mmantle06@ 004c8bdc     Game.obj
 0002:00003be8       ??_C@_06CDEFDHO@MHelm1@    004c8be8     Game.obj
 0002:00003bf0       ??_C@_06CJBJAALN@MHelm2@   004c8bf0     Game.obj
 0002:00003bf8       ??_C@_06DAACDBPM@MHelm3@   004c8bf8     Game.obj
 0002:00003c00       ??_C@_06HPEDKHDL@MHelm4@   004c8c00     Game.obj
 0002:00003c08       ??_C@_06KKCBGBCE@MHCap1@   004c8c08     Game.obj
 0002:00003c10       ??_C@_06IBAMDCOH@MHCap2@   004c8c10     Game.obj
 0002:00003c18       ??_C@_07BKNKKLPC@MHHelm1@  004c8c18     Game.obj
 0002:00003c20       ??_C@_07DBPHPIDB@MHHelm2@  004c8c20     Game.obj
 0002:00003c28       ??_C@_07MGGNIDLG@NMHelm1@  004c8c28     Game.obj
 0002:00003c30       ??_C@_07ONEANAHF@NMHelm2@  004c8c30     Game.obj
 0002:00003c38       ??_C@_07PEFLOBDE@NMHelm3@  004c8c38     Game.obj
 0002:00003c40       ??_C@_07LLBKHHPD@NMHelm4@  004c8c40     Game.obj
 0002:00003c48       ??_C@_0BA@BHOMIFBK@sprites?2Wpt?4pak@ 004c8c48     Game.obj
 0002:00003c58       ??_C@_03JHMDMDFK@Wpt@      004c8c58     Game.obj
 0002:00003c5c       ??_C@_0BA@JFIELEKO@sprites?2Whr?4pak@ 004c8c5c     Game.obj
 0002:00003c6c       ??_C@_03NDKMJGBE@Whr@      004c8c6c     Game.obj
 0002:00003c70       ??_C@_08LPBGDAJG@WBodice1@ 004c8c70     Game.obj
 0002:00003c7c       ??_C@_08JEDLGDFF@WBodice2@ 004c8c7c     Game.obj
 0002:00003c88       ??_C@_07JGENBHJF@WLArmor@  004c8c88     Game.obj
 0002:00003c90       ??_C@_06KAJKFHOA@WCMail@   004c8c90     Game.obj
 0002:00003c98       ??_C@_06KDEMFFHL@WSMail@   004c8c98     Game.obj
 0002:00003ca0       ??_C@_06CFNICHNF@WPMail@   004c8ca0     Game.obj
 0002:00003ca8       ??_C@_06MHKLIPCJ@WRobe1@   004c8ca8     Game.obj
 0002:00003cb0       ??_C@_06FOEOMJEG@WSanta@   004c8cb0     Game.obj
 0002:00003cb8       ??_C@_07PBJAJJMG@WHRobe1@  004c8cb8     Game.obj
 0002:00003cc0       ??_C@_07NKLNMKAF@WHRobe2@  004c8cc0     Game.obj
 0002:00003cc8       ??_C@_08ECDNDB@WHPMail1@   004c8cc8     Game.obj
 0002:00003cd4       ??_C@_08CLGPGOPC@WHPMail2@ 004c8cd4     Game.obj
 0002:00003ce0       ??_C@_08DNJOGJMC@WChemiss@ 004c8ce0     Game.obj
 0002:00003cec       ??_C@_06PNLBAJCI@WShirt@   004c8cec     Game.obj
 0002:00003cf4       ??_C@_08LNOFOINL@WHauberk@ 004c8cf4     Game.obj
 0002:00003d00       ??_C@_0L@NIMMCCFO@WHHauberk1@ 004c8d00     Game.obj
 0002:00003d0c       ??_C@_0L@PDOBHBJN@WHHauberk2@ 004c8d0c     Game.obj
 0002:00003d18       ??_C@_06LKBBHDPI@WSkirt@   004c8d18     Game.obj
 0002:00003d20       ??_C@_08EHFBDECN@WTrouser@ 004c8d20     Game.obj
 0002:00003d2c       ??_C@_09GKGDFIGE@WHTrouser@ 004c8d2c     Game.obj
 0002:00003d38       ??_C@_0M@JJONADAK@WHLeggings1@ 004c8d38     Game.obj
 0002:00003d44       ??_C@_0M@LCMAFAMJ@WHLeggings2@ 004c8d44     Game.obj
 0002:00003d50       ??_C@_07HLDAPBLM@WCHoses@  004c8d50     Game.obj
 0002:00003d58       ??_C@_09LKKBHLGB@WLeggings@ 004c8d58     Game.obj
 0002:00003d64       ??_C@_06IOPCHFMG@WShoes@   004c8d64     Game.obj
 0002:00003d6c       ??_C@_07CLMIIDFD@WLBoots@  004c8d6c     Game.obj
 0002:00003d74       ??_C@_0BA@KAJAONCJ@sprites?2Wsw?4pak@ 004c8d74     Game.obj
 0002:00003d84       ??_C@_03LOKICOMA@Wsw@      004c8d84     Game.obj
 0002:00003d88       ??_C@_04HMDMJJGA@Wswx@     004c8d88     Game.obj
 0002:00003d90       ??_C@_04HGKKDOOP@Wsw2@     004c8d90     Game.obj
 0002:00003d98       ??_C@_04GPLBAPKO@Wsw3@     004c8d98     Game.obj
 0002:00003da0       ??_C@_0O@IPGABJNA@WStormBringer@ 004c8da0     Game.obj
 0002:00003db0       ??_C@_09PPBCKIOI@WDarkExec@ 004c8db0     Game.obj
 0002:00003dbc       ??_C@_0O@DEKLHLKE@WKlonessBlade@ 004c8dbc     Game.obj
 0002:00003dcc       ??_C@_0P@OPGCDHHE@WKlonessAstock@ 004c8dcc     Game.obj
 0002:00003ddc       ??_C@_0M@KAPMFNHD@WDebastator@ 004c8ddc     Game.obj
 0002:00003de8       ??_C@_05BMOPJBOA@WAxe1@    004c8de8     Game.obj
 0002:00003df0       ??_C@_05DHMCMCCD@WAxe2@    004c8df0     Game.obj
 0002:00003df8       ??_C@_05CONJPDGC@WAxe3@    004c8df8     Game.obj
 0002:00003e00       ??_C@_05GBJIGFKF@WAxe4@    004c8e00     Game.obj
 0002:00003e08       ??_C@_05HIIDFEOE@WAxe5@    004c8e08     Game.obj
 0002:00003e10       ??_C@_09ODIOCMOP@WpickAxe1@ 004c8e10     Game.obj
 0002:00003e1c       ??_C@_05FDKOAHCH@WAxe6@    004c8e1c     Game.obj
 0002:00003e24       ??_C@_04BGHNNHCK@Whoe@     004c8e24     Game.obj
 0002:00003e2c       ??_C@_0M@DPEKBDNK@WKlonessAxe@ 004c8e2c     Game.obj
 0002:00003e38       ??_C@_0M@NENONAIJ@WLightBlade@ 004c8e38     Game.obj
 0002:00003e44       ??_C@_07IKIJLDDF@WHammer@  004c8e44     Game.obj
 0002:00003e4c       ??_C@_08CLMKGLAC@WBHammer@ 004c8e4c     Game.obj
 0002:00003e58       ??_C@_0L@MJNDAKHE@WBabHammer@ 004c8e58     Game.obj
 0002:00003e64       ??_C@_0O@PLEGGMBO@WBShadowSword@ 004c8e64     Game.obj
 0002:00003e74       ??_C@_0N@IJIFGKIE@WBerserkWand@ 004c8e74     Game.obj
 0002:00003e84       ??_C@_07LIBFBJCK@Wstaff1@  004c8e84     Game.obj
 0002:00003e8c       ??_C@_07JDDIEKOJ@Wstaff2@  004c8e8c     Game.obj
 0002:00003e94       ??_C@_07EFJOECDE@WStaff3@  004c8e94     Game.obj
 0002:00003e9c       ??_C@_0N@KJEMEKKM@WKlonessWand@ 004c8e9c     Game.obj
 0002:00003eac       ??_C@_0N@FFPMHJBO@WReMagicWand@ 004c8eac     Game.obj
 0002:00003ebc       ??_C@_0L@FENCLFP@WDirectBow@ 004c8ebc     Game.obj
 0002:00003ec8       ??_C@_08PLMJKCNP@WFireBow@ 004c8ec8     Game.obj
 0002:00003ed4       ??_C@_09POGMLFO@Wmantle01@ 004c8ed4     Game.obj
 0002:00003ee0       ??_C@_09CEMLJIJN@Wmantle02@ 004c8ee0     Game.obj
 0002:00003eec       ??_C@_09DNNAKJNM@Wmantle03@ 004c8eec     Game.obj
 0002:00003ef8       ??_C@_09HCJBDPBL@Wmantle04@ 004c8ef8     Game.obj
 0002:00003f04       ??_C@_09GLIKAOFK@Wmantle05@ 004c8f04     Game.obj
 0002:00003f10       ??_C@_09EAKHFNJJ@Wmantle06@ 004c8f10     Game.obj
 0002:00003f1c       ??_C@_06MBJKJAPO@WHelm1@   004c8f1c     Game.obj
 0002:00003f24       ??_C@_06LMONGELL@WHelm4@   004c8f24     Game.obj
 0002:00003f2c       ??_C@_07PHKBIGBB@WHHelm1@  004c8f2c     Game.obj
 0002:00003f34       ??_C@_07NMIMNFNC@WHHelm2@  004c8f34     Game.obj
 0002:00003f3c       ??_C@_06GJIPKCKE@WHCap1@   004c8f3c     Game.obj
 0002:00003f44       ??_C@_06ECKCPBGH@WHCap2@   004c8f44     Game.obj
 0002:00003f4c       ??_C@_07FMDEADG@NWHelm1@   004c8f4c     Game.obj
 0002:00003f54       ??_C@_07COOOBDPF@NWHelm2@  004c8f54     Game.obj
 0002:00003f5c       ??_C@_07DHPFCCLE@NWHelm3@  004c8f5c     Game.obj
 0002:00003f64       ??_C@_07HILELEHD@NWHelm4@  004c8f64     Game.obj
 0002:00003f6c       ??_C@_03CBFHHPNO@Wbo@      004c8f6c     Game.obj
 0002:00003f70       ??_C@_0BA@IOLMPKKF@sprites?2Wbo?4pak@ 004c8f70     Game.obj
 0002:00003f80       ??_C@_0BA@FCBAFNGH@sprites?2Wsh?4pak@ 004c8f80     Game.obj
 0002:00003f90       ??_C@_03HDPCCAFO@Wsh@      004c8f90     Game.obj
 0002:00003f94       ??_C@_06HOPIODND@effect@   004c8f94     Game.obj
 0002:00003f9c       ??_C@_07PCNECPPM@effect2@  004c8f9c     Game.obj
 0002:00003fa4       ??_C@_07OLMPBOLN@effect3@  004c8fa4     Game.obj
 0002:00003fac       ??_C@_07KEIOIIHK@effect4@  004c8fac     Game.obj
 0002:00003fb4       ??_C@_0BE@EDALPDAP@sprites?2effect5?4pak@ 004c8fb4     Game.obj
 0002:00003fc8       ??_C@_07LNJFLJDL@effect5@  004c8fc8     Game.obj
 0002:00003fd0       ??_C@_0L@CJAINMDN@CruEffect1@ 004c8fd0     Game.obj
 0002:00003fdc       ??_C@_07JGLIOKPI@effect6@  004c8fdc     Game.obj
 0002:00003fe4       ??_C@_07IPKDNLLJ@effect7@  004c8fe4     Game.obj
 0002:00003fec       ??_C@_07IDLMHHG@effect8@   004c8fec     Game.obj
 0002:00003ff4       ??_C@_07BBCAPGDH@effect9@  004c8ff4     Game.obj
 0002:00003ffc       ??_C@_08GJPJOCLC@effect10@ 004c8ffc     Game.obj
 0002:00004008       ??_C@_08HAOCNDPD@effect11@ 004c9008     Game.obj
 0002:00004014       ??_C@_09CANGGLEA@effect11s@ 004c9014     Game.obj
 0002:00004020       ??_C@_09LHAOMJKB@yseffect2@ 004c9020     Game.obj
 0002:0000402c       ??_C@_08FLMPIADA@effect12@ 004c902c     Game.obj
 0002:00004038       ??_C@_09KOBFPIOA@yseffect3@ 004c9038     Game.obj
 0002:00004044       ??_C@_09OBFEGOCH@yseffect4@ 004c9044     Game.obj
 0002:00004050       ??_C@_0P@PLHCIGIO@sounds?2C?$CFd?4wav@ 004c9050     Game.obj
 0002:00004060       ??_C@_0P@OOPIJELM@sounds?2M?$CFd?4wav@ 004c9060     Game.obj
 0002:00004070       ??_C@_0P@DNBNIPAJ@sounds?2E?$CFd?4wav@ 004c9070     Game.obj
 0002:00004080       ??_C@_04OKGDLNCL@NONE@     004c9080     Game.obj
 0002:00004088       ??_C@_0BF@ODHGDLIP@GuildAdmissionTicket@ 004c9088     Game.obj
 0002:000040a0       ??_C@_0BF@GKCLBHOB@GuildSecessionTicket@ 004c90a0     Game.obj
 0002:000040b8       ??_C@_07BKAGGKPB@aresden@  004c90b8     Game.obj
 0002:000040c0       ??_C@_06KOFEFIMM@elvine@   004c90c0     Game.obj
 0002:000040c8       ??_C@_09IJCPMALC@elvhunter@ 004c90c8     Game.obj
 0002:000040d4       ??_C@_0L@GAKGEKDG@contents?$CFd@ 004c90d4     Game.obj
 0002:000040e0       ??_C@_08ODCIAOPM@contents@ 004c90e0     Game.obj
 0002:000040ec       ??_C@_01KICIPPFI@?2@       004c90ec     Game.obj
 0002:000040f0       ??_C@_04LCMACLFG@?4txt@    004c90f0     Game.obj
 0002:000040f8       ??_C@_02BMJICGCB@rt@       004c90f8     Game.obj
 0002:000040fc       ??_C@_05CIMCKGKI@?$DN?5?0?7?6@ 004c90fc     Game.obj
 0002:00004104       ??_C@_0N@BDLOPAIL@magiccfg?4txt@ 004c9104     Game.obj
 0002:00004114       ??_C@_0BF@CGICOALB@CONTENTS?2badword?4txt@ 004c9114     Game.obj
 0002:0000412c       ??_C@_0BD@OHOJDBDI@SPRITES?2TREES1?4PAK@ 004c912c     Game.obj
 0002:00004140       ??_C@_0N@GPPANGOG@Skillcfg?4txt@ 004c9140     Game.obj
 0002:00004150       ??_C@_02MPPBADGA@3A@       004c9150     Game.obj
 0002:00004154       ??_C@_02BJDKBAPF@7H@       004c9154     Game.obj
 0002:00004158       ??_C@_02CBCBLE@7I@         004c9158     Game.obj
 0002:0000415c       ??_C@_02DCBHEDDG@7K@       004c915c     Game.obj
 0002:00004160       ??_C@_02HNFGNFPB@7L@       004c9160     Game.obj
 0002:00004164       ??_C@_02OCBHJCEI@6B@       004c9164     Game.obj
 0002:00004168       ??_C@_02PLAMKDAJ@6C@       004c9168     Game.obj
 0002:0000416c       ??_C@_02ODEKKOPI@11@       004c916c     Game.obj
 0002:00004170       ??_C@_02MIGHPNDL@12@       004c9170     Game.obj
 0002:00004174       ??_C@_02JJDEPCGB@54@       004c9174     Game.obj
 0002:00004178       ??_C@_02IGOEABML@05@       004c9178     Game.obj
 0002:0000417c       ??_C@_02KNMJFCAI@06@       004c917c     Game.obj
 0002:00004180       ??_C@_0BI@NBNDOOHG@Not?5existing?5character?$CB@ 004c9180     Game.obj
 0002:00004198       ??_C@_02LDNLMLJF@47@       004c9198     Game.obj
 0002:0000419c       ??_C@_02DAMOKLOI@28@       004c919c     Game.obj
 0002:000041a0       ??_C@_02CJNFJKKJ@29@       004c91a0     Game.obj
 0002:000041a4       ??_C@_02KLJNMGGE@3E@       004c91a4     Game.obj
 0002:000041a8       ??_C@_02IALAJFKH@3F@       004c91a8     Game.obj
 0002:000041ac       ??_C@_02NCPIBIBE@33@       004c91ac     Game.obj
 0002:000041b0       ??_C@_02LCIGPHCF@3D@       004c91b0     Game.obj
 0002:000041b4       ??_C@_02JJKLKEOG@3G@       004c91b4     Game.obj
 0002:000041b8       ??_C@_02GGMHMIPK@3Z@       004c91b8     Game.obj
 0002:000041bc       ??_C@_02FEPBKKHI@3X@       004c91bc     Game.obj
 0002:000041c0       ??_C@_02EOGOEPFH@1Y@       004c91c0     Game.obj
 0002:000041c4       ??_C@_02ONAKDLNE@8U@       004c91c4     Game.obj
 0002:000041c8       ??_C@_02MHLGMGLE@82@       004c91c8     Game.obj
 0002:000041cc       ??_C@_02OMJLJFHH@81@       004c91cc     Game.obj
 0002:000041d0       ??_C@_02MGCHGIBH@8V@       004c91d0     Game.obj
 0002:000041d4       ??_C@_02NPDMFJFG@8W@       004c91d4     Game.obj
 0002:000041d8       ??_C@_02GFIPIOIH@6M@       004c91d8     Game.obj
 0002:000041dc       ??_C@_02FJPBPDKM@1a@       004c91dc     Game.obj
 0002:000041e0       ??_C@_02HCNMKAGP@1b@       004c91e0     Game.obj
 0002:000041e4       ??_C@_0L@CLHOAHDA@Apocalypse@ 004c91e4     Game.obj
 0002:000041f0       ??_C@_0N@DIOAGMHO@192?4168?40?415@ 004c91f0     Game.obj
 0002:00004200       ??_C@_0BD@HBJHLJMO@log?9server?9address@ 004c9200     Game.obj
 0002:00004214       ??_C@_0BA@FLPOJKBO@log?9server?9port@ 004c9214     Game.obj
 0002:00004224       ??_C@_0BB@GNHPDMNG@game?9server?9port@ 004c9224     Game.obj
 0002:00004238       ??_C@_06DJHOIPC@?$CFs?3?5?$CFs@ 004c9238     Game.obj
 0002:00004240       ??_C@_05CCMOGDN@?$CFs?3?$CFs@ 004c9240     Game.obj
 0002:00004248       ??_C@_0BE@NEEFOPPH@AngelicPandent?$CISTR?$CJ@ 004c9248     Game.obj
 0002:0000425c       ??_C@_0BE@ODLHBBEJ@AngelicPandent?$CIDEX?$CJ@ 004c925c     Game.obj
 0002:00004270       ??_C@_0BE@MFDMKLJN@AngelicPandent?$CIINT?$CJ@ 004c9270     Game.obj
 0002:00004284       ??_C@_0BE@HGLPAACC@AngelicPandent?$CIMAG?$CJ@ 004c9284     Game.obj
 0002:00004298       ??_C@_0BD@OGNNGCID@?$CI?9?$CJ?5?3?5Minimize?5map@ 004c9298     Game.obj
 0002:000042ac       ??_C@_0BD@KIOOKGHA@?$CI?$CL?$CJ?5?3?5Maximize?5map@ 004c92ac     Game.obj
 0002:000042c0       ??_C@_06PHGHDMGF@?$CFd?0?5?$CFd@ 004c92c0     Game.obj
 0002:000042c8       ??_C@_09FKBNODAG@Magicshop@ 004c92c8     Game.obj
 0002:000042d4       ??_C@_09KJGMEIIG@GuildHall@ 004c92d4     Game.obj
 0002:000042e0       ??_C@_06OEGGFBCM@Church@   004c92e0     Game.obj
 0002:000042e8       ??_C@_08KHBKHNDH@Cityhall@ 004c92e8     Game.obj
 0002:000042f4       ??_C@_09NGEHBOBO@Warehouse@ 004c92f4     Game.obj
 0002:00004300       ??_C@_04NEEIJHPO@Shop@     004c9300     Game.obj
 0002:00004308       ??_C@_0L@BOAAHAGM@BlackSmith@ 004c9308     Game.obj
 0002:00004314       ??_C@_0BO@KJBMFEBC@The?5entrance?5to?5the?5Hunt?9Zone@ 004c9314     Game.obj
 0002:00004334       ??_C@_0CA@KBPGLDEN@The?5entrance?5to?5the?5Middle?5Land@ 004c9334     Game.obj
 0002:00004354       ??_C@_0BJ@JIFBJGDP@The?5entrance?5to?5the?5Farm@ 004c9354     Game.obj
 0002:00004370       ??_C@_0N@IAODDMDB@Command?5Hall@ 004c9370     Game.obj
 0002:00004380       ??_C@_0CK@PIIGJOIL@Stone?5of?5Xelima?5or?5Merien?5is?5no@ 004c9380     Game.obj
 0002:000043ac       ??_C@_01EEMJAFIK@?6@       004c93ac     Game.obj
 0002:000043b0       ??_C@_02NCGPMEBG@?$DL?6@   004c93b0     Game.obj
 0002:000043b4       ??_C@_0M@NPEGCAGO@GameMsgList@ 004c93b4     Game.obj
 0002:000043c0       ??_C@_0L@PPELDOKE@middleland@ 004c93c0     Game.obj
 0002:000043cc       ??_C@_09KHPMCNBP@Level?5Up?$CB@ 004c93cc     Game.obj
 0002:000043d8       ??_C@_07EKAIBOKF@Restart@  004c93d8     Game.obj
 0002:000043e0       ??_C@_0M@FMHBAKHI@Safe?5Attack@ 004c93e0     Game.obj
 0002:000043ec       ??_C@_06FDAMAAOH@Attack@   004c93ec     Game.obj
 0002:000043f4       ??_C@_05MCOANEGL@Peace@    004c93f4     Game.obj
 0002:000043fc       ??_C@_0N@PCFDMJFJ@Rest?5Exp?3?5?$CFd@ 004c93fc     Game.obj
 0002:0000440c       ??_C@_0L@EAAKJCDE@?$CFs?5?$CI?$CFd?0?$CFd?$CJ@ 004c940c     Game.obj
 0002:00004418       ??_C@_09EDIHJNKH@Character@ 004c9418     Game.obj
 0002:00004424       ??_C@_09KNKLKLHB@Inventory@ 004c9424     Game.obj
 0002:00004430       ??_C@_06KHFIKEFP@Magics@   004c9430     Game.obj
 0002:00004438       ??_C@_06LCJAGJME@Skills@   004c9438     Game.obj
 0002:00004440       ??_C@_08DJKBNOOH@Chat?5Log@ 004c9440     Game.obj
 0002:0000444c       ??_C@_0M@DDMNAHME@System?5Menu@ 004c944c     Game.obj
 0002:00004458       ??_C@_0O@HJLDKMOL@Hunger?5?$CI?$CFd?$CF?$CF?$CJ@ 004c9458     Game.obj
 0002:00004468       ??_C@_08HOOBKJKN@Poisoned@ 004c9468     Game.obj
 0002:00004474       ??_C@_0BN@GHLLILNA@?5?$CK?$CK?5This?5is?5a?5battle?5area?5?$CK?$CK@ 004c9474     Game.obj
 0002:00004494       ??_C@_0CD@MNMHBMAP@This?5is?5a?5dangerous?5area?5where?5@ 004c9494     Game.obj
 0002:000044b8       ??_C@_0CG@FFGHFOFA@cannot?5protected?5from?5others?8?5a@ 004c94b8     Game.obj
 0002:000044e0       ??_C@_0CE@LMKGLALN@To?5play?5the?5game?5in?5safe?0?5go?5to@ 004c94e0     Game.obj
 0002:00004504       ??_C@_0CH@DNNHPMEF@?5cityhall?5and?5change?5to?5civilia@ 004c9504     Game.obj
 0002:0000452c       ??_C@_0CF@CCFILDDO@Are?5you?5sure?5to?5drop?5away?5this?5@ 004c952c     Game.obj
 0002:00004554       ??_C@_0BO@KBIDIEPG@No?5asking?5for?5a?5same?5item?4?5ON@ 004c9554     Game.obj
 0002:00004574       ??_C@_0BP@PMEPGNJG@No?5asking?5for?5a?5same?5item?4?5OFF@ 004c9574     Game.obj
 0002:00004594       ??_C@_04MDFHGMOB@Next@     004c9594     Game.obj
 0002:0000459c       ??_C@_07LPDBDIGK@Casting@  004c959c     Game.obj
 0002:000045a4       ??_C@_0BG@HJJJLPKP@KURURURURURURURURU?$CB?$CB?$CB@ 004c95a4     Game.obj
 0002:000045bc       ??_C@_0O@CFGNKHPB@?$CFs?5XY?$CI?$CFd?0?5?$CFd?$CJ@ 004c95bc     Game.obj
 0002:000045cc       ??_C@_0P@HOFNBKDN@?$CL?$CFdExp?5Points?$CB@ 004c95cc     Game.obj
 0002:000045dc       ??_C@_0BF@MNKIADGO@Hero?8s?5Cape?5?$CIEK?5300?$CJ@ 004c95dc     Game.obj
 0002:000045f4       ??_C@_0CC@KFKLFDCE@Hero?8s?5Helm?5?$CIEK?5150?5?9?5Contrib?52@ 004c95f4     Game.obj
 0002:00004618       ??_C@_0CB@ELJJLALA@Hero?8s?5Cap?5?$CIEK?5100?5?9?5Contrib?520@ 004c9618     Game.obj
 0002:0000463c       ??_C@_0CD@EAIGCILK@Hero?8s?5Armor?5?$CIEK?5300?5?9?5Contrib?5@ 004c963c     Game.obj
 0002:00004660       ??_C@_0CC@CPNDIMOL@Hero?8s?5Robe?5?$CIEK?5200?5?9?5Contrib?52@ 004c9660     Game.obj
 0002:00004684       ??_C@_0CF@LOBKAAFJ@Hero?8s?5Hauberk?5?$CIEK?5100?5?9?5Contri@ 004c9684     Game.obj
 0002:000046ac       ??_C@_0CG@MKANICCC@Hero?8s?5Leggings?5?$CIEK?5150?5?9?5Contr@ 004c96ac     Game.obj
 0002:000046d8       ??_C@_0EN@GNCNAJDH@To?5manufacture?5item?0?5skill?5of?5m@ 004c96d8     Game.obj
 0002:00004728       ??_C@_0DH@HABOMLGC@The?5manufacturing?5manual?5is?5pur@ 004c9728     Game.obj
 0002:00004760       ??_C@_0CF@KBKBOMMD@You?5are?5already?5using?5another?5s@ 004c9760     Game.obj
 0002:00004788       ??_C@_0CM@OHJFCEID@Your?5hands?5should?5be?5free?5to?5us@ 004c9788     Game.obj
 0002:000047b4       ??_C@_0BP@KKNPNEIK@Using?5a?5manufacturing?5skill?4?4?4@ 004c97b4     Game.obj
 0002:000047d8       ??_C@_0EM@BFJMFBBJ@You?5need?5Smiths?5Anvil?5to?5manufa@ 004c97d8     Game.obj
 0002:00004824       ??_C@_04PABHPHAJ@Gold@     004c9824     Game.obj
 0002:0000482c       ??_C@_0P@GNCPONOH@?$CFd?5?$CFd?5?$CFd?5?$CFd?5?$CFd@ 004c982c     Game.obj
 0002:0000483c       ??_C@_08LBIJNCCE@BItemcfg@ 004c983c     Game.obj
 0002:00004848       ??_C@_02BKFDOEMK@wt@       004c9848     Game.obj
 0002:0000484c       ??_C@_0BK@GBFDBPD@contents?2contents1000?4txt@ 004c984c     Game.obj
 0002:00004868       ??_C@_0BM@DHJNKCOC@Press?5F1?5for?5news?5and?5help?4@ 004c9868     Game.obj
 0002:00004884       ??_C@_02NGOCLIKE@?$DN?6@   004c9884     Game.obj
 0002:00004888       ??_C@_0BG@BFGCGNFC@contents?2ItemName?4cfg@ 004c9888     Game.obj
 0002:000048a0       ??_C@_05KABNCBHK@?$CFd?0?$CFd@ 004c98a0     Game.obj
 0002:000048a8       ??_C@_0BL@FMGCLKHI@?$CF02d?3?$CF02d?5?9?5?$CF02d?3?$CF02d?3?$CF02d@ 004c98a8     Game.obj
 0002:000048c4       ??_C@_0BB@NLJHEMAP@?5Client?5coded?5by@ 004c98c4     Game.obj
 0002:000048d8       ??_C@_0BD@CIGLCJAJ@Diuuude?5?$CG?5Snoopy81@ 004c98d8     Game.obj
 0002:000048ec       ??_C@_0BC@KJJGLCLO@Apocalypse?5Server@ 004c98ec     Game.obj
 0002:00004900       ??_C@_0DB@JJDPDBCM@Save?2HelShot?$CF04d?$CF02d?$CF02d_?$CF02d?$CF0@ 004c9900     Game.obj
 0002:00004934       ??_C@_04IAPJGLOD@SAVE@     004c9934     Game.obj
 0002:0000493c       ??_C@_02JDPG@rb@           004c993c     Game.obj
 0002:00004940       ??_C@_0BI@DLNLALFG@Screenshot?5saved?5to?5?$CFs?4@ 004c9940     Game.obj
 0002:00004958       ??_C@_0CE@DCFOBHOD@Unable?5to?5save?5anymore?5screensh@ 004c9958     Game.obj
 0002:0000497c       ??_C@_0BP@LGNPBLGA@Connecting?5to?5Server?4?4?4?5?$CF3dSec@ 004c997c     Game.obj
 0002:0000499c       ??_C@_0CF@PPCLPHCF@Press?5ESC?5key?5during?5long?5time?5@ 004c999c     Game.obj
 0002:000049c4       ??_C@_0CI@OKGNBJHM@connection?5and?5return?5to?5the?5ma@ 004c99c4     Game.obj
 0002:000049ec       ??_C@_0CH@OFDGADPA@?5?5Connecting?5to?5server?4?5Please?5@ 004c99ec     Game.obj
 0002:00004a14       ??_C@_0BO@GIPBMOIL@Waiting?5for?5response?4?4?4?5?$CFdsec@ 004c9a14     Game.obj
 0002:00004a34       ??_C@_0BB@EGGLBDI@Connection?5Lost?$CB@ 004c9a34     Game.obj
 0002:00004a48       ??_C@_0BI@NKECBGAN@Enter?5a?5character?5name?4@ 004c9a48     Game.obj
 0002:00004a60       ??_C@_0P@IJHDNPNF@Character?5Name@ 004c9a60     Game.obj
 0002:00004a70       ??_C@_0BL@BKICHHFF@Select?5character?8s?5gender?4@ 004c9a70     Game.obj
 0002:00004a8c       ??_C@_06HKFFEOFI@Gender@   004c9a8c     Game.obj
 0002:00004a94       ??_C@_0L@BLODPBNH@Skin?5Color@ 004c9a94     Game.obj
 0002:00004aa0       ??_C@_0L@NOOGDPJP@Hair?5Style@ 004c9aa0     Game.obj
 0002:00004aac       ??_C@_0L@KKACAGPF@Hair?5Color@ 004c9aac     Game.obj
 0002:00004ab8       ??_C@_0BA@HHAOHPAE@Underwear?5Color@ 004c9ab8     Game.obj
 0002:00004ac8       ??_C@_08CHNCHBNG@Strength@ 004c9ac8     Game.obj
 0002:00004ad4       ??_C@_08LLHMGAAM@Vitality@ 004c9ad4     Game.obj
 0002:00004ae0       ??_C@_09MKECBNFJ@Dexterity@ 004c9ae0     Game.obj
 0002:00004aec       ??_C@_0N@JMDJBAGL@Intelligence@ 004c9aec     Game.obj
 0002:00004afc       ??_C@_08EHINJMNN@Charisma@ 004c9afc     Game.obj
 0002:00004b08       ??_C@_09NOKHELOO@Hit?5Point@ 004c9b08     Game.obj
 0002:00004b14       ??_C@_0L@KIAELMAA@Mana?5Point@ 004c9b14     Game.obj
 0002:00004b20       ??_C@_0P@PHCMIMOC@Staminar?5Point@ 004c9b20     Game.obj
 0002:00004b30       ??_C@_02MKCBEDGC@22@       004c9b30     Game.obj
 0002:00004b34       ??_C@_0BJ@NBNFMAEO@Select?5character?8s?5skin?4@ 004c9b34     Game.obj
 0002:00004b50       ??_C@_0BO@CBJGPBML@Select?5character?8s?5hairstyle?4@ 004c9b50     Game.obj
 0002:00004b70       ??_C@_0BP@KBNEAELG@Select?5character?8s?5hair?5color?4@ 004c9b70     Game.obj
 0002:00004b90       ??_C@_0BP@LEOILOJF@Select?5the?5color?5of?5underwear?4@ 004c9b90     Game.obj
 0002:00004bb0       ??_C@_0CD@ILDKMNNO@Determine?5your?5character?8s?5init@ 004c9bb0     Game.obj
 0002:00004bd4       ??_C@_0BN@PKKEAIAE@strength?5assigned?4?5As?5STR?5is@ 004c9bd4     Game.obj
 0002:00004bf4       ??_C@_0BP@CHFNMJNF@increased?0?5character?8s?5maximum@ 004c9bf4     Game.obj
 0002:00004c14       ??_C@_0CC@PDBKMPMC@HP?5and?5maximum?5stamina?5increase@ 004c9c14     Game.obj
 0002:00004c38       ??_C@_0CL@JJEKCDDE@You?5can?5equip?5heavier?5weapons?5a@ 004c9c38     Game.obj
 0002:00004c64       ??_C@_0BN@GHCLOFMJ@vitality?5assigned?4?5As?5VIT?5is@ 004c9c64     Game.obj
 0002:00004c84       ??_C@_0BP@CDMJCLEJ@increased?0?5the?5max?4?5HP?5greatly@ 004c9c84     Game.obj
 0002:00004ca4       ??_C@_0CC@MDBHLJPE@increases?5as?5the?5recovery?5amoun@ 004c9ca4     Game.obj
 0002:00004cc8       ??_C@_0CP@GBCIDBCO@Physical?5damage?5absorption?5slig@ 004c9cc8     Game.obj
 0002:00004cf8       ??_C@_0BO@CKOLDIKP@dexterity?5assigned?4?5As?5DEX?5is@ 004c9cf8     Game.obj
 0002:00004d18       ??_C@_0CG@CCBOJIM@increased?0?5evasion?5from?5physica@ 004c9d18     Game.obj
 0002:00004d40       ??_C@_0CP@PDJBEIBD@?$CIdefense?5ratio?$CJ?5and?5hit?5probabi@ 004c9d40     Game.obj
 0002:00004d70       ??_C@_0CB@LDHHIMLG@intelligence?5assigned?4?5As?5INT?5i@ 004c9d70     Game.obj
 0002:00004d94       ??_C@_0CG@JEIIDOBK@increased?0?5more?5magic?5can?5be?5le@ 004c9d94     Game.obj
 0002:00004dbc       ??_C@_0CO@KHCOGDNC@casting?5probability?5and?5maximum@ 004c9dbc     Game.obj
 0002:00004dec       ??_C@_0BK@GHLEDNEO@magic?5assigned?4?5As?5MAG?5is@ 004c9dec     Game.obj
 0002:00004e08       ??_C@_0CI@LADCIMOH@increased?0?5magical?5resistance?5i@ 004c9e08     Game.obj
 0002:00004e30       ??_C@_0CH@CAOLCBHG@as?5well?5as?5maximum?5MP?5and?5MP?5re@ 004c9e30     Game.obj
 0002:00004e58       ??_C@_0CH@KANAAEEN@charisma?5assigned?4?5If?5CHR?5is?5in@ 004c9e58     Game.obj
 0002:00004e80       ??_C@_0CE@HOLHEMGH@to?5a?5certain?5amount?0?5you?5can?5fo@ 004c9e80     Game.obj
 0002:00004ea4       ??_C@_0CJ@KMFHFII@guild?4?5Cost?5of?5item?5purchase?5is@ 004c9ea4     Game.obj
 0002:00004ed0       ??_C@_0BP@DEJJHFOD@Please?5enter?5a?5character?5name?4@ 004c9ed0     Game.obj
 0002:00004ef0       ??_C@_0CJ@NOEGCLJP@You?5need?5to?5select?5your?5charact@ 004c9ef0     Game.obj
 0002:00004f1c       ??_C@_0BP@FGICLGIH@Cannot?5use?5special?5characters?5@ 004c9f1c     Game.obj
 0002:00004f3c       ??_C@_0CB@DLAFMNMB@in?5your?5character?8s?5name?4?5Pleas@ 004c9f3c     Game.obj
 0002:00004f60       ??_C@_0BD@DEFOOMNE@type?5another?5name?4@ 004c9f60     Game.obj
 0002:00004f74       ??_C@_0CJ@CNODCGJA@The?5character?8s?5name?5is?5not?5app@ 004c9f74     Game.obj
 0002:00004fa0       ??_C@_0CA@LPGJEFOG@Please?5retry?5with?5another?5name?4@ 004c9fa0     Game.obj
 0002:00004fc0       ??_C@_0BK@DDAKFPPP@Create?5with?5the?5character@ 004c9fc0     Game.obj
 0002:00004fdc       ??_C@_0BJ@OGDGHMNF@with?5the?5above?5settings?4@ 004c9fdc     Game.obj
 0002:00004ff8       ??_C@_05IFKLLJBC@?5?5?5?5?5@ 004c9ff8     Game.obj
 0002:00005000       ??_C@_0CD@DMBNMJE@Return?5to?5the?5main?5selecting?5me@ 004ca000     Game.obj
 0002:00005024       ??_C@_0BP@NBANODCA@Sets?5stats?5for?5a?5basic?5Warrior@ 004ca024     Game.obj
 0002:00005044       ??_C@_0BM@EFLDOKHE@Sets?5stats?5for?5a?5basic?5Mage@ 004ca044     Game.obj
 0002:00005060       ??_C@_0BO@CKBDKLIG@Sets?5stats?5for?5a?5basic?5Priest@ 004ca060     Game.obj
 0002:00005080       ??_C@_08FBBNEBMA@Account?3@ 004ca080     Game.obj
 0002:0000508c       ??_C@_09LHCCNAJE@Password?3@ 004ca08c     Game.obj
 0002:00005098       ??_C@_09HIKDLKJH@?$CIconfirm?$CJ@ 004ca098     Game.obj
 0002:000050a4       ??_C@_06IOMDFADI@eMail?3@  004ca0a4     Game.obj
 0002:000050ac       ??_C@_05ICDMGBMH@Quiz?3@   004ca0ac     Game.obj
 0002:000050b4       ??_C@_07BMADPDJL@Answer?3@ 004ca0b4     Game.obj
 0002:000050bc       ??_C@_0BH@PNFKCPKK@Enter?5your?5account?5ID?4@ 004ca0bc     Game.obj
 0002:000050d4       ??_C@_0BN@CDCHIGJG@?$CI?5Only?5letters?5and?5numbers?5?$CJ@ 004ca0d4     Game.obj
 0002:000050f4       ??_C@_0BN@CFDDBIIF@Enter?5your?5account?5password?4@ 004ca0f4     Game.obj
 0002:00005114       ??_C@_0BG@HAEEALJ@Confirm?5the?5password?4@ 004ca114     Game.obj
 0002:0000512c       ??_C@_0BL@MMGGEIDG@Enter?5your?5E?9mail?5address?4@ 004ca12c     Game.obj
 0002:00005148       ??_C@_0CK@PNEGMCKI@You?5should?5enter?5a?5correct?5E?9ma@ 004ca148     Game.obj
 0002:00005174       ??_C@_0BO@JAGMJMNH@to?5confirm?5the?5account?5owner?4@ 004ca174     Game.obj
 0002:00005194       ??_C@_0CG@HGEGBHFL@Enter?5the?5secret?5question?0?5so?5y@ 004ca194     Game.obj
 0002:000051bc       ??_C@_0CH@KHLAHDIE@recover?5the?5password?5if?5you?5for@ 004ca1bc     Game.obj
 0002:000051e4       ??_C@_0BF@BOFKBKPL@Answer?5the?5question?4@ 004ca1e4     Game.obj
 0002:000051fc       ??_C@_0CD@GKLBJPOK@Create?5an?5account?5with?5your?5inp@ 004ca1fc     Game.obj
 0002:00005220       ??_C@_0CA@BAMHNKDH@Please?5insert?5the?5account?5name?4@ 004ca220     Game.obj
 0002:00005240       ??_C@_0BM@CIHMJION@Please?5insert?5the?5password?4@ 004ca240     Game.obj
 0002:0000525c       ??_C@_0BN@GFIHKGJL@Please?5confirm?5the?5password?4@ 004ca25c     Game.obj
 0002:0000527c       ??_C@_0CB@DJHMFJEL@Please?5enter?5the?5E?9Mail?5address@ 004ca27c     Game.obj
 0002:000052a0       ??_C@_0CE@DJPLPNOC@The?5account?5has?5special?5charact@ 004ca2a0     Game.obj
 0002:000052c4       ??_C@_0BN@GFNOJHCN@Please?5enter?5a?5new?5password?4@ 004ca2c4     Game.obj
 0002:000052e4       ??_C@_0CF@MJNOOHFI@The?5password?5has?5special?5charac@ 004ca2e4     Game.obj
 0002:0000530c       ??_C@_0CF@KABJDHAH@Password?5and?5pass?9confirm?5missm@ 004ca30c     Game.obj
 0002:00005334       ??_C@_0CF@OFFGBFJK@Please?5enter?5your?5password?5and?5@ 004ca334     Game.obj
 0002:0000535c       ??_C@_0BI@DCCIBMEI@confirm?5to?5be?5the?5same?4@ 004ca35c     Game.obj
 0002:00005374       ??_C@_0BH@JDBAGJDN@Please?5enter?5the?5Quiz?4@ 004ca374     Game.obj
 0002:0000538c       ??_C@_0BJ@NFOHECP@Please?5enter?5the?5Answer?4@ 004ca38c     Game.obj
 0002:000053a8       ??_C@_0CB@BNLAFFPP@The?5Quiz?5has?5special?5characters@ 004ca3a8     Game.obj
 0002:000053cc       ??_C@_0BJ@LKHMOGFF@Please?5enter?5a?5new?5Quiz?4@ 004ca3cc     Game.obj
 0002:000053e8       ??_C@_0CD@ODMCGHJ@The?5Answer?5has?5special?5characte@ 004ca3e8     Game.obj
 0002:0000540c       ??_C@_0BL@NNHNCCFN@Please?5enter?5a?5new?5Answer?4@ 004ca40c     Game.obj
 0002:00005428       ??_C@_0L@PJIPFINH@Clear?5all?4@ 004ca428     Game.obj
 0002:00005434       ??_C@_0BD@CFIGBBJO@Back?5to?5main?5menu?4@ 004ca434     Game.obj
 0002:00005448       ??_C@_05MPOCIJBL@?$CFs?9?$CFs@ 004ca448     Game.obj
 0002:00005450       ??_C@_0CO@LEPPGCCP@Cannot?5create?5account?$CB?5Password@ 004ca450     Game.obj
 0002:00005480       ??_C@_02PLJDPFIO@00@       004ca480     Game.obj
 0002:00005484       ??_C@_03LOLNDGA@WS2@       004ca484     Game.obj
 0002:00005488       ??_C@_0CE@OLHILLGH@Auto?5Attack?5Mode?5has?5been?5disab@ 004ca488     Game.obj
 0002:000054ac       ??_C@_0CD@IFMILEK@Auto?5Attack?5Mode?5has?5been?5enabl@ 004ca4ac     Game.obj
 0002:000054d0       ??_C@_0BD@EIOHOAL@Detail?5Level?5?3?5Low@ 004ca4d0     Game.obj
 0002:000054e4       ??_C@_0BG@FDACNHOC@Detail?5Level?5?3?5Medium@ 004ca4e4     Game.obj
 0002:000054fc       ??_C@_0BE@PGDPOMDF@Detail?5Level?5?3?5High@ 004ca4fc     Game.obj
 0002:00005510       ??_C@_0BL@JJJNKJB@Converted?5to?5walking?5mode?4@ 004ca510     Game.obj
 0002:0000552c       ??_C@_0BL@GEOIEKGN@Converted?5to?5running?5mode?4@ 004ca52c     Game.obj
 0002:00005548       ??_C@_09CNPGDGO@Music?5Off@ 004ca548     Game.obj
 0002:00005554       ??_C@_09BMJLBNGL@Sound?5Off@ 004ca554     Game.obj
 0002:00005560       ??_C@_08NOPICKKG@Music?5On@ 004ca560     Game.obj
 0002:0000556c       ??_C@_08JLHEEHDE@Sound?5On@ 004ca56c     Game.obj
 0002:00005578       ??_C@_06EKBBMHLP@?1to?5?$CFs@ 004ca578     Game.obj
 0002:00005580       ??_C@_04EIBOCPED@?1to?5@   004ca580     Game.obj
 0002:00005588       ??_C@_0CP@NIJPKKNJ@You?5can?5use?5after?5the?5usage?5of?5@ 004ca588     Game.obj
 0002:000055b8       ??_C@_0CJ@DPIHPNAI@You?5can?8t?5use?5a?5potion?5while?5ex@ 004ca5b8     Game.obj
 0002:000055e4       ??_C@_0BG@FEALJIDB@Logout?5count?5stopped?4@ 004ca5e4     Game.obj
 0002:000055fc       ??_C@_08NIOOCJBE@Canceled@ 004ca5fc     Game.obj
 0002:00005608       ??_C@_0CK@JCEBHOAA@No?5item?5with?5special?5ability?5is@ 004ca608     Game.obj
 0002:00005634       ??_C@_0CJ@BOCHPCFA@You?5are?5already?5using?5a?5special@ 004ca634     Game.obj
 0002:00005660       ??_C@_0ED@BPFPLKED@Ability?5that?5decreases?5enemy?8s?5@ 004ca660     Game.obj
 0002:000056a4       ??_C@_0DF@JKDJEIFP@Ability?5that?5freezes?5enemy?3?5Can@ 004ca6a4     Game.obj
 0002:000056dc       ??_C@_0DH@HHDMLHFF@Ability?5that?5paralyzes?5enemy?3?5C@ 004ca6dc     Game.obj
 0002:00005714       ??_C@_0DP@JGIKCDJI@Ability?5that?5kills?5enemy?5at?5one@ 004ca714     Game.obj
 0002:00005758       ??_C@_0EL@MBIOPJGK@Ability?5that?5earns?5same?5HP?5as?5y@ 004ca758     Game.obj
 0002:000057a4       ??_C@_0DP@DFCIKHKO@Ability?5that?5exhausts?5enemy?8s?5w@ 004ca7a4     Game.obj
 0002:000057e8       ??_C@_0EF@JLLKKEHD@Ability?5that?5protects?5from?5phys@ 004ca7e8     Game.obj
 0002:00005830       ??_C@_0ED@IAMGNPHJ@Ability?5that?5makes?5character?5un@ 004ca830     Game.obj
 0002:00005878       ??_C@_0EH@HMCNOBEC@Ability?5that?5decreases?5enemy?8s?5@ 004ca878     Game.obj
 0002:000058c0       ??_C@_0DJ@HONHBFFF@Ability?5that?5freezes?5enemy?3?5Can@ 004ca8c0     Game.obj
 0002:000058fc       ??_C@_0DL@MDOKLFM@Ability?5that?5paralyzes?5enemy?3?5C@ 004ca8fc     Game.obj
 0002:00005938       ??_C@_0ED@BHJBFGHL@Ability?5that?5kills?5enemy?5at?5one@ 004ca938     Game.obj
 0002:00005980       ??_C@_0EL@MNPMFOOP@Ability?5that?5earns?5same?5HP?5as?5y@ 004ca980     Game.obj
 0002:000059d0       ??_C@_0ED@PHADGOGD@Ability?5that?5exhausts?5enemy?8s?5w@ 004ca9d0     Game.obj
 0002:00005a18       ??_C@_0EJ@FDGCNHAJ@Ability?5that?5protects?5from?5phys@ 004caa18     Game.obj
 0002:00005a68       ??_C@_0EH@GNJEEPMK@Ability?5that?5makes?5character?5un@ 004caa68     Game.obj
 0002:00005ab0       ??_C@_0BB@GMMKNKCD@Character?5on?5Use@ 004caab0     Game.obj
 0002:00005ac4       ??_C@_0BB@PBKOPBJ@Character?5in?5Use@ 004caac4     Game.obj
 0002:00005ad8       ??_C@_0BK@NDKENAON@Account?5in?5use?4?5Would?5you@ 004caad8     Game.obj
 0002:00005af4       ??_C@_0CE@PCEBNOAH@Log?5in?5with?5the?5selected?5charac@ 004caaf4     Game.obj
 0002:00005b18       ??_C@_0CG@GPCPAJLO@You?5can?5log?5in?5by?5clicking?5the?5@ 004cab18     Game.obj
 0002:00005b40       ??_C@_0CG@DEPHFEEF@or?5pressing?5the?5enter?5after?5sel@ 004cab40     Game.obj
 0002:00005b68       ??_C@_0L@MFGKDHCN@character?4@ 004cab68     Game.obj
 0002:00005b74       ??_C@_0BG@EMHMBAIE@Make?5a?5new?5character?4@ 004cab74     Game.obj
 0002:00005b8c       ??_C@_0CH@CJMICDNH@Delete?5the?5selected?5character?4?5@ 004cab8c     Game.obj
 0002:00005bb4       ??_C@_0CA@DHKMCAGI@characters?5cannot?5be?5recovered?4@ 004cabb4     Game.obj
 0002:00005bd4       ??_C@_0BN@NLPOEHJH@Change?5the?5account?5password?4@ 004cabd4     Game.obj
 0002:00005bf4       ??_C@_0BH@HDOLDMBF@Back?5to?5the?5main?5menu?4@ 004cabf4     Game.obj
 0002:00005c0c       ??_C@_0CH@KADENNDG@There?5is?5no?5character?5in?5this?5a@ 004cac0c     Game.obj
 0002:00005c34       ??_C@_0CF@IBIHECAA@Each?5account?5can?5have?54?5charact@ 004cac34     Game.obj
 0002:00005c5c       ??_C@_0CG@NEPEOMKF@most?4?5You?5can?5make?5a?5new?5charac@ 004cac5c     Game.obj
 0002:00005c84       ??_C@_0CF@LFPDHDGG@clicking?5the?5NEW?5CHARACTER?5butt@ 004cac84     Game.obj
 0002:00005cac       ??_C@_0BF@CHBNMJNA@the?5left?5blank?5slot?4@ 004cacac     Game.obj
 0002:00005cc4       ??_C@_0CF@GPNMCPHJ@You?5can?5start?5game?5by?5clicking?5@ 004cacc4     Game.obj
 0002:00005cec       ??_C@_0CC@PDAHEJPH@button?0?5and?5make?5a?5new?5characte@ 004cacec     Game.obj
 0002:00005d10       ??_C@_0CD@OHIJPNOK@If?5you?5want?5to?5delete?5a?5charact@ 004cad10     Game.obj
 0002:00005d34       ??_C@_0CC@DHDMEKHJ@press?5the?5DELETE?5CHARACTER?5butt@ 004cad34     Game.obj
 0002:00005d58       ??_C@_0CD@GIBNLNOD@after?5you?5select?5a?5character?5wh@ 004cad58     Game.obj
 0002:00005d7c       ??_C@_0BE@POHNOKCB@you?5want?5to?5delete?4@ 004cad7c     Game.obj
 0002:00005d90       ??_C@_0CH@LJMLMEE@button?4?5If?5you?5want?5to?5delete?5a@ 004cad90     Game.obj
 0002:00005db8       ??_C@_0CI@KFFOPBLE@cter?0?5press?5the?5DELETE?5CHARACTE@ 004cadb8     Game.obj
 0002:00005de0       ??_C@_0BO@CINKAKGJ@after?5you?5select?5a?5character?4@ 004cade0     Game.obj
 0002:00005e00       ??_C@_0CC@BFFMPNLE@Account?5validated?5till?5?$CI?$CFd?1?$CFd?1?$CF@ 004cae00     Game.obj
 0002:00005e24       ??_C@_0CG@EHHPNHGM@Account?5use?5time?5left?3?5?$CFdD?5?$CFdHr@ 004cae24     Game.obj
 0002:00005e4c       ??_C@_0CA@PPDDDFLP@It?5is?5not?5a?5registered?5account?4@ 004cae4c     Game.obj
 0002:00005e6c       ??_C@_0BN@HMJOAGBD@IP?5validity?5Time?3?5?$CFdHr?5?$CFdMin@ 004cae6c     Game.obj
 0002:00005e8c       ??_C@_0CD@HHCOMNCP@IP?5meter?9rate?5term?3?5?$CFdD?5?$CFdHr?5?$CFd@ 004cae8c     Game.obj
 0002:00005eb0       ??_C@_0CA@IMDEEPC@Last?5Logout?5?3?5?$CFd?1?$CFd?1?$CFd?5?5?$CFd?5?3?5?$CFd@ 004caeb0     Game.obj
 0002:00005ed0       ??_C@_0BC@DFNECDNG@APOCALYPSE?5Server@ 004caed0     Game.obj
 0002:00005ee4       ??_C@_03BCPAOCCB@WS3@      004caee4     Game.obj
 0002:00005ee8       ??_C@_0L@PLOCLHMG@3rd?5Server@ 004caee8     Game.obj
 0002:00005ef4       ??_C@_03FNLBHEOG@WS4@      004caef4     Game.obj
 0002:00005ef8       ??_C@_0L@DJPDCBBG@4th?5Server@ 004caef8     Game.obj
 0002:00005f04       ??_C@_03EEKKEFKH@WS5@      004caf04     Game.obj
 0002:00005f08       ??_C@_0L@PIHNPONG@5th?5Server@ 004caf08     Game.obj
 0002:00005f14       ??_C@_03GPIHBGGE@WS6@      004caf14     Game.obj
 0002:00005f18       ??_C@_0L@GBJPJINH@6th?5Server@ 004caf18     Game.obj
 0002:00005f24       ??_C@_03HGJMCHCF@WS7@      004caf24     Game.obj
 0002:00005f28       ??_C@_0L@KABBEHBH@7th?5Server@ 004caf28     Game.obj
 0002:00005f34       ??_C@_03PBAEDLOK@WS8@      004caf34     Game.obj
 0002:00005f38       ??_C@_0L@DDOJLDNB@8th?5Server@ 004caf38     Game.obj
 0002:00005f44       ??_C@_03OIBPAKKL@WS9@      004caf44     Game.obj
 0002:00005f48       ??_C@_0L@PCGHGMBB@9th?5Server@ 004caf48     Game.obj
 0002:00005f54       ??_C@_04JALJACCB@WS10@     004caf54     Game.obj
 0002:00005f5c       ??_C@_0M@BGPEFPHM@10th?5Server@ 004caf5c     Game.obj
 0002:00005f68       ??_C@_04IJKCDDGA@WS11@     004caf68     Game.obj
 0002:00005f70       ??_C@_0M@NHHKIALM@11th?5Server@ 004caf70     Game.obj
 0002:00005f7c       ??_C@_04KCIPGAKD@WS12@     004caf7c     Game.obj
 0002:00005f84       ??_C@_0M@EOJIOGLN@12th?5Server@ 004caf84     Game.obj
 0002:00005f90       ??_C@_04LLJEFBOC@WS13@     004caf90     Game.obj
 0002:00005f98       ??_C@_0M@IPBGDJHN@13th?5Server@ 004caf98     Game.obj
 0002:00005fa4       ??_C@_04PENFMHCF@WS14@     004cafa4     Game.obj
 0002:00005fac       ??_C@_0M@KGCNCMPO@14th?5Server@ 004cafac     Game.obj
 0002:00005fb8       ??_C@_04ONMOPGGE@WS15@     004cafb8     Game.obj
 0002:00005fc0       ??_C@_0M@GHKDPDDO@15th?5Server@ 004cafc0     Game.obj
 0002:00005fcc       ??_C@_04MGODKFKH@WS16@     004cafcc     Game.obj
 0002:00005fd4       ??_C@_0M@POEBJFDP@16th?5Server@ 004cafd4     Game.obj
 0002:00005fe0       ??_C@_0CD@NACGKKGB@Connected?4?5Waiting?5for?5response@ 004cafe0     Game.obj
 0002:00006004       ??_C@_0BB@EHCBJJFI@Delete?5Character@ 004cb004     Game.obj
 0002:00006018       ??_C@_0L@ENGHJJHN@__________@ 004cb018     Game.obj
 0002:00006024       ??_C@_0CL@GKKFOPCI@Do?5you?5want?5to?5delete?5the?5chara@ 004cb024     Game.obj
 0002:00006050       ??_C@_0BG@MBHIGKNM@Berserk?5magic?5casted?$CB@ 004cb050     Game.obj
 0002:00006068       ??_C@_0CP@PFBGMCBA@You?5draw?5a?5blank?4?5Please?5try?5ag@ 004cb068     Game.obj
 0002:00006098       ??_C@_0BK@PAHPEIKD@Item?5manufacture?5success?$CB@ 004cb098     Game.obj
 0002:000060b4       ??_C@_0BN@LMAKHPAF@There?5is?5not?5enough?5material@ 004cb0b4     Game.obj
 0002:000060d4       ??_C@_0CH@OHGMBPEO@There?5is?5not?5enough?5Contributio@ 004cb0d4     Game.obj
 0002:000060fc       ??_C@_0BA@IGPCABEC@Crafting?5failed@ 004cb0fc     Game.obj
 0002:0000610c       ??_C@_0CE@GFKOBEJH@Impossible?5to?5get?5a?5Tutelary?5An@ 004cb10c     Game.obj
 0002:00006130       ??_C@_0CE@HHOHHFAC@You?5need?5additional?5Majesty?5Poi@ 004cb130     Game.obj
 0002:00006154       ??_C@_0DD@MEHLELJ@Only?5Majesty?5characters?5can?5rec@ 004cb154     Game.obj
 0002:00006188       ??_C@_0CG@PJEMOLOF@You?5have?5received?5the?5Tutelary?5@ 004cb188     Game.obj
 0002:000061b0       ??_C@_0CA@IJLHFLDF@You?5can?5not?5recall?5in?5this?5map?4@ 004cb1b0     Game.obj
 0002:000061d0       ??_C@_0CI@KJGHIPAM@The?5portal?5to?5the?5Apocalypse?5is@ 004cb1d0     Game.obj
 0002:000061f8       ??_C@_0CI@GHFNBMKM@The?5portal?5to?5the?5Apocalypse?5is@ 004cb1f8     Game.obj
 0002:00006220       ??_C@_0BB@BGBKHFL@Rest?5Monster?5?3?$CFd@ 004cb220     Game.obj
 0002:00006234       ??_C@_0DO@OLLPDCOI@You?5are?5recalled?5by?5force?0?5beca@ 004cb234     Game.obj
 0002:00006274       ??_C@_0BL@DEPABMHI@Abaddon?5is?5destroyed?5by?5?$CFs@ 004cb274     Game.obj
 0002:00006290       ??_C@_0GB@FCPDHICD@Teleport?5to?5Heldenian?5field?5is?5@ 004cb290     Game.obj
 0002:000062f4       ??_C@_0CE@NDFOFAPG@Heldenian?5holy?5war?5has?5been?5clo@ 004cb2f4     Game.obj
 0002:00006318       ??_C@_0DK@KBFCGJEG@Characters?5will?5be?5recalled?5by?5@ 004cb318     Game.obj
 0002:00006354       ??_C@_0DE@JHMMGFAD@Heldenian?5real?5battle?5has?5been?5@ 004cb354     Game.obj
 0002:00006388       ??_C@_0CJ@INAKMGMP@The?5ancient?5prophecy?5slate?5is?5c@ 004cb388     Game.obj
 0002:000063b4       ??_C@_0CK@EFKPOJPB@The?5slates?5are?5broken?5with?5a?5sh@ 004cb3b4     Game.obj
 0002:000063e0       ??_C@_0EI@ECNFHELA@You?5are?5invincible?5by?5divine?5pr@ 004cb3e0     Game.obj
 0002:00006428       ??_C@_0CM@HGHGFNJJ@Your?5mana?5will?5be?5refilled?5by?5g@ 004cb428     Game.obj
 0002:00006458       ??_C@_0FN@KLDJNLBF@You?8ve?5got?5the?5wisdom?4?5Now?0?5the@ 004cb458     Game.obj
 0002:000064b8       ??_C@_0DB@NEFBBKAN@The?5effect?5of?5the?5prophecy?9slat@ 004cb4b8     Game.obj
 0002:000064ec       ??_C@_0BM@GFIALCKC@Your?5stat?5has?5been?5changed?4@ 004cb4ec     Game.obj
 0002:00006508       ??_C@_0CA@BDFNBFCI@Your?5stat?5has?5not?5been?5changed?4@ 004cb508     Game.obj
 0002:00006528       ??_C@_0BN@BDBKNAJK@This?5is?5not?5an?5area?5to?5farm?4@ 004cb528     Game.obj
 0002:00006548       ??_C@_0DJ@FKHPKAPL@Farming?5is?5not?5possible?5with?5yo@ 004cb548     Game.obj
 0002:00006584       ??_C@_0BK@BBOMDIEI@You?5cannot?5farm?5any?5more?4@ 004cb584     Game.obj
 0002:000065a0       ??_C@_0BM@IOGBADIB@Play?5mode?5has?5been?5changed?4@ 004cb5a0     Game.obj
 0002:000065c0       ??_C@_0FI@POFFPIOI@You?5have?5?$CFd?5minutes?5to?5get?5forc@ 004cb5c0     Game.obj
 0002:00006618       ??_C@_0CB@KIMJPHFA@You?8ll?5be?5forced?5to?5recall?5soon@ 004cb618     Game.obj
 0002:0000663c       ??_C@_0BK@KGJHFKPP@Item?5upgrade?5is?5possible?4@ 004cb63c     Game.obj
 0002:00006658       ??_C@_0BF@EMEFNENL@?$CFs?5joined?5the?5party?4@ 004cb658     Game.obj
 0002:00006670       ??_C@_0BM@MKKLCBKF@?$CFs?5withdrew?5from?5the?5party?4@ 004cb670     Game.obj
 0002:0000668c       ??_C@_0P@PEBPAOCJ@?$CFs?5?$CL?$CFd?0?5?$CFs?5?$CL?$CFd@ 004cb68c     Game.obj
 0002:0000669c       ??_C@_06PLEFGEEG@?$CFs?5?$CL?$CFd@ 004cb69c     Game.obj
 0002:000066a4       ??_C@_06NOCODLJK@?$CFs?5?9?$CFd@ 004cb6a4     Game.obj
 0002:000066ac       ??_C@_0DK@GHJLNBFB@You?5can?8t?5move?5to?5other?5positio@ 004cb6ac     Game.obj
 0002:000066e8       ??_C@_0DH@HKNMDJKB@Beginners?5cannot?5go?5to?5the?5town@ 004cb6e8     Game.obj
 0002:00006720       ??_C@_0BF@LNLHELHP@Use?5special?5ability?$CB@ 004cb720     Game.obj
 0002:00006738       ??_C@_0CO@PHDAFNC@Decrease?5enemy?8s?5HP?5by?550?$CF?$CB?5Las@ 004cb738     Game.obj
 0002:00006768       ??_C@_0CA@CBGDMANC@Freeze?5enemy?$CB?5Lasts?5?$CFd?5seconds?$CB@ 004cb768     Game.obj
 0002:00006788       ??_C@_0CC@JFPGNPOL@Paralyze?5enemy?$CB?5Lasts?5?$CFd?5second@ 004cb788     Game.obj
 0002:000067ac       ??_C@_0CG@MOCANGNJ@Kill?5enemy?5at?5once?$CB?5Lasts?5?$CFd?5se@ 004cb7ac     Game.obj
 0002:000067d4       ??_C@_0DH@FFNBDCOK@Earn?5same?5HP?5as?5you?5decrease?5en@ 004cb7d4     Game.obj
 0002:0000680c       ??_C@_0CK@OKFHEGIM@Exhaust?5enemy?8s?5weapon?$CB?5Lasts?5?$CF@ 004cb80c     Game.obj
 0002:00006838       ??_C@_0DA@NHIHJMBJ@Protect?5from?5physical?5attack?$CB?5L@ 004cb838     Game.obj
 0002:00006868       ??_C@_0CE@FPGGELJN@You?5are?5untouchable?5for?5?$CFd?5seco@ 004cb868     Game.obj
 0002:00006890       ??_C@_0EM@FAANJOJH@You?5cast?5a?5powerfull?5incantatio@ 004cb890     Game.obj
 0002:000068e0       ??_C@_0EM@DCNGLKEA@You?5cast?5a?5powerfull?5incantatio@ 004cb8e0     Game.obj
 0002:0000692c       ??_C@_0BO@GNAMBEIK@Special?5ability?5has?5been?5set?$CB@ 004cb92c     Game.obj
 0002:0000694c       ??_C@_0DO@EIJDBCGO@Ability?5that?5decreases?5enemy?8s?5@ 004cb94c     Game.obj
 0002:0000698c       ??_C@_0DA@FHGBBHBG@Ability?5that?5freezes?5enemy?3?5Can@ 004cb98c     Game.obj
 0002:000069bc       ??_C@_0DC@GAHLGGBI@Ability?5that?5paralyzes?5enemy?3?5C@ 004cb9bc     Game.obj
 0002:000069f0       ??_C@_0DK@DEIPMOEJ@Ability?5that?5kills?5enemy?5at?5one@ 004cb9f0     Game.obj
 0002:00006a2c       ??_C@_0DK@DKOGPHLH@Ability?5that?5exhausts?5enemy?8s?5w@ 004cba2c     Game.obj
 0002:00006a68       ??_C@_0EA@CNEGBPNK@Ability?5that?5protects?5from?5phys@ 004cba68     Game.obj
 0002:00006aa8       ??_C@_0DO@HAJPOACK@Ability?5that?5makes?5character?5un@ 004cbaa8     Game.obj
 0002:00006ae8       ??_C@_0DO@EEOBLFOL@Ability?5that?5decreases?5enemy?8s?5@ 004cbae8     Game.obj
 0002:00006b28       ??_C@_0DA@FLBDLAJD@Ability?5that?5freezes?5enemy?3?5Can@ 004cbb28     Game.obj
 0002:00006b58       ??_C@_0DC@GMAJMBJN@Ability?5that?5paralyzes?5enemy?3?5C@ 004cbb58     Game.obj
 0002:00006b8c       ??_C@_0DK@DIPNGJMM@Ability?5that?5kills?5enemy?5at?5one@ 004cbb8c     Game.obj
 0002:00006bc8       ??_C@_0DK@DGJEFADC@Ability?5that?5exhausts?5enemy?8s?5w@ 004cbbc8     Game.obj
 0002:00006c08       ??_C@_0EA@CBDELIFP@Ability?5that?5protects?5from?5phys@ 004cbc08     Game.obj
 0002:00006c48       ??_C@_0DO@HMONEHKP@Ability?5that?5makes?5character?5un@ 004cbc48     Game.obj
 0002:00006c88       ??_C@_0DO@EFHKPKIO@Special?5ability?5has?5run?5out?$CB?5Wi@ 004cbc88     Game.obj
 0002:00006cc8       ??_C@_0DO@PFJNFAFL@Special?5ability?5has?5run?5out?$CB?5Wi@ 004cbcc8     Game.obj
 0002:00006d08       ??_C@_0DO@JHEGHEIM@Special?5ability?5has?5run?5out?$CB?5Wi@ 004cbd08     Game.obj
 0002:00006d48       ??_C@_0CD@DIEHLPLO@Special?5ability?5has?5been?5releas@ 004cbd48     Game.obj
 0002:00006d6c       ??_C@_0CD@IDENEONJ@You?5can?5now?5use?5a?5special?5abili@ 004cbd6c     Game.obj
 0002:00006d90       ??_C@_0FB@IACDHAAK@You?5pushed?5energy?5sphere?5to?5ene@ 004cbd90     Game.obj
 0002:00006de4       ??_C@_0DI@FHHDJBAC@?$CFs?$CIAresden?$CJ?5pushed?5energy?5spher@ 004cbde4     Game.obj
 0002:00006e1c       ??_C@_0DH@EHHOOEJB@?$CFs?$CIElvine?$CJ?5pushed?5energy?5sphere@ 004cbe1c     Game.obj
 0002:00006e58       ??_C@_0EP@NAAHGMPO@Congulaturations?$CB?5You?5brought?5e@ 004cbe58     Game.obj
 0002:00006ea8       ??_C@_0BF@EDGLHLPL@Elvine?5?$CFs?5?3?5Goal?5in?$CB@ 004cbea8     Game.obj
 0002:00006ec0       ??_C@_0BG@BICHGJPJ@Aresden?5?$CFs?5?3?5Goal?5in?$CB@ 004cbec0     Game.obj
 0002:00006ed8       ??_C@_0DF@LAOOJBAC@Energy?5sphere?5was?5dropped?5in?5?$CI?$CF@ 004cbed8     Game.obj
 0002:00006f10       ??_C@_0FC@FEFNDJHF@A?5player?5who?5push?5energy?5sphere@ 004cbf10     Game.obj
 0002:00006f64       ??_C@_0DE@IKECHAPB@Observer?5Mode?5On?4?5Press?5?8SHIFT?5@ 004cbf64     Game.obj
 0002:00006f98       ??_C@_0BC@MALHEEDP@Observer?5Mode?5Off@ 004cbf98     Game.obj
 0002:00006fac       ??_C@_0BO@CCAKPDAA@Failed?5on?5manufacturing?5item?4@ 004cbfac     Game.obj
 0002:00006fcc       ??_C@_0CL@CKLBIAGN@Congratulations?$CB?5You?5completed?5@ 004cbfcc     Game.obj
 0002:00006ff8       ??_C@_0BA@GMJIHJKM@Item?5exchanged?$CB@ 004cbff8     Game.obj
 0002:00007008       ??_C@_0CC@JNLMDCON@Item?5exchange?5has?5been?5cancelle@ 004cc008     Game.obj
 0002:0000702c       ??_C@_0DB@KDACMODP@Maybe?5the?5other?5side?5has?5cancel@ 004cc02c     Game.obj
 0002:00007060       ??_C@_0BM@MLCGLMJB@You?5can?8t?5place?5flags?5here?$CB@ 004cc060     Game.obj
 0002:0000707c       ??_C@_0CB@KBPJAKAA@You?5successfully?5mixed?5a?5potion@ 004cc07c     Game.obj
 0002:000070a0       ??_C@_0BP@FGMBFFFG@You?5failed?5on?5mixing?5a?5potion?4@ 004cc0a0     Game.obj
 0002:000070c0       ??_C@_0DB@OHAEBNCB@Your?5alchemy?5level?5is?5too?5low?5t@ 004cc0c0     Game.obj
 0002:000070f4       ??_C@_0CJ@ONGEDKLB@Incorrect?5ingredients?5to?5mix?5th@ 004cc0f4     Game.obj
 0002:00007120       ??_C@_0BM@HKEPIFHO@Safe?5attack?5mode?5activated?4@ 004cc120     Game.obj
 0002:0000713c       ??_C@_0BO@LJHADBDJ@Safe?5attack?5mode?5inactivated?4@ 004cc13c     Game.obj
 0002:0000715c       ??_C@_0DD@HEEFOLON@You?5can?8t?5fish?5anymore?5because?5@ 004cc15c     Game.obj
 0002:00007190       ??_C@_0DJ@LFHGCENF@The?5other?5player?5took?5first?5the@ 004cc190     Game.obj
 0002:000071cc       ??_C@_0CH@EEJIIBJJ@You?5can?8t?5fish?5anymore?4?5The?5fis@ 004cc1cc     Game.obj
 0002:000071f4       ??_C@_0CD@IKKHAENF@You?5were?5successful?5on?5fishing?$CB@ 004cc1f4     Game.obj
 0002:00007218       ??_C@_0BG@OOHFNHNC@You?5failed?5to?5fish?4?4?4@ 004cc218     Game.obj
 0002:00007230       ??_C@_0CK@EKFKMHDF@You?5can?8t?5use?5the?5administrativ@ 004cc230     Game.obj
 0002:0000725c       ??_C@_0DC@OFOBEJDJ@You?5don?8t?5have?5rights?5to?5use?5gu@ 004cc25c     Game.obj
 0002:00007290       ??_C@_0CG@ILIGADAA@You?5succeeded?5in?5banishing?5guil@ 004cc290     Game.obj
 0002:000072b8       ??_C@_0BN@GABHCHEK@He?5is?5not?5your?5guild?5member?4@ 004cc2b8     Game.obj
 0002:000072d8       ??_C@_0CL@PEHDPHLK@Time?5has?5run?5out?0?5you?5are?5force@ 004cc2d8     Game.obj
 0002:00007304       ??_C@_0CD@IEKPEDIJ@You?5cannot?5deposit?5items?5any?5mo@ 004cc304     Game.obj
 0002:00007328       ??_C@_0DD@FKAFLLML@Travelers?5cannot?5level?5up?5to?520@ 004cc328     Game.obj
 0002:0000735c       ??_C@_0DJ@DILDHCB@?5Trial?5version?5user?5can?5not?5ris@ 004cc35c     Game.obj
 0002:00007398       ??_C@_0BP@HABEOMCP@You?5can?8t?5carry?5anymore?5items?4@ 004cc398     Game.obj
 0002:000073b8       ??_C@_0BD@DOFFMKAC@?5Your?5bag?5is?5full?4@ 004cc3b8     Game.obj
 0002:000073cc       ??_C@_0BB@BFMJNCCP@Not?5enough?5Gold?4@ 004cc3cc     Game.obj
 0002:000073e0       ??_C@_0CG@DLEMAOFD@?5Force?5recall?5mode?5has?5been?5rel@ 004cc3e0     Game.obj
 0002:00007408       ??_C@_0CB@JEMEFDOC@?5Force?5recall?5mode?5has?5been?5set@ 004cc408     Game.obj
 0002:0000742c       ??_C@_0CO@KIAHIBFJ@?5Game?5master?5canceled?5your?5aren@ 004cc42c     Game.obj
 0002:0000745c       ??_C@_0DJ@CIGDGMHE@?5Your?5reservation?5has?5been?5canc@ 004cc45c     Game.obj
 0002:00007498       ??_C@_0CG@FOFAAKJE@?5You?5took?5the?5whole?5admission?5t@ 004cc498     Game.obj
 0002:000074c0       ??_C@_0CN@MLOOALND@?5Your?5reservation?5of?5the?5arena?5@ 004cc4c0     Game.obj
 0002:000074f0       ??_C@_0CG@NKALFJ@You?5were?5successful?5on?5booking?5@ 004cc4f0     Game.obj
 0002:00007518       ??_C@_0BJ@PPHBMEDA@Failed?5on?5booking?5arena?4@ 004cc518     Game.obj
 0002:00007534       ??_C@_0BJ@LFNMHNHK@Password?5is?5not?5correct?$CB@ 004cc534     Game.obj
 0002:00007550       ??_C@_0BG@ECGLBLMB@Not?5existing?5account?$CB@ 004cc550     Game.obj
 0002:00007568       ??_C@_0BG@MCJDIAOF@Non?9existing?5account?$CB@ 004cc568     Game.obj
 0002:00007580       ??_C@_0BH@PPHNKNCA@Check?5your?5account?5ID?4@ 004cc580     Game.obj
 0002:00007598       ??_C@_0CA@COCHCGGB@Can?5not?5connect?5to?5game?5server?$CB@ 004cc598     Game.obj
 0002:000075b8       ??_C@_0CB@GPMEODI@You?5can?8t?5connect?5to?5game?5serve@ 004cc5b8     Game.obj
 0002:000075dc       ??_C@_0CF@CFFCGDDD@because?5game?5server?5isn?8t?5avail@ 004cc5dc     Game.obj
 0002:00007604       ??_C@_0BB@GHDFCAFJ@Try?5again?5later?4@ 004cc604     Game.obj
 0002:00007618       ??_C@_0BF@CNPNJFPI@New?5account?5created?4@ 004cc618     Game.obj
 0002:00007630       ??_C@_0BM@LGNKDMGA@You?5can?5login?5with?5your?5ID?4@ 004cc630     Game.obj
 0002:0000764c       ??_C@_0BM@GJMHJHGK@Can?5not?5create?5new?5account?$CB@ 004cc64c     Game.obj
 0002:00007668       ??_C@_0BL@IMIKKAAN@Cannot?5create?5new?5account?$CB@ 004cc668     Game.obj
 0002:00007684       ??_C@_0BP@OOIFIBGN@Already?5existing?5account?5name?4@ 004cc684     Game.obj
 0002:000076a4       ??_C@_0BM@FACGFPPI@Enter?5another?5account?5name?4@ 004cc6a4     Game.obj
 0002:000076c0       ??_C@_0BH@FOLFAHLF@New?5character?5created?4@ 004cc6c0     Game.obj
 0002:000076d8       ??_C@_0BO@HICOGPPD@Can?5not?5create?5new?5character?$CB@ 004cc6d8     Game.obj
 0002:000076f8       ??_C@_0BN@OKCPNCNB@Cannot?5create?5new?5character?$CB@ 004cc6f8     Game.obj
 0002:00007718       ??_C@_0CB@CHLEGNHC@Already?5existing?5character?5name@ 004cc718     Game.obj
 0002:0000773c       ??_C@_0BO@EKOJFCFN@Enter?5another?5character?5name?4@ 004cc73c     Game.obj
 0002:0000775c       ??_C@_0BD@HGLIAMIK@Character?5deleted?4@ 004cc75c     Game.obj
 0002:00007770       ??_C@_0BK@FMDDMFNA@Character?5deleted?5safely?4@ 004cc770     Game.obj
 0002:0000778c       ??_C@_0BC@MCOKDBPO@Password?5changed?4@ 004cc78c     Game.obj
 0002:000077a0       ??_C@_0BO@ILLENMPF@Password?5changed?5succesfully?4@ 004cc7a0     Game.obj
 0002:000077c0       ??_C@_0BJ@FCPOGGDK@Can?5not?5change?5password?$CB@ 004cc7c0     Game.obj
 0002:000077dc       ??_C@_0BI@EBLJCFEK@Cannot?5change?5password?4@ 004cc7dc     Game.obj
 0002:000077f4       ??_C@_0CB@ENHHGHEO@You?5cannot?5login?5because?5of?5dat@ 004cc7f4     Game.obj
 0002:00007818       ??_C@_0CA@LMFMHKFB@difference?4?5Contact?5gamemaster?4@ 004cc818     Game.obj
 0002:00007838       ??_C@_0CE@HNDCMCEJ@Character?5above?5trial?5level?5can@ 004cc838     Game.obj
 0002:0000785c       ??_C@_0CB@DKLCCIPA@log?5in?4?5You?5need?5to?5login?5in?5th@ 004cc85c     Game.obj
 0002:00007880       ??_C@_0CF@PDLCCCCG@registered?5IP?5or?5registered?5acc@ 004cc880     Game.obj
 0002:000078a8       ??_C@_0CH@MBPDNPOB@Your?5registered?5IP?5group?5have?5e@ 004cc8a8     Game.obj
 0002:000078d0       ??_C@_0L@OLKPDHIN@the?5limit?4@ 004cc8d0     Game.obj
 0002:000078dc       ??_C@_0CK@DGCGNBAI@You?5cannot?5log?5in?5because?5the?5g@ 004cc8dc     Game.obj
 0002:00007908       ??_C@_0BK@GBOOINCG@is?5offline?4?5Log?5in?5later?4@ 004cc908     Game.obj
 0002:00007924       ??_C@_0BF@EKKGFGKI@Connection?5Rejected?$CB@ 004cc924     Game.obj
 0002:0000793c       ??_C@_0BB@LCOBKJHG@Account?5blocked?4@ 004cc93c     Game.obj
 0002:00007950       ??_C@_0CM@GCMEGKDK@You?5can?8t?5login?5because?5account@ 004cc950     Game.obj
 0002:0000797c       ??_C@_0BO@KFPBDFGE@Block?5date?3?5Until?5?$CFdY?5?$CFdM?5?$CFdD@ 004cc97c     Game.obj
 0002:0000799c       ??_C@_0BC@IODAPPIC@Not?5Enough?5Point?$CB@ 004cc99c     Game.obj
 0002:000079b0       ??_C@_0DF@FKGJBELO@?BI?$LM?F?$KI?O?$KF?N?$LE?A?$KN?$KN?$KEw?$LF?$LC?$KH?t?0?5?$LN?P?$KG?$NMGD2S?4ga@ 004cc9b0     Game.obj
 0002:000079e8       ??_C@_0BC@NNGFJPPA@World?5Server?5Full@ 004cc9e8     Game.obj
 0002:000079fc       ??_C@_0CA@FFLKAJKJ@Please?5?$CB?5Try?5Other?5World?5Server@ 004cc9fc     Game.obj
 0002:00007a1c       ??_C@_0BG@EFDLEBIP@Your?5password?5expired@ 004cca1c     Game.obj
 0002:00007a34       ??_C@_0BI@MBGHAHKI@Please?$CB?5Change?5password@ 004cca34     Game.obj
 0002:00007a4c       ??_C@_0BH@KMENLNHP@Keycode?5input?5Success?$CB@ 004cca4c     Game.obj
 0002:00007a64       ??_C@_0CA@NLIIDHGJ@Keycode?5Registration?5successed?4@ 004cca64     Game.obj
 0002:00007a84       ??_C@_0BF@KDKFCAHC@Account?5logging?5out?4@ 004cca84     Game.obj
 0002:00007a9c       ??_C@_0BP@MKJOJFJF@Try?5again?5a?5few?5minutes?5later?4@ 004cca9c     Game.obj
 0002:00007abc       ??_C@_0CA@NDMOEKG@World?5server?5is?5not?5active?5now?4@ 004ccabc     Game.obj
 0002:00007adc       ??_C@_0BL@IFFCPHJO@Server?5maximum?5user?5limit?4@ 004ccadc     Game.obj
 0002:00007af8       ??_C@_0BB@DGEBNHIE@You?5took?5out?5?$CFs?4@ 004ccaf8     Game.obj
 0002:00007b0c       ??_C@_0DH@KAOBJNPJ@Item?5?$CI?$CFs?5?$CFs?5?$CFs?$CJ?5?3?5has?5been?5rele@ 004ccb0c     Game.obj
 0002:00007b44       ??_C@_0CG@KPLJNNLC@Item?5?$CFs?3?5equipment?5has?5been?5rel@ 004ccb44     Game.obj
 0002:00007b6c       ??_C@_0P@JFKNDCID@AngelicPendant@ 004ccb6c     Game.obj
 0002:00007b7c       ??_C@_0CI@IDECCDNI@You?5can?5use?5after?5using?5the?5oth@ 004ccb7c     Game.obj
 0002:00007ba8       ??_C@_0EG@IIDAKCFM@Item?5?$CFs?3?5Scrolls?5cannot?5be?5used@ 004ccba8     Game.obj
 0002:00007bf0       ??_C@_0DB@NFELAKML@You?5can?8t?5use?5this?5item?5because@ 004ccbf0     Game.obj
 0002:00007c24       ??_C@_0DC@HMHGCNHN@Item?5?$CFs?3?5Select?5a?5position?5whic@ 004ccc24     Game.obj
 0002:00007c58       ??_C@_0CP@DHIPPHHD@Item?5?$CFs?3?5Select?5an?5item?5which?5y@ 004ccc58     Game.obj
 0002:00007c88       ??_C@_0DB@DBPMNKHC@You?5should?5learn?5alchemy?5skill?5@ 004ccc88     Game.obj
 0002:00007cbc       ??_C@_0BH@LKCHBLJO@Using?5alchemy?5skill?4?4?4@ 004cccbc     Game.obj
 0002:00007cd4       ??_C@_0DI@EMIMBMIM@You?5should?5learn?5manufacturing?5@ 004cccd4     Game.obj
 0002:00007d0c       ??_C@_0BM@FKPDOBNL@Initiating?5item?5Crafting?4?4?4@ 004ccd0c     Game.obj
 0002:00007d28       ??_C@_02OFIBGMBD@41@       004ccd28     Game.obj
 0002:00007d2c       ??_C@_07FENCDID@Account@   004ccd2c     Game.obj
 0002:00007d34       ??_C@_08FJIAHGMM@Password@ 004ccd34     Game.obj
 0002:00007d40       ??_C@_08OMHMMGMH@New?9Pass@ 004ccd40     Game.obj
 0002:00007d4c       ??_C@_0N@HMJOMFGO@Pass?9Confirm@ 004ccd4c     Game.obj
 0002:00007d5c       ??_C@_0CJ@JGFNGCAE@Enter?5your?5new?5password?4?5Passwo@ 004ccd5c     Game.obj
 0002:00007d88       ??_C@_0CI@KGEPCEEK@be?5at?5least?58?5letters?4?5The?5new?5@ 004ccd88     Game.obj
 0002:00007db0       ??_C@_0CJ@KCNMMOAG@must?5be?5different?5with?5the?5prev@ 004ccdb0     Game.obj
 0002:00007ddc       ??_C@_0BO@BBNIFJKI@Unable?5to?5listen?5to?5whispers?4@ 004ccddc     Game.obj
 0002:00007dfc       ??_C@_0BO@GBDEGFKK@Enable?5to?5listen?5to?5whispers?4@ 004ccdfc     Game.obj
 0002:00007e1c       ??_C@_0BK@HFLDBKPD@Unable?5to?5chat?5in?5public?4@ 004cce1c     Game.obj
 0002:00007e38       ??_C@_0BK@NPOBEBIL@Enable?5to?5chat?5in?5public?4@ 004cce38     Game.obj
 0002:00007e54       ??_C@_0BG@HPMHIKON@Restarting?5game?4?4?4?4?$CFd@ 004cce54     Game.obj
 0002:00007e6c       ??_C@_0L@NFCLHEMF@?5Berserked@ 004cce6c     Game.obj
 0002:00007e78       ??_C@_07KIBIEBMP@?5Frozen@ 004cce78     Game.obj
 0002:00007e80       ??_C@_0M@LBNBIGKN@Clairvoyant@ 004cce80     Game.obj
 0002:00007e8c       ??_C@_0CA@GOEAHJFA@Destruction?5of?5Magic?5Protection@ 004cce8c     Game.obj
 0002:00007eac       ??_C@_0BF@JCKJIKOP@Anti?9Physical?5Damage@ 004cceac     Game.obj
 0002:00007ec4       ??_C@_0BC@PPGKLCPG@Anti?9Magic?5Damage@ 004ccec4     Game.obj
 0002:00007ed8       ??_C@_09NOFCDNOK@Poisonous@ 004cced8     Game.obj
 0002:00007ee4       ??_C@_0BD@GAGHHAAP@Critical?5Poisonous@ 004ccee4     Game.obj
 0002:00007ef8       ??_C@_09IGNDJJLI@Explosive@ 004ccef8     Game.obj
 0002:00007f04       ??_C@_0BD@DIOGNEFN@Critical?5Explosive@ 004ccf04     Game.obj
 0002:00007f18       ??_C@_09GBMHKGMF@Mercenary@ 004ccf18     Game.obj
 0002:00007f24       ??_C@_0P@LAOCMJDP@?0?5Party?5Member@ 004ccf24     Game.obj
 0002:00007f34       ??_C@_05EHMBKEBF@?$DP?$DP?$DP?$DP?$DP@ 004ccf34     Game.obj
 0002:00007f3c       ??_C@_0P@JOGHLMFC@?$CFs?5Guildmaster@ 004ccf3c     Game.obj
 0002:00007f4c       ??_C@_0N@JIECIFLJ@?$CFs?5Guildsman@ 004ccf4c     Game.obj
 0002:00007f5c       ??_C@_09MHDIEBHN@Traveller@ 004ccf5c     Game.obj
 0002:00007f68       ??_C@_0BB@EALKLEGN@Aresden?5Civilian@ 004ccf68     Game.obj
 0002:00007f7c       ??_C@_0BC@MDCFLED@Aresden?5Combatant@ 004ccf7c     Game.obj
 0002:00007f90       ??_C@_0BA@FEKBCHJC@Elvine?5Civilian@ 004ccf90     Game.obj
 0002:00007fa0       ??_C@_0BB@CBCEKPFN@Elvine?5Combatant@ 004ccfa0     Game.obj
 0002:00007fb4       ??_C@_08HFFOEHHM@Criminal@ 004ccfb4     Game.obj
 0002:00007fc0       ??_C@_0BB@MGNOCGK@Aresden?5Criminal@ 004ccfc0     Game.obj
 0002:00007fd4       ??_C@_0BA@BIHGHBJF@Elvine?5Criminal@ 004ccfd4     Game.obj
 0002:00007fe4       ??_C@_0DD@FINKNJNF@Client?5program?5version?5does?5not@ 004ccfe4     Game.obj
 0002:00008018       ??_C@_0CH@IPGFBPGI@Download?5recent?5version?5and?5try@ 004cd018     Game.obj
 0002:00008040       ??_C@_0BK@BBOHIPA@http?3?1?1www?4helbreath?4com?1@ 004cd040     Game.obj
 0002:0000805c       ??_C@_0BP@FPGAOBGG@V3?451?5compatibility?5by?5Cleroth@ 004cd05c     Game.obj
 0002:0000807c       ??_C@_0BJ@NOCOILBJ@V3?451?5dialogs?5by?5Diuuude@ 004cd07c     Game.obj
 0002:00008098       ??_C@_0CG@LGJEOJOA@Effects?0?5mobs?0?5Apocalypse?0?5Held@ 004cd098     Game.obj
 0002:000080c0       ??_C@_0BJ@BLLMICHA@?$CG?5finalizing?5by?5Snoopy81@ 004cd0c0     Game.obj
 0002:000080dc       ??_C@_0BO@BPCDPJKE@Angels?5?$CG?5Crafting?5by?5Snoopy81@ 004cd0dc     Game.obj
 0002:000080fc       ??_C@_0L@HJNHLBHD@Middleland@ 004cd0fc     Game.obj
 0002:00008108       ??_C@_09GJGCDBNG@huntzone3@ 004cd108     Game.obj
 0002:00008114       ??_C@_0N@FDAFGNFJ@Death?5Valley@ 004cd114     Game.obj
 0002:00008124       ??_C@_09FLFEFDFE@huntzone1@ 004cd124     Game.obj
 0002:00008130       ??_C@_0P@GIGJCECE@Rocky?5Highland@ 004cd130     Game.obj
 0002:00008140       ??_C@_06BICOPPOH@elvuni@   004cd140     Game.obj
 0002:00008148       ??_C@_0BA@CJKGAKN@Eldiniel?5Garden@ 004cd148     Game.obj
 0002:00008158       ??_C@_0M@JCIIHDHB@Elvine?5City@ 004cd158     Game.obj
 0002:00008164       ??_C@_07IBHFPNFL@elvfarm@  004cd164     Game.obj
 0002:0000816c       ??_C@_0M@LFPPHPAJ@Elvine?5Farm@ 004cd16c     Game.obj
 0002:00008178       ??_C@_07LHJMGEAH@arefarm@  004cd178     Game.obj
 0002:00008180       ??_C@_0N@PCLCDCHL@Aresden?5Farm@ 004cd180     Game.obj
 0002:00008190       ??_C@_07DLHCIBDH@default@  004cd190     Game.obj
 0002:00008198       ??_C@_0O@BOOGLMPK@Beginner?5Zone@ 004cd198     Game.obj
 0002:000081a8       ??_C@_09CGCDKHBB@huntzone4@ 004cd1a8     Game.obj
 0002:000081b4       ??_C@_0M@EIPPKMHD@Silent?5Wood@ 004cd1b4     Game.obj
 0002:000081c0       ??_C@_09HAHJAAJH@huntzone2@ 004cd1c0     Game.obj
 0002:000081cc       ??_C@_0O@EKOELDEL@Eternal?5Field@ 004cd1cc     Game.obj
 0002:000081dc       ??_C@_06PCPNFFEN@areuni@   004cd1dc     Game.obj
 0002:000081e4       ??_C@_0P@KBJFEFNE@Aresien?5Garden@ 004cd1e4     Game.obj
 0002:000081f4       ??_C@_0N@NFMFDOAD@Aresden?5City@ 004cd1f4     Game.obj
 0002:00008204       ??_C@_05DKLGLAGF@dglv2@    004cd204     Game.obj
 0002:0000820c       ??_C@_0L@JOOKABDM@Dungeon?5L2@ 004cd20c     Game.obj
 0002:00008218       ??_C@_05CDKNIBCE@dglv3@    004cd218     Game.obj
 0002:00008220       ??_C@_0L@IHPBDAHN@Dungeon?5L3@ 004cd220     Game.obj
 0002:0000822c       ??_C@_05GMOMBHOD@dglv4@    004cd22c     Game.obj
 0002:00008234       ??_C@_0L@MILAKGLK@Dungeon?5L4@ 004cd234     Game.obj
 0002:00008240       ??_C@_08ILHMILJO@elvined1@ 004cd240     Game.obj
 0002:0000824c       ??_C@_0P@NBGJBJGK@Elvine?5Dungeon@ 004cd24c     Game.obj
 0002:0000825c       ??_C@_09CJEDCGPC@aresdend1@ 004cd25c     Game.obj
 0002:00008268       ??_C@_0BA@MLKGKJHG@Aresden?5Dungeon@ 004cd268     Game.obj
 0002:00008278       ??_C@_05LPOOEHOF@bisle@    004cd278     Game.obj
 0002:00008280       ??_C@_0BA@GIMBELGJ@Bleeding?5Island@ 004cd280     Game.obj
 0002:00008290       ??_C@_04NGFDDEJC@toh1@     004cd290     Game.obj
 0002:00008298       ??_C@_0BA@MBBFKFJE@Tower?5of?5Hell?51@ 004cd298     Game.obj
 0002:000082a8       ??_C@_04PNHOGHFB@toh2@     004cd2a8     Game.obj
 0002:000082b0       ??_C@_0BA@OKDIPGFH@Tower?5of?5Hell?52@ 004cd2b0     Game.obj
 0002:000082c0       ??_C@_04OEGFFGBA@toh3@     004cd2c0     Game.obj
 0002:000082c8       ??_C@_0BA@PDCDMHBG@Tower?5of?5Hell?53@ 004cd2c8     Game.obj
 0002:000082d8       ??_C@_09LLBLMCBA@middled1x@ 004cd2d8     Game.obj
 0002:000082e4       ??_C@_0BA@NGKFAKGF@Middleland?5Mine@ 004cd2e4     Game.obj
 0002:000082f4       ??_C@_09KHIDHHMH@middled1n@ 004cd2f4     Game.obj
 0002:00008300       ??_C@_0BD@GDLDMFAE@Middleland?5Dungeon@ 004cd300     Game.obj
 0002:00008314       ??_C@_09PEFIFODD@2ndmiddle@ 004cd314     Game.obj
 0002:00008320       ??_C@_0M@EFECBMMM@Promiseland@ 004cd320     Game.obj
 0002:0000832c       ??_C@_08CPLLEOFO@icebound@ 004cd32c     Game.obj
 0002:00008338       ??_C@_0L@EEIFEFGK@druncncity@ 004cd338     Game.obj
 0002:00008344       ??_C@_0P@MHNGBMOC@Druncnian?5City@ 004cd344     Game.obj
 0002:00008354       ??_C@_09OMJNCKEH@inferniaA@ 004cd354     Game.obj
 0002:00008360       ??_C@_0L@MOLPBJJN@Infernia?5A@ 004cd360     Game.obj
 0002:0000836c       ??_C@_09MHLAHJIE@inferniaB@ 004cd36c     Game.obj
 0002:00008378       ??_C@_0L@OFJCEKFO@Infernia?5B@ 004cd378     Game.obj
 0002:00008384       ??_C@_04JKAJFJBM@maze@     004cd384     Game.obj
 0002:0000838c       ??_C@_04FLMIHGBI@Maze@     004cd38c     Game.obj
 0002:00008394       ??_C@_08OJLHCHLF@procella@ 004cd394     Game.obj
 0002:000083a0       ??_C@_08GLEGKFBG@Procella@ 004cd3a0     Game.obj
 0002:000083ac       ??_C@_07DJBOHKGN@abaddon@  004cd3ac     Game.obj
 0002:000083b4       ??_C@_07OIMFHGKF@BtField@  004cd3b4     Game.obj
 0002:000083bc       ??_C@_0N@MDJCDLAB@Battle?5Field@ 004cd3bc     Game.obj
 0002:000083cc       ??_C@_04MHDFMNBP@GodH@     004cd3cc     Game.obj
 0002:000083d4       ??_C@_0BA@LBBLPLNI@God?8s?5Heldenian@ 004cd3d4     Game.obj
 0002:000083e4       ??_C@_08JEHKJFEF@HRampart@ 004cd3e4     Game.obj
 0002:000083f0       ??_C@_0BC@JJIBGKDD@Heldenian?5Rampart@ 004cd3f0     Game.obj
 0002:00008404       ??_C@_0L@JJJCOLEH@cityhall_1@ 004cd404     Game.obj
 0002:00008410       ??_C@_0BB@NOCJNICB@Aresden?5Cityhall@ 004cd410     Game.obj
 0002:00008424       ??_C@_0L@LCLPLIIE@cityhall_2@ 004cd424     Game.obj
 0002:00008430       ??_C@_0BA@MKDCELNO@Elvine?5Cityhall@ 004cd430     Game.obj
 0002:00008440       ??_C@_09DGMGDGME@gldhall_1@ 004cd440     Game.obj
 0002:0000844c       ??_C@_0BC@JMAAOBHG@Aresden?5Guildhall@ 004cd44c     Game.obj
 0002:00008460       ??_C@_09BNOLGFAH@gldhall_2@ 004cd460     Game.obj
 0002:0000846c       ??_C@_0BB@LBBGBFGI@Elvine?5Guildhall@ 004cd46c     Game.obj
 0002:00008480       ??_C@_0BD@KDIIOONJ@Aresden?5Blacksmith@ 004cd480     Game.obj
 0002:00008494       ??_C@_0BC@FJKKMFEO@Elvine?5Blacksmith@ 004cd494     Game.obj
 0002:000084a8       ??_C@_0N@MMCIDJDM@Aresden?5Shop@ 004cd4a8     Game.obj
 0002:000084b8       ??_C@_0M@ILGFHEEO@Elvine?5Shop@ 004cd4b8     Game.obj
 0002:000084c4       ??_C@_0BC@CCOKJIOK@Aresden?5Warehouse@ 004cd4c4     Game.obj
 0002:000084d8       ??_C@_0BB@PPMGMPE@Elvine?5Warehouse@ 004cd4d8     Game.obj
 0002:000084ec       ??_C@_08FIJKFKKN@arewrhus@ 004cd4ec     Game.obj
 0002:000084f8       ??_C@_08DKHBKOOL@elvwrhus@ 004cd4f8     Game.obj
 0002:00008504       ??_C@_08HEJHNFMD@wzdtwr_1@ 004cd504     Game.obj
 0002:00008510       ??_C@_0M@MABOFAKD@Magic?5Tower@ 004cd510     Game.obj
 0002:0000851c       ??_C@_08FPLKIGAA@wzdtwr_2@ 004cd51c     Game.obj
 0002:00008528       ??_C@_06EIBIFNNK@cath_1@   004cd528     Game.obj
 0002:00008530       ??_C@_0P@OHFADPGI@Aresien?5Church@ 004cd530     Game.obj
 0002:00008540       ??_C@_06GDDFAOBJ@cath_2@   004cd540     Game.obj
 0002:00008548       ??_C@_0BA@EEFPBKBB@Eldiniel?5Church@ 004cd548     Game.obj
 0002:00008558       ??_C@_07EBLMBGHC@resurr1@  004cd558     Game.obj
 0002:00008560       ??_C@_0N@INKOOHHP@Revival?5Zone@ 004cd560     Game.obj
 0002:00008570       ??_C@_07GKJBEFLB@resurr2@  004cd570     Game.obj
 0002:00008578       ??_C@_08KMOIGOPA@arebrk11@ 004cd578     Game.obj
 0002:00008584       ??_C@_0BC@KDAAOENK@Aresden?5Barrack?51@ 004cd584     Game.obj
 0002:00008598       ??_C@_08IHMFDNDD@arebrk12@ 004cd598     Game.obj
 0002:000085a4       ??_C@_08KOKONAKJ@arebrk21@ 004cd5a4     Game.obj
 0002:000085b0       ??_C@_0BC@IICNLHBJ@Aresden?5Barrack?52@ 004cd5b0     Game.obj
 0002:000085c4       ??_C@_08IFIDIDGK@arebrk22@ 004cd5c4     Game.obj
 0002:000085d0       ??_C@_08MOADJKLG@elvbrk11@ 004cd5d0     Game.obj
 0002:000085dc       ??_C@_0BB@IOBGBAME@Elvine?5Barrack?51@ 004cd5dc     Game.obj
 0002:000085f0       ??_C@_08OFCOMJHF@elvbrk12@ 004cd5f0     Game.obj
 0002:000085fc       ??_C@_08MMEFCEOP@elvbrk21@ 004cd5fc     Game.obj
 0002:00008608       ??_C@_0BB@KFDLEDAH@Elvine?5Barrack?52@ 004cd608     Game.obj
 0002:0000861c       ??_C@_08OHGIHHCM@elvbrk22@ 004cd61c     Game.obj
 0002:00008628       ??_C@_0L@MAKDNOPL@fightzone1@ 004cd628     Game.obj
 0002:00008634       ??_C@_07HKMKFBG@Arena?51@  004cd634     Game.obj
 0002:0000863c       ??_C@_0L@OLIOINDI@fightzone2@ 004cd63c     Game.obj
 0002:00008648       ??_C@_07CMIBPGNF@Arena?52@ 004cd648     Game.obj
 0002:00008650       ??_C@_0L@PCJFLMHJ@fightzone3@ 004cd650     Game.obj
 0002:0000865c       ??_C@_07DFJKMHJE@Arena?53@ 004cd65c     Game.obj
 0002:00008664       ??_C@_0L@LNNECKLO@fightzone4@ 004cd664     Game.obj
 0002:00008670       ??_C@_07HKNLFBFD@Arena?54@ 004cd670     Game.obj
 0002:00008678       ??_C@_0L@KEMPBLPP@fightzone5@ 004cd678     Game.obj
 0002:00008684       ??_C@_07GDMAGABC@Arena?55@ 004cd684     Game.obj
 0002:0000868c       ??_C@_0L@IPOCEIDM@fightzone6@ 004cd68c     Game.obj
 0002:00008698       ??_C@_07EIONDDNB@Arena?56@ 004cd698     Game.obj
 0002:000086a0       ??_C@_0L@JGPJHJHN@fightzone7@ 004cd6a0     Game.obj
 0002:000086ac       ??_C@_07FBPGACJA@Arena?57@ 004cd6ac     Game.obj
 0002:000086b4       ??_C@_0L@BBGBGFLC@fightzone8@ 004cd6b4     Game.obj
 0002:000086c0       ??_C@_07NGGOBOFP@Arena?58@ 004cd6c0     Game.obj
 0002:000086c8       ??_C@_0L@IHKFEPD@fightzone9@ 004cd6c8     Game.obj
 0002:000086d4       ??_C@_07HLAEPENG@arejail@  004cd6d4     Game.obj
 0002:000086dc       ??_C@_0N@DOCKKCKK@Aresden?5Jail@ 004cd6dc     Game.obj
 0002:000086ec       ??_C@_07ENONGNIK@elvjail@  004cd6ec     Game.obj
 0002:000086f4       ??_C@_0M@HJGHOPNI@Elvine?5Jail@ 004cd6f4     Game.obj
 0002:00008700       ??_C@_09KILGLILB@CmdHall_1@ 004cd700     Game.obj
 0002:0000870c       ??_C@_09IDJLOLHC@CmdHall_2@ 004cd70c     Game.obj
 0002:00008718       ??_C@_0BE@FJNFFJGF@?1enabletogglescreen@ 004cd718     Game.obj
 0002:0000872c       ??_C@_0CE@ILBOICDO@You?5can?8t?5refuse?5your?5own?5messa@ 004cd72c     Game.obj
 0002:00008750       ??_C@_0DL@IOLLOAAE@Character?5?$CFs?5has?5been?5listed?5on@ 004cd750     Game.obj
 0002:0000878c       ??_C@_0DF@IDFLIPLC@The?5character?8s?5name?5you?5want?5t@ 004cd78c     Game.obj
 0002:000087c4       ??_C@_0DP@FEGCLLEK@Character?5?$CFs?5has?5been?5released?5@ 004cd7c4     Game.obj
 0002:00008804       ??_C@_0BO@NLCHEMM@You?5cannot?5use?5it?5right?5here?4@ 004cd804     Game.obj
 0002:00008824       ??_C@_0CE@KHKBBNPK@You?8re?5already?5using?5another?5sl@ 004cd824     Game.obj
 0002:00008848       ??_C@_0BP@KONNBKJ@Item?5transaction?5not?5finished?4@ 004cd848     Game.obj
 0002:00008868       ??_C@_0BJ@GKIFGEBC@Stopped?5using?5the?5skill?4@ 004cd868     Game.obj
 0002:00008884       ??_C@_02KNHHEEKP@?5?5@     004cd884     Game.obj
 0002:00008888       ??_C@_0BG@CGCICJJB@Objective?3?5slay?5?$CFd?5?$CFs@ 004cd888     Game.obj
 0002:000088a0       ??_C@_0BE@MCANOCLM@Location?5?3?5Anywhere@ 004cd8a0     Game.obj
 0002:000088b4       ??_C@_08LAJJNLBO@Map?5?3?5?$CFs@ 004cd8b4     Game.obj
 0002:000088c0       ??_C@_0CB@OGCIHABK@Position?3?5?$CFd?0?$CFd?5within?5?$CFd?5block@ 004cd8c0     Game.obj
 0002:000088e4       ??_C@_0BG@HKMCCCJE@Contribution?3?$CFdPoints@ 004cd8e4     Game.obj
 0002:000088fc       ??_C@_0BN@FJJIIBPC@Objective?3?5Observe?5the?5enemy@ 004cd8fc     Game.obj
 0002:0000891c       ??_C@_0BH@NNPEHFAF@Contribution?3?5?$CFdPoints@ 004cd91c     Game.obj
 0002:00008934       ??_C@_0CE@IIIODHDO@Operation?5plan?3?5Enemy?5rear?5inva@ 004cd934     Game.obj
 0002:00008958       ??_C@_0CH@MJAOBPFD@Direct?5teleport?5to?5enemy?8s?5rear@ 004cd958     Game.obj
 0002:00008980       ??_C@_0CH@IDKAFCEI@and?5try?5to?5destroy?5the?5main?5fac@ 004cd980     Game.obj
 0002:000089a8       ??_C@_0CH@MDEHILAO@or?5a?5mission?5of?5making?5guerila?5@ 004cd9a8     Game.obj
 0002:000089d0       ??_C@_0BK@KIFKIIK@to?5obstruct?5their?5actions@ 004cd9d0     Game.obj
 0002:000089ec       ??_C@_0CM@LLAHKOLE@Teleport?5destination?3?5presuposi@ 004cd9ec     Game.obj
 0002:00008a18       ??_C@_0BJ@OGJIBLN@Teleport?5destination?3?5?$CFs@ 004cda18     Game.obj
 0002:00008a34       ??_C@_0CF@ENJGPIOH@I?5will?5appreciate?5it?5if?5you?5suc@ 004cda34     Game.obj
 0002:00008a5c       ??_C@_0P@HDMHMDDF@So?0?5would?5you?$DP@ 004cda5c     Game.obj
 0002:00008a6c       ??_C@_0BK@GCNJAHOB@Would?5you?5try?5this?5quest?$DP@ 004cda6c     Game.obj
 0002:00008a88       ??_C@_05IGEOMBFB@Slime@    004cda88     Game.obj
 0002:00008a90       ??_C@_08HEGKIDKO@Skeleton@ 004cda90     Game.obj
 0002:00008a9c       ??_C@_0M@IEEPIMEH@Stone?5Golem@ 004cda9c     Game.obj
 0002:00008aa8       ??_C@_0M@HLCMMNBL@Shop?5Keeper@ 004cdaa8     Game.obj
 0002:00008ab4       ??_C@_09CMNLCOGB@Giant?5Ant@ 004cdab4     Game.obj
 0002:00008ac0       ??_C@_0P@GBFLLOCF@Giant?5Scorpion@ 004cdac0     Game.obj
 0002:00008ad0       ??_C@_06LDJFMIMO@Zombie@   004cdad0     Game.obj
 0002:00008ad8       ??_C@_08GNIEBKJG@Sorcerer@ 004cdad8     Game.obj
 0002:00008ae4       ??_C@_0BB@GJGKHBEG@Warehouse?5Keeper@ 004cdae4     Game.obj
 0002:00008af8       ??_C@_05DNLHMGGM@Snake@    004cdaf8     Game.obj
 0002:00008b00       ??_C@_0L@MBDDHNBB@Clay?5Golem@ 004cdb00     Game.obj
 0002:00008b0c       ??_C@_0BC@HJEJJMNO@BlackSmith?5Keeper@ 004cdb0c     Game.obj
 0002:00008b20       ??_C@_0BB@MINOBBOA@Cityhall?5Officer@ 004cdb20     Game.obj
 0002:00008b34       ??_C@_0BC@PJOMFGGE@Guildhall?5Officer@ 004cdb34     Game.obj
 0002:00008b48       ??_C@_08EIFNLHIM@Helhound@ 004cdb48     Game.obj
 0002:00008b54       ??_C@_04KHACLBM@Ogre@      004cdb54     Game.obj
 0002:00008b5c       ??_C@_08OONNBDDF@Werewolf@ 004cdb5c     Game.obj
 0002:00008b68       ??_C@_0O@GMODNHDL@Energy?5Sphere@ 004cdb68     Game.obj
 0002:00008b78       ??_C@_0BG@GGPIGJIL@Arrow?5Guard?5Tower?5Kit@ 004cdb78     Game.obj
 0002:00008b90       ??_C@_0BC@JGHNHJBK@Arrow?5Guard?5Tower@ 004cdb90     Game.obj
 0002:00008ba4       ??_C@_0BH@NOHOIDPL@Cannon?5Guard?5Tower?5Kit@ 004cdba4     Game.obj
 0002:00008bbc       ??_C@_0BD@JDNOHCNP@Cannon?5Guard?5Tower@ 004cdbbc     Game.obj
 0002:00008bd0       ??_C@_0BD@NJACIAIN@Mana?5Collector?5Kit@ 004cdbd0     Game.obj
 0002:00008be4       ??_C@_0P@MPAELAAN@Mana?5Collector@ 004cdbe4     Game.obj
 0002:00008bf4       ??_C@_0N@LDBKLJLF@Detector?5Kit@ 004cdbf4     Game.obj
 0002:00008c04       ??_C@_0BI@PADBBJKL@Energy?5Shield?5Generator@ 004cdc04     Game.obj
 0002:00008c1c       ??_C@_0BG@INHPHMJ@Grand?5Magic?5Generator@ 004cdc1c     Game.obj
 0002:00008c34       ??_C@_0L@EPBCBEPB@Mana?5Stone@ 004cdc34     Game.obj
 0002:00008c40       ??_C@_0BB@DBFFCALH@Light?5War?5Beetle@ 004cdc40     Game.obj
 0002:00008c54       ??_C@_0BC@HGLALOAM@God?8s?5Hand?5Knight@ 004cdc54     Game.obj
 0002:00008c68       ??_C@_0O@CEAPGFOA@Temple?5Knight@ 004cdc68     Game.obj
 0002:00008c78       ??_C@_0N@CEJFNCEI@Battle?5Golem@ 004cdc78     Game.obj
 0002:00008c88       ??_C@_0L@MDOPBEND@Tiger?5Worm@ 004cdc88     Game.obj
 0002:00008c94       ??_C@_08IFFAHJHG@Gargoyle@ 004cdc94     Game.obj
 0002:00008ca0       ??_C@_06GLPJFDBI@Rabbit@   004cdca0     Game.obj
 0002:00008ca8       ??_C@_04EGGPLMGB@Frog@     004cdca8     Game.obj
 0002:00008cb0       ??_C@_0P@CEBFKJLE@Mountain?5Giant@ 004cdcb0     Game.obj
 0002:00008cc0       ??_C@_05JEPBAGFJ@Plant@    004cdcc0     Game.obj
 0002:00008cc8       ??_C@_08KCEJCEDK@Direboar@ 004cdcc8     Game.obj
 0002:00008cd4       ??_C@_05GKIPIJCM@Frost@    004cdcd4     Game.obj
 0002:00008cdc       ??_C@_0L@JOHKHHPO@WaterMelon@ 004cdcdc     Game.obj
 0002:00008ce8       ??_C@_06NLKDIEFG@Garlic@   004cdce8     Game.obj
 0002:00008cf0       ??_C@_06DAKMKIEO@Barley@   004cdcf0     Game.obj
 0002:00008cf8       ??_C@_06JOCEHIMN@Carrot@   004cdcf8     Game.obj
 0002:00008d00       ??_C@_06MEHOFKEC@Radish@   004cdd00     Game.obj
 0002:00008d08       ??_C@_04OJMADHDJ@Corn@     004cdd08     Game.obj
 0002:00008d10       ??_C@_0BE@FJDFDJKO@Chinese?5Bell?5Flower@ 004cdd10     Game.obj
 0002:00008d24       ??_C@_06HKDCKOAA@Melone@   004cdd24     Game.obj
 0002:00008d2c       ??_C@_06BPAOMENE@Tomato@   004cdd2c     Game.obj
 0002:00008d34       ??_C@_06CALGBKCD@Grapes@   004cdd34     Game.obj
 0002:00008d3c       ??_C@_0L@GCKLPFLF@Blue?5Grape@ 004cdd3c     Game.obj
 0002:00008d48       ??_C@_08JIDDBKHJ@Mushroom@ 004cdd48     Game.obj
 0002:00008d54       ??_C@_09KKACBPBD@Ice?5Golem@ 004cdd54     Game.obj
 0002:00008d60       ??_C@_08FBLBJKHJ@Mcgaffin@ 004cdd60     Game.obj
 0002:00008d6c       ??_C@_06COGLIGFC@Dragon@   004cdd6c     Game.obj
 0002:00008d74       ??_C@_0M@HIPFIDHP@Claw?5Turtle@ 004cdd74     Game.obj
 0002:00008d80       ??_C@_0M@HBONBDFM@Fire?5Wyvern@ 004cdd80     Game.obj
 0002:00008d8c       ??_C@_0P@OLLENJMP@Giant?5Crayfish@ 004cdd8c     Game.obj
 0002:00008d9c       ??_C@_0N@EFIPMOKJ@Giant?5Lizard@ 004cdd9c     Game.obj
 0002:00008dac       ??_C@_0L@INDICMJA@Giant?5Tree@ 004cddac     Game.obj
 0002:00008db8       ??_C@_0BA@EELDKGLG@Master?5Mage?5Orc@ 004cddb8     Game.obj
 0002:00008dc8       ??_C@_08BLFPFJAA@Minotaur@ 004cddc8     Game.obj
 0002:00008dd4       ??_C@_0BG@LHBNPDEA@Ancient?5Temple?5Knight@ 004cddd4     Game.obj
 0002:00008dec       ??_C@_0L@MBPNPCBF@Elf?5Master@ 004cddec     Game.obj
 0002:00008df8       ??_C@_0BD@IIFHGNKB@Dark?5Shadow?5Knight@ 004cddf8     Game.obj
 0002:00008e0c       ??_C@_0BC@DKHLOJOD@Heavy?5Battle?5Tank@ 004cde0c     Game.obj
 0002:00008e20       ??_C@_0BA@LKHFGGBH@Crossbow?5Turret@ 004cde20     Game.obj
 0002:00008e30       ??_C@_09ILIBCODF@Barbarian@ 004cde30     Game.obj
 0002:00008e3c       ??_C@_0BF@GHOPPIBN@Ancient?5Giant?5Cannon@ 004cde3c     Game.obj
 0002:00008e54       ??_C@_0O@JPOMAIKJ@Air?5Elemental@ 004cde54     Game.obj
 0002:00008e64       ??_C@_0P@FDGHIEHL@The_Devastator@ 004cde64     Game.obj
 0002:00008e74       ??_C@_0P@IHIOLANF@5thAnniversary@ 004cde74     Game.obj
 0002:00008e84       ??_C@_0O@JNJEKPBK@MagicNecklace@ 004cde84     Game.obj
 0002:00008e94       ??_C@_0BE@GKEAKLMG@MagicWand?$CIM?4Shield?$CJ@ 004cde94     Game.obj
 0002:00008ea8       ??_C@_0BE@GIJOLAJA@MagicWand?$CIMS30?9LLF?$CJ@ 004cdea8     Game.obj
 0002:00008ebc       ??_C@_0M@IJNNNLEA@BerserkWand@ 004cdebc     Game.obj
 0002:00008ec8       ??_C@_0BE@LOIBGPCI@ZemstoneofSacrifice@ 004cdec8     Game.obj
 0002:00008edc       ??_C@_0M@PBALPCLI@EmeraldRing@ 004cdedc     Game.obj
 0002:00008ee8       ??_C@_0N@LAKLMPOE@Purity?3?5?$CFd?$CF?$CF@ 004cdee8     Game.obj
 0002:00008ef8       ??_C@_0BB@LKJNLPEJ@Completion?3?5?$CFd?$CF?$CF@ 004cdef8     Game.obj
 0002:00008f0c       ??_C@_05OPEIBKFE@?$CFd?5?$CFs@ 004cdf0c     Game.obj
 0002:00008f14       ??_C@_09MGJEFKFO@Critical?5@ 004cdf14     Game.obj
 0002:00008f20       ??_C@_0L@MGPCFDGL@Poisoning?5@ 004cdf20     Game.obj
 0002:00008f2c       ??_C@_0L@GGPKHKGH@Righteous?5@ 004cdf2c     Game.obj
 0002:00008f38       ??_C@_06KLFEBBEA@Agile?5@  004cdf38     Game.obj
 0002:00008f40       ??_C@_06NNDPPBIB@Light?5@  004cdf40     Game.obj
 0002:00008f48       ??_C@_06DABICEIE@Sharp?5@  004cdf48     Game.obj
 0002:00008f50       ??_C@_08MMIMNKFF@Ancient?5@ 004cdf50     Game.obj
 0002:00008f5c       ??_C@_08GKGGIKHI@Special?5@ 004cdf5c     Game.obj
 0002:00008f68       ??_C@_0BB@MPOOGJON@Mana?5Converting?5@ 004cdf68     Game.obj
 0002:00008f7c       ??_C@_0BH@NFHIHMPP@Critical?5Hit?5Damage?$CL?$CFd@ 004cdf7c     Game.obj
 0002:00008f94       ??_C@_0BB@LBPDOGIA@Poison?5Damage?$CL?$CFd@ 004cdf94     Game.obj
 0002:00008fa8       ??_C@_0BA@MAECOF@Attack?5Speed?5?91@ 004cdfa8     Game.obj
 0002:00008fb8       ??_C@_0L@ENIAGIAD@?$CFd?$CF?$CF?5light@ 004cdfb8     Game.obj
 0002:00008fc4       ??_C@_0N@KAEKGHDG@Damage?5added@ 004cdfc4     Game.obj
 0002:00008fd4       ??_C@_0BA@HIKCCEDO@Endurance?5?$CL?$CFd?$CF?$CF@ 004cdfd4     Game.obj
 0002:00008fe4       ??_C@_0BD@KBFGCKBI@Extra?5Damage?5added@ 004cdfe4     Game.obj
 0002:00008ff8       ??_C@_0BP@IDCEIJFM@Magic?5Casting?5Probability?$CL?$CFd?$CF?$CF@ 004cdff8     Game.obj
 0002:00009018       ??_C@_0BM@DGHFIPEB@Replace?5?$CFd?$CF?$CF?5damage?5to?5mana@ 004ce018     Game.obj
 0002:00009034       ??_C@_0BK@IMHILCMK@Crit?5Increase?5Chance?5?$CFd?$CF?$CF@ 004ce034     Game.obj
 0002:00009050       ??_C@_0BH@EBICEPAI@Poison?5Resistance?$CL?$CFd?$CF?$CF@ 004ce050     Game.obj
 0002:00009068       ??_C@_0BH@LJCJIGCG@Hitting?5Probability?$CL?$CFd@ 004ce068     Game.obj
 0002:00009080       ??_C@_0BB@NOJMFBIJ@Defense?5Ratio?$CL?$CFd@ 004ce080     Game.obj
 0002:00009094       ??_C@_0BB@FPHNLDKK@HP?5recovery?5?$CFd?$CF?$CF@ 004ce094     Game.obj
 0002:000090a8       ??_C@_0BB@PNKGDOMN@SP?5recovery?5?$CFd?$CF?$CF@ 004ce0a8     Game.obj
 0002:000090bc       ??_C@_0BB@KLNDFPCG@MP?5recovery?5?$CFd?$CF?$CF@ 004ce0bc     Game.obj
 0002:000090d0       ??_C@_0BG@NMNCJDGB@Magic?5Resistance?$CL?$CFd?$CF?$CF@ 004ce0d0     Game.obj
 0002:000090e8       ??_C@_0BJ@LILMGOKI@Physical?5Absorption?$CL?$CFd?$CF?$CF@ 004ce0e8     Game.obj
 0002:00009104       ??_C@_0BG@PDOLJAPH@Magic?5Absorption?$CL?$CFd?$CF?$CF@ 004ce104     Game.obj
 0002:0000911c       ??_C@_0BN@PFNKGKCE@Consecutive?5Attack?5Damage?$CL?$CFd@ 004ce11c     Game.obj
 0002:0000913c       ??_C@_0BA@LGBDNEJC@Experience?$CL?$CFd?$CF?$CF@ 004ce13c     Game.obj
 0002:0000914c       ??_C@_09BNAPHJBO@Gold?$CL?$CFd?$CF?$CF@ 004ce14c     Game.obj
 0002:00009158       ??_C@_05OPAKFCFB@?$CFs?$CL?$CFd@ 004ce158     Game.obj
 0002:00009160       ??_C@_03JGJPCCHE@?$CL?$CFd@ 004ce160     Game.obj
 0002:00009168       ??_C@_0EM@HIGNJBP@A?5character?5for?5party?5member?5ha@ 004ce168     Game.obj
 0002:000091b4       ??_C@_0DN@JBPMOKAA@You?5can?5not?5give?5or?5drop?5before@ 004ce1b4     Game.obj
 0002:000091f4       ??_C@_0CI@MEFJDLFN@You?5can?5not?5give?5the?5item?5to?5yo@ 004ce1f4     Game.obj
 0002:0000921c       ??_C@_0DE@PECOFNG@You?5can?5not?5see?5more?5than?512?5it@ 004ce21c     Game.obj
 0002:00009250       ??_C@_0CL@NICPFDBH@There?5is?5no?5empty?5space?5left?5in@ 004ce250     Game.obj
 0002:0000927c       ??_C@_0BK@LAPMICEJ@Too?5far?5to?5give?5the?5Item?4@ 004ce27c     Game.obj
 0002:00009298       ??_C@_0CH@FJBEBMLM@The?5quantity?5you?5enter?5is?5not?5c@ 004ce298     Game.obj
 0002:000092c0       ??_C@_0CO@BPHAJOGP@You?5entered?5more?5quantity?5that?5@ 004ce2c0     Game.obj
 0002:000092f0       ??_C@_06GBEGMGE@?$CFs?3?5?$CFd@ 004ce2f0     Game.obj
 0002:000092f8       ??_C@_0BL@KNKHCOLJ@Available?5for?5above?5Str?5?$CFd@ 004ce2f8     Game.obj
 0002:00009314       ??_C@_0BB@EAEJIIFB@Endurance?3?5?$CFd?1?$CFd@ 004ce314     Game.obj
 0002:00009328       ??_C@_0L@PCPDILKC@Total?5?3?5?$CFd@ 004ce328     Game.obj
 0002:00009334       ??_C@_0BD@OENEDELG@Aresden?5Flags?5?3?5?$CFd@ 004ce334     Game.obj
 0002:00009348       ??_C@_0CE@OGGMKBGD@Aresden?8s?5rest?5building?5number?5@ 004ce348     Game.obj
 0002:0000936c       ??_C@_0CD@LNKPNGEO@Elvine?8s?5rest?5building?5number?5?3@ 004ce36c     Game.obj
 0002:00009390       ??_C@_0BB@EEJNELLO@Logging?5out?4?4?4?$CFd@ 004ce390     Game.obj
 0002:000093a4       ??_C@_0BF@CGPGCKI@Restarting?5game?4?4?4?$CFd@ 004ce3a4     Game.obj
 0002:000093bc       ??_C@_08DEEHGINO@fps?5?3?5?$CFd@ 004ce3bc     Game.obj
 0002:000093c8       ??_C@_0BA@EONFJCMD@music?2Carol?4wav@ 004ce3c8     Game.obj
 0002:000093d8       ??_C@_0BC@FBBBEKJG@music?2aresden?4wav@ 004ce3d8     Game.obj
 0002:000093ec       ??_C@_0BB@NAAKPFMN@music?2elvine?4wav@ 004ce3ec     Game.obj
 0002:00009400       ??_C@_0BC@IBJPJPFP@music?2dungeon?4wav@ 004ce400     Game.obj
 0002:00009414       ??_C@_0BF@FICJACJJ@music?2middleland?4wav@ 004ce414     Game.obj
 0002:0000942c       ??_C@_0BF@JPNFIMNJ@music?2druncncity?4wav@ 004ce42c     Game.obj
 0002:00009444       ??_C@_0BC@JKNNFONB@music?2abaddon?4wav@ 004ce444     Game.obj
 0002:00009458       ??_C@_0BB@IAFHOMCH@music?2MainTm?4wav@ 004ce458     Game.obj
 0002:0000946c       ??_C@_0CD@GIPGIFMN@HP?5has?5been?5decreased?5by?5?$CFdpoin@ 004ce46c     Game.obj
 0002:00009490       ??_C@_0DJ@JLPBHJMJ@Logout?5count?5cancels?5if?5HP?5decr@ 004ce490     Game.obj
 0002:000094cc       ??_C@_0CD@HDFLAGOM@HP?5has?5been?5increased?5by?5?$CFdpoin@ 004ce4cc     Game.obj
 0002:000094f0       ??_C@_0CL@OPLDMIJH@Network?5Traffic?1Lag?4?5Please?5wai@ 004ce4f0     Game.obj
 0002:0000951c       ??_C@_06GLMNNIMO@?9?$CFdPts@ 004ce51c     Game.obj
 0002:00009524       ??_C@_09NPIPGLBP@Critical?$CB@ 004ce524     Game.obj
 0002:00009530       ??_C@_03JDHPLMAF@?$CFs?$CB@ 004ce530     Game.obj
 0002:00009534       ??_C@_0BD@EOCKFGDC@Taking?5back?5items?4@ 004ce534     Game.obj
 0002:00009548       ??_C@_0CH@OPBGCJKB@Please?5wait?5until?5process?5is?5fi@ 004ce548     Game.obj
 0002:00009570       ??_C@_0CI@GBCDAFKB@Either?5drag?5an?5item?5to?5restore?5@ 004ce570     Game.obj
 0002:00009598       ??_C@_0CK@DCCENJHN@or?5click?5an?5item?5to?5take?5out?5on@ 004ce598     Game.obj
 0002:000095c4       ??_C@_0BO@GMOPKPL@item?5to?5take?5out?5on?5the?5list?4@ 004ce5c4     Game.obj
 0002:000095e4       ??_C@_03MCPBMLDJ@?5?3?5@   004ce5e4     Game.obj
 0002:000095e8       ??_C@_0O@GEOCCBKL@Criminal?5?$CI?$CFd?$CJ@ 004ce5e8     Game.obj
 0002:000095f8       ??_C@_0BC@JGFJMDKK@Contribution?5?$CI?$CFd?$CJ@ 004ce5f8     Game.obj
 0002:0000960c       ??_C@_01ODHLEDKK@?$CI@     004ce60c     Game.obj
 0002:00009610       ??_C@_0O@IGPKOMKD@?5Guildmaster?$CJ@ 004ce610     Game.obj
 0002:00009620       ??_C@_0M@BCPEGPBB@?5Guildsman?$CJ@ 004ce620     Game.obj
 0002:0000962c       ??_C@_0CD@OKFHENKI@When?5level?5up?0?5your?5specific?5st@ 004ce62c     Game.obj
 0002:00009650       ??_C@_0BO@DNKENFKK@will?5be?5increased?5by?5setting?4@ 004ce650     Game.obj
 0002:00009670       ??_C@_0P@LLKMCDDO@?$CK?5Points?5left?3@ 004ce670     Game.obj
 0002:00009680       ??_C@_0BF@DDGMCMFC@Citizenship?5request?4@ 004ce680     Game.obj
 0002:00009698       ??_C@_0BF@DBIHFEDA@Take?5the?5Prize?5Gold?4@ 004ce698     Game.obj
 0002:000096b0       ??_C@_0BH@MOLNJJOG@Take?5the?5HERO?8s?5items?4@ 004ce6b0     Game.obj
 0002:000096c8       ??_C@_0BC@DPIJIPIE@Cancel?5the?5Quest?4@ 004ce6c8     Game.obj
 0002:000096dc       ??_C@_0BG@KFGFHEPO@Change?5the?5play?5mode?4@ 004ce6dc     Game.obj
 0002:000096f4       ??_C@_0CA@JDCMJHHB@Teleporting?5to?5dungeon?5level?52?4@ 004ce6f4     Game.obj
 0002:00009714       ??_C@_0BO@IJCCAOKL@Change?5the?5part?5of?5total?5war?4@ 004ce714     Game.obj
 0002:00009734       ??_C@_0BJ@JDKIIEFK@Select?5an?5Item?5you?5want?4@ 004ce734     Game.obj
 0002:00009750       ??_C@_0CD@HPGIEHJI@If?5you?5become?5a?5citizen?0?5the?5le@ 004ce750     Game.obj
 0002:00009774       ??_C@_0CH@PKNKEOFA@restriction?5as?5a?5traveller?5is?5r@ 004ce774     Game.obj
 0002:0000979c       ??_C@_0CG@CBHIKFFE@You?5can?5buy?5and?5sell?5almost?5all@ 004ce79c     Game.obj
 0002:000097c4       ??_C@_0CF@BNLIKMIL@which?5are?5produced?5in?5town?4?5Als@ 004ce7c4     Game.obj
 0002:000097ec       ??_C@_0CH@HIHDPOLK@repelling?5enemies?5of?5opposing?5c@ 004ce7ec     Game.obj
 0002:00009814       ??_C@_0CB@LLJGBDMK@can?5get?5prize?5gold?4?5You?5can?5als@ 004ce814     Game.obj
 0002:00009838       ??_C@_0BB@MHENDDFB@join?5any?5guilds?4@ 004ce838     Game.obj
 0002:0000984c       ??_C@_0BH@DDFGCCKI@Would?5you?5do?5your?5duty@ 004ce84c     Game.obj
 0002:00009864       ??_C@_0BI@GNPFPAHB@and?5responsibility?5as?5a@ 004ce864     Game.obj
 0002:0000987c       ??_C@_0BF@DMHNBBPB@citizen?5of?5our?5town?$DP@ 004ce87c     Game.obj
 0002:00009894       ??_C@_0BI@BLJKCJLJ@Offering?5Citizenship?4?4?4@ 004ce894     Game.obj
 0002:000098ac       ??_C@_0CL@LHMKCGLD@Congratulations?$CB?$CB?5You?5acquired?5@ 004ce8ac     Game.obj
 0002:000098d8       ??_C@_0CB@DHILJBMO@Failed?5on?5acquiring?5citizenship@ 004ce8d8     Game.obj
 0002:000098fc       ??_C@_0CA@DNKKMGMM@Low?5Level?5or?5Criminal?5Character@ 004ce8fc     Game.obj
 0002:0000991c       ??_C@_0BD@GNNKFCJL@can?8t?5be?5a?5citizen@ 004ce91c     Game.obj
 0002:00009930       ??_C@_0BI@HEHKPPLF@The?5prize?5gold?5for?5your@ 004ce930     Game.obj
 0002:00009948       ??_C@_0BK@NOPLKHLO@activities?5is?5?$CFd?5Gold?4?5Do@ 004ce948     Game.obj
 0002:00009964       ??_C@_0BO@JECBHMJI@you?5wish?5to?5receive?5this?5now?$DP@ 004ce964     Game.obj
 0002:00009984       ??_C@_0CG@CNNBLOEG@Here?5are?5the?5available?5HERO?8s?5i@ 004ce984     Game.obj
 0002:000099ac       ??_C@_0BG@GJJCCHDJ@Do?5you?5want?5to?5cancel@ 004ce9ac     Game.obj
 0002:000099c4       ??_C@_0P@IPGAHMCK@current?5quest?$DP@ 004ce9c4     Game.obj
 0002:000099d4       ??_C@_0BJ@DLBKMPLA@?$CKYou?5are?5a?5civilian?5now?$CK@ 004ce9d4     Game.obj
 0002:000099f0       ??_C@_0BK@EJAKJJGO@?$CKYou?5are?5a?5combatant?5now?$CK@ 004ce9f0     Game.obj
 0002:00009a0c       ??_C@_0CL@BFBCOGPL@?$CICivilian?5mode?5keeps?5you?5safe?5e@ 004cea0c     Game.obj
 0002:00009a38       ??_C@_09OCEHPPNM@Civilian?3@ 004cea38     Game.obj
 0002:00009a44       ??_C@_0BM@JAGMNIED@You?5are?5safe?5from?5enemy?5and@ 004cea44     Game.obj
 0002:00009a60       ??_C@_0BL@FMNIPHMC@able?5to?5level?5up?5in?5peace?4@ 004cea60     Game.obj
 0002:00009a7c       ??_C@_0L@HAFEGHIL@Combatant?3@ 004cea7c     Game.obj
 0002:00009a88       ??_C@_0BM@FBMHKIDM@You?8re?5not?5safe?5from?5enemy?4@ 004cea88     Game.obj
 0002:00009aa4       ??_C@_0BI@FKKLCBAC@You?5cannot?5be?5protected@ 004ceaa4     Game.obj
 0002:00009abc       ??_C@_0BD@OKINIDHA@in?5Combatant?5mode?4@ 004ceabc     Game.obj
 0002:00009ad0       ??_C@_0CE@KIANHCBJ@Would?5you?5like?5to?5change?5play?5m@ 004cead0     Game.obj
 0002:00009af4       ??_C@_0BF@GIAHDFCG@5000Gold?5is?5required@ 004ceaf4     Game.obj
 0002:00009b0c       ??_C@_0CA@PADFKDLH@to?5teleport?5to?5dungeon?5level?52?4@ 004ceb0c     Game.obj
 0002:00009b2c       ??_C@_0BM@BFHDHAOP@Would?5you?5like?5to?5teleport?$DP@ 004ceb2c     Game.obj
 0002:00009b48       ??_C@_0BP@DBDONNNA@Civilians?5cannot?5go?5some?5area?4@ 004ceb48     Game.obj
 0002:00009b68       ??_C@_0BG@NBPJLKJB@Map?5Name?3?$CFs?5Cost?5?3?5?$CFd@ 004ceb68     Game.obj
 0002:00009b80       ??_C@_0CF@ELMAHPNH@Now?5it?8s?5searching?5for?5possible@ 004ceb80     Game.obj
 0002:00009ba8       ??_C@_0N@GIIJKIJE@to?5teleport?4@ 004ceba8     Game.obj
 0002:00009bb8       ??_C@_0BK@DMFAEMMD@Please?5wait?5for?5a?5moment?4@ 004cebb8     Game.obj
 0002:00009bd4       ??_C@_0CI@LFEHMMCE@There?5is?5no?5area?5that?5you?5can?5t@ 004cebd4     Game.obj
 0002:00009bfc       ??_C@_0CF@INJMBLND@Would?5you?5like?5to?5receive?5this?5@ 004cebfc     Game.obj
 0002:00009c24       ??_C@_0CA@ENLEACGB@Do?5you?5really?5want?5to?5exchange?$DP@ 004cec24     Game.obj
 0002:00009c44       ??_C@_0BI@MJGFKKAC@Waiting?5for?5response?4?4?4@ 004cec44     Game.obj
 0002:00009c5c       ??_C@_0N@OEFPHIJP@Quantity?3?5?$CFd@ 004cec5c     Game.obj
 0002:00009c6c       ??_C@_0CH@BBAHOCMO@Please?5wait?5until?5other?5player?5@ 004cec6c     Game.obj
 0002:00009c94       ??_C@_0CH@DGCECIFB@to?5exchange?4?5If?5you?5want?5to?5can@ 004cec94     Game.obj
 0002:00009cbc       ??_C@_0CG@HJDOCPCC@exchange?5press?5the?5CANCEL?5butto@ 004cecbc     Game.obj
 0002:00009ce4       ??_C@_08IGAGGAPJ@Exchange@ 004cece4     Game.obj
 0002:00009cf0       ??_C@_0CG@BOIEEHLN@Other?5player?5offered?5an?5item?5ex@ 004cecf0     Game.obj
 0002:00009d18       ??_C@_0CG@LGICCLGG@Select?5an?5item?5which?5you?5want?5t@ 004ced18     Game.obj
 0002:00009d40       ??_C@_0CG@KHIBKIFH@hange?5with?5above?5item?0?5drag?5it?5@ 004ced40     Game.obj
 0002:00009d68       ??_C@_0CG@PICAPLLP@blank?5and?5press?5the?5EXCHANGE?5bu@ 004ced68     Game.obj
 0002:00009d90       ??_C@_0CG@GICCDJLK@And?5you?5can?5also?5reject?5an?5offe@ 004ced90     Game.obj
 0002:00009db8       ??_C@_0BM@HFHABPPN@pressing?5the?5CANCEL?5button?4@ 004cedb8     Game.obj
 0002:00009dd4       ??_C@_0CC@LJJJGALC@The?5preparation?5for?5item?5exchan@ 004cedd4     Game.obj
 0002:00009df8       ??_C@_0CG@GFGEINEF@has?5been?5finished?4?5Press?5the?5EX@ 004cedf8     Game.obj
 0002:00009e20       ??_C@_0CH@FOMPFIGJ@button?5to?5exchange?5as?5above?4?5Pr@ 004cee20     Game.obj
 0002:00009e48       ??_C@_0CG@BFMMELGE@CANCEL?5button?5to?5cancel?4?5Occasi@ 004cee48     Game.obj
 0002:00009e70       ??_C@_0CI@GICEBABC@when?5you?5press?5the?5EXCHANGE?5but@ 004cee70     Game.obj
 0002:00009e98       ??_C@_0CJ@FIENLMIB@will?5not?5be?5able?5to?5cancel?5the?5@ 004cee98     Game.obj
 0002:00009ec4       ??_C@_06FMBNCPDL@Cancel@   004ceec4     Game.obj
 0002:00009ecc       ??_C@_0BP@LGMOIAPJ@Please?5wait?5until?5?$CFs?5agrees?5to@ 004ceecc     Game.obj
 0002:00009eec       ??_C@_0CJ@LEAFDCCE@exchange?4?5The?5exchange?5can?8t?5be@ 004ceeec     Game.obj
 0002:00009f18       ??_C@_0BK@EAMBBKH@unless?5both?5people?5agree?4@ 004cef18     Game.obj
 0002:00009f34       ??_C@_0CN@HICEMEKI@?5If?5other?5player?5does?5not?5decid@ 004cef34     Game.obj
 0002:00009f64       ??_C@_0CM@JAOFGLEE@you?5can?5cancel?5the?5exchange?5by?5@ 004cef64     Game.obj
 0002:00009f90       ??_C@_0CL@FMNANPBI@CANCEL?5button?4?5But?5if?5other?5pla@ 004cef90     Game.obj
 0002:00009fbc       ??_C@_0CO@EIBIHAAN@decided?5to?5exchange?0?5you?5can?8t?5@ 004cefbc     Game.obj
 0002:00009fec       ??_C@_0P@GBJHGDPH@Value?3?5?$CFd?5Gold@ 004cefec     Game.obj
 0002:00009ffc       ??_C@_0N@JBHGHMLD@Probability?3@ 004ceffc     Game.obj
 0002:0000a00c       ??_C@_05DKJOAIG@?$CFd?5?$CF?$CF@ 004cf00c     Game.obj
 0002:0000a014       ??_C@_08PPMGJHED@Try?5Now?$CB@ 004cf014     Game.obj
 0002:0000a020       ??_C@_0BB@GOCDBHKA@Make?5a?5new?5guild@ 004cf020     Game.obj
 0002:0000a034       ??_C@_0BE@MPIMKMHG@Break?5up?5your?5guild@ 004cf034     Game.obj
 0002:0000a048       ??_C@_0BN@KMBNGPCN@Buy?5a?5guild?5admission?5ticket@ 004cf048     Game.obj
 0002:0000a068       ??_C@_0BO@CODEOJ@Buy?5a?5guild?5withdrawal?5ticket@ 004cf068     Game.obj
 0002:0000a088       ??_C@_0BC@BDHNDFIG@Reserve?5the?5arena@ 004cf088     Game.obj
 0002:0000a09c       ??_C@_0BH@BKIINONO@Get?5an?5entrance?5ticket@ 004cf09c     Game.obj
 0002:0000a0b4       ??_C@_0BL@EMLLNOHF@?$CK?5Select?5an?5Item?5you?5want?4@ 004cf0b4     Game.obj
 0002:0000a0d0       ??_C@_0BH@PFOFEDHC@Enter?5a?5new?5guild?5name@ 004cf0d0     Game.obj
 0002:0000a0e8       ??_C@_0BF@EDGMJADI@____________________@ 004cf0e8     Game.obj
 0002:0000a100       ??_C@_0BG@MDJGAAIH@Making?5a?5new?5guild?4?4?4@ 004cf100     Game.obj
 0002:0000a118       ??_C@_0BG@MBIGHAHA@A?5new?5guild?5was?5made?4@ 004cf118     Game.obj
 0002:0000a130       ??_C@_0BH@DGJOMMML@You?5are?5a?5GuildMaster?4@ 004cf130     Game.obj
 0002:0000a148       ??_C@_0BO@KHICOFPE@Failed?5on?5making?5a?5new?5guild?4@ 004cf148     Game.obj
 0002:0000a168       ??_C@_0BL@GAHJIPNC@Guild?5name?5already?5exists?4@ 004cf168     Game.obj
 0002:0000a184       ??_C@_0BC@CJCJCPAB@Guild?5dismission?3@ 004cf184     Game.obj
 0002:0000a198       ??_C@_0CB@FCGBLIHC@Break?5up?5your?5guild?4?5Your?5auth?9@ 004cf198     Game.obj
 0002:0000a1bc       ??_C@_0CA@POOAGCBA@orization?5as?5a?5GuildMaster?5will@ 004cf1bc     Game.obj
 0002:0000a1dc       ??_C@_0CA@JNKPLLCG@be?5lost?4?5And?5your?5guild?5members@ 004cf1dc     Game.obj
 0002:0000a1fc       ??_C@_0CB@OHKFMCKH@will?5be?5dismissed?5automatically@ 004cf1fc     Game.obj
 0002:0000a220       ??_C@_0BJ@ELPJNFMO@Breaking?5up?5the?5guild?4?4?4@ 004cf220     Game.obj
 0002:0000a23c       ??_C@_0BO@FLHCMGMH@Your?5guild?5has?5been?5dismissed@ 004cf23c     Game.obj
 0002:0000a25c       ??_C@_0BP@EKLGOPOI@Failed?5on?5dismission?5of?5guild?4@ 004cf25c     Game.obj
 0002:0000a27c       ??_C@_0CG@JMGPFFMB@The?5price?5for?5the?5guild?5joining@ 004cf27c     Game.obj
 0002:0000a2a4       ??_C@_0CH@EBAKOEPD@paper?5is?550Gold?4?5Give?5it?5to?5the@ 004cf2a4     Game.obj
 0002:0000a2cc       ??_C@_0CH@GMHPJAHI@of?5the?5guild?5you?5want?5to?5join?4?5@ 004cf2cc     Game.obj
 0002:0000a2f4       ??_C@_0BI@EPLDEEJE@decide?5to?5your?5joining?4@ 004cf2f4     Game.obj
 0002:0000a30c       ??_C@_0BE@FBFIMMOH@Do?5you?5want?5to?5buy?$DP@ 004cf30c     Game.obj
 0002:0000a320       ??_C@_0CE@ONGFJELM@You?5bought?5the?5guild?5joining?5pa@ 004cf320     Game.obj
 0002:0000a344       ??_C@_0CC@JMBDINK@The?5price?5for?5the?5guild?5secessi@ 004cf344     Game.obj
 0002:0000a368       ??_C@_0BD@HAEMHAOO@to?5your?5secession?4@ 004cf368     Game.obj
 0002:0000a37c       ??_C@_0CE@BIPGMDBC@You?5bought?5a?5guild?5secession?5pa@ 004cf37c     Game.obj
 0002:0000a3a0       ??_C@_0BK@LIGHODJ@It?5takes?51500gold?5to?5make@ 004cf3a0     Game.obj
 0002:0000a3bc       ??_C@_0BI@BENGBAJA@a?5reservation?5of?5arena?4@ 004cf3bc     Game.obj
 0002:0000a3d4       ??_C@_0BJ@ODLGPGFH@Click?5the?5arena?5that?5you@ 004cf3d4     Game.obj
 0002:0000a3f0       ??_C@_0BK@KBKDEMLC@want?5to?5reserve?4?5You?5will@ 004cf3f0     Game.obj
 0002:0000a40c       ??_C@_0BL@CABDCDNK@be?5able?5to?5get?550?5tickets?0@ 004cf40c     Game.obj
 0002:0000a428       ??_C@_0BK@HNEFGLBC@and?5you?5can?5use?5arena?5for@ 004cf428     Game.obj
 0002:0000a444       ??_C@_08MAIAGND@2?5hours?4@ 004cf444     Game.obj
 0002:0000a450       ??_C@_0BI@IGHICMJM@You?5reserved?5the?5arena?4@ 004cf450     Game.obj
 0002:0000a468       ??_C@_0BK@GDCPLMLL@You?5can?5not?5reserve?5other@ 004cf468     Game.obj
 0002:0000a484       ??_C@_06MBIBBLCM@arena?4@  004cf484     Game.obj
 0002:0000a48c       ??_C@_0CP@PIGFEJBD@This?5is?5not?5the?5available?5time?5@ 004cf48c     Game.obj
 0002:0000a4bc       ??_C@_0BL@HFIHFNIK@Please?5try?5it?5again?5later?4@ 004cf4bc     Game.obj
 0002:0000a4d8       ??_C@_0CE@PFCAPPBO@Selected?5arena?5is?5already?5reser@ 004cf4d8     Game.obj
 0002:0000a4fc       ??_C@_0BK@NPMMNKD@Please?5select?5other?5one?4?4@ 004cf4fc     Game.obj
 0002:0000a518       ??_C@_0CM@FGCFLNHG@You?5don?8t?5have?5enough?5gold?5for?5@ 004cf518     Game.obj
 0002:0000a544       ??_C@_0BG@LCADECNP@Reserving?5an?5arena?4?4?4@ 004cf544     Game.obj
 0002:0000a55c       ??_C@_0CD@CFFMOJEN@This?5arena?5is?5not?5available?5tod@ 004cf55c     Game.obj
 0002:0000a580       ??_C@_0BH@CFMAKHFH@Please?5try?5other?5one?4?4@ 004cf580     Game.obj
 0002:0000a598       ??_C@_0CG@HJKEKPNJ@Aresden?5can?5use?52?54?56?58?5arena?5i@ 004cf598     Game.obj
 0002:0000a5c0       ??_C@_0CE@LBAJNEFL@number?5day?4?5Elvine?5can?5use?51?53?5@ 004cf5c0     Game.obj
 0002:0000a5e4       ??_C@_0BD@FKFOEOBO@in?5odd?5number?5day?4@ 004cf5e4     Game.obj
 0002:0000a5f8       ??_C@_0CC@DCJPMONK@You?5already?5reserved?5other?5aren@ 004cf5f8     Game.obj
 0002:0000a61c       ??_C@_0BJ@LPEOLAKK@Guild?5admission?5request?3@ 004cf61c     Game.obj
 0002:0000a638       ??_C@_0CJ@PKKIEEH@?$CK?5This?5player?5wants?5to?5join?5you@ 004cf638     Game.obj
 0002:0000a664       ??_C@_0CH@JMIJCAKN@?5You?0Guildmaster?5can?5decide?5whe@ 004cf664     Game.obj
 0002:0000a68c       ??_C@_0CE@MKKIGJOK@?5he?5can?5withdraw?5from?5guild?5or?5@ 004cf68c     Game.obj
 0002:0000a6b0       ??_C@_0BB@EBENJOCB@Make?5a?5decision?4@ 004cf6b0     Game.obj
 0002:0000a6c4       ??_C@_0BL@HLLLOEOP@Guild?5withdrawing?5request?3@ 004cf6c4     Game.obj
 0002:0000a6e0       ??_C@_0CK@HFJHMBMP@?$CK?5This?5player?5wants?5to?5withdraw@ 004cf6e0     Game.obj
 0002:0000a70c       ??_C@_0BP@JPFIANDD@approval?5of?5joining?5the?5guild?3@ 004cf70c     Game.obj
 0002:0000a72c       ??_C@_0CC@GHIAHCFA@?$CK?5Your?5guild?5master?5approved?5yo@ 004cf72c     Game.obj
 0002:0000a750       ??_C@_0CC@LKDBGKOJ@submit?4?5You?5bacame?5the?5guildsma@ 004cf750     Game.obj
 0002:0000a774       ??_C@_0BK@KBAMAPAF@Joining?5the?5guild?5failed?3@ 004cf774     Game.obj
 0002:0000a790       ??_C@_0CA@OEOMMCMG@?$CK?5The?5Guildmaster?5of?5this?5guild@ 004cf790     Game.obj
 0002:0000a7b0       ??_C@_0BP@PDOAODHD@refused?5to?5accept?5your?5submit?4@ 004cf7b0     Game.obj
 0002:0000a7d0       ??_C@_0CI@MFOLBOCD@approval?5of?5withdrawing?5from?5th@ 004cf7d0     Game.obj
 0002:0000a7f8       ??_C@_0CF@NIPJHBID@You?5are?5not?5a?5guildsman?5anymore@ 004cf7f8     Game.obj
 0002:0000a820       ??_C@_0BG@EKJLFBOO@are?5a?5normal?5citizen?4@ 004cf820     Game.obj
 0002:0000a838       ??_C@_0BP@NBFMKMBC@Withdrawing?5from?5guild?5failed?3@ 004cf838     Game.obj
 0002:0000a858       ??_C@_0BM@OMDCJJBH@?$CK?5Your?5guild?5was?5dismissed?4@ 004cf858     Game.obj
 0002:0000a874       ??_C@_0CC@IMCLDMPN@You?5are?5not?5a?5guildsman?5any?5mor@ 004cf874     Game.obj
 0002:0000a898       ??_C@_0BO@EPJDILIK@And?5you?5are?5a?5normal?5citizen?4@ 004cf898     Game.obj
 0002:0000a8b8       ??_C@_0L@DKELPEJD@Circle?5One@ 004cf8b8     Game.obj
 0002:0000a8c4       ??_C@_0L@FEELFEHI@Circle?5Two@ 004cf8c4     Game.obj
 0002:0000a8d0       ??_C@_0N@JNLFCLGA@Circle?5Three@ 004cf8d0     Game.obj
 0002:0000a8e0       ??_C@_0M@NNLPDEBK@Circle?5Four@ 004cf8e0     Game.obj
 0002:0000a8ec       ??_C@_0M@PPBBFBAJ@Circle?5Five@ 004cf8ec     Game.obj
 0002:0000a8f8       ??_C@_0L@NKKHGGCN@Circle?5Six@ 004cf8f8     Game.obj
 0002:0000a904       ??_C@_0N@BELGJBPF@Circle?5Seven@ 004cf904     Game.obj
 0002:0000a914       ??_C@_0N@FEJJMEAA@Circle?5Eight@ 004cf914     Game.obj
 0002:0000a924       ??_C@_0M@NNFEOIAA@Circle?5Nine@ 004cf924     Game.obj
 0002:0000a930       ??_C@_0L@FCPCBCCH@Circle?5Ten@ 004cf930     Game.obj
 0002:0000a93c       ??_C@_03GOOLIKIF@?$CF3d@   004cf93c     Game.obj
 0002:0000a940       ??_C@_0CA@PFCDJEJC@You?5have?5not?5learned?5any?5magic?4@ 004cf940     Game.obj
 0002:0000a960       ??_C@_0CC@BMONIOKP@You?5can?5learn?5magic?5at?5the?5Wiza@ 004cf960     Game.obj
 0002:0000a984       ??_C@_0CA@HMLGBINI@Tower?5in?5town?4?5To?5learn?5a?5spell@ 004cf984     Game.obj
 0002:0000a9a4       ??_C@_0CC@DKBFBIBI@you?5need?5sufficient?5gold?5and?5IN@ 004cf9a4     Game.obj
 0002:0000a9c8       ??_C@_0BK@DPAALKEG@Casting?5Probability?3?5?$CFd?$CF?$CF@ 004cf9c8     Game.obj
 0002:0000a9e4       ??_C@_0L@GFLLJDMJ@Spell?5Name@ 004cf9e4     Game.obj
 0002:0000a9f0       ??_C@_03DBLNGNIM@Int@      004cf9f0     Game.obj
 0002:0000a9f4       ??_C@_04FICPKHNF@Cost@     004cf9f4     Game.obj
 0002:0000a9fc       ??_C@_0CI@OJFPLGEO@Select?5a?5magic?5which?5you?5want?5t@ 004cf9fc     Game.obj
 0002:0000aa24       ??_C@_0DA@BLDHMKKJ@?5GameServer?5will?5be?5shut?5down?5a@ 004cfa24     Game.obj
 0002:0000aa54       ??_C@_0CE@JAFLNKNH@?5GameServer?5will?5be?5shut?5down?5s@ 004cfa54     Game.obj
 0002:0000aa78       ??_C@_0CJ@IDDCCHPL@You?5have?5to?5logout?5now?5to?5save?5@ 004cfa78     Game.obj
 0002:0000aaa4       ??_C@_0CM@EIJMKCFE@safely?4?5After?5beginning?5of?5shut@ 004cfaa4     Game.obj
 0002:0000aad0       ??_C@_0CM@MMAHBNAN@data?5are?5not?5saved?5and?5the?5lost@ 004cfad0     Game.obj
 0002:0000aafc       ??_C@_0BO@PFMPPMG@be?5recovered?4?5So?5be?5careful?$CB?$CB@ 004cfafc     Game.obj
 0002:0000ab1c       ??_C@_0BL@KLKMGPGC@?5Shutdown?5has?5started?4?$CB?$CB?$CB?$CB@ 004cfb1c     Game.obj
 0002:0000ab38       ??_C@_0CL@HGFIAGON@Your?5connection?5will?5be?5lost?5au@ 004cfb38     Game.obj
 0002:0000ab64       ??_C@_0CK@HBMGLDJG@soon?4?5Don?8t?5drop?5items?5or?5give?5@ 004cfb64     Game.obj
 0002:0000ab90       ??_C@_0CK@DFJOPHF@people?4?5Data?5could?5be?5lost?4?5And@ 004cfb90     Game.obj
 0002:0000abbc       ??_C@_0BG@PLDBMJEK@cannot?5be?5recorvered?4@ 004cfbbc     Game.obj
 0002:0000abd4       ??_C@_0BI@LIHBCKC@Heldenian?5staff?5officer@ 004cfbd4     Game.obj
 0002:0000abec       ??_C@_05OLBJNOGI@Offer@    004cfbec     Game.obj
 0002:0000abf4       ??_C@_08LIAOPCMN@Withdraw@ 004cfbf4     Game.obj
 0002:0000ac00       ??_C@_05EIOEAGAH@Learn@    004cfc00     Game.obj
 0002:0000ac08       ??_C@_05IOPOMLGK@Trade@    004cfc08     Game.obj
 0002:0000ac10       ??_C@_04LABAHBKH@Talk@     004cfc10     Game.obj
 0002:0000ac18       ??_C@_08LCDAKNCA@?$CFd?5?$CFs?5to@ 004cfc18     Game.obj
 0002:0000ac24       ??_C@_04NNNGLPDC@Give@     004cfc24     Game.obj
 0002:0000ac2c       ??_C@_04MCBDKMCH@Sell@     004cfc2c     Game.obj
 0002:0000ac34       ??_C@_06KOKHNNIE@Repair@   004cfc34     Game.obj
 0002:0000ac3c       ??_C@_07ILBLCBLB@Deposit@  004cfc3c     Game.obj
 0002:0000ac44       ??_C@_0L@FNKOCFHN@Repair?5All@ 004cfc44     Game.obj
 0002:0000ac50       ??_C@_0O@MGILGJLM@Join?5a?5party?4@ 004cfc50     Game.obj
 0002:0000ac60       ??_C@_0BJ@LHPAHKKM@Withdraw?5from?5the?5party?4@ 004cfc60     Game.obj
 0002:0000ac7c       ??_C@_0BP@NMFLFDOG@See?5the?5list?5of?5party?5members?4@ 004cfc7c     Game.obj
 0002:0000ac9c       ??_C@_0BI@GGGILOBO@You?5are?5not?5in?5a?5party?4@ 004cfc9c     Game.obj
 0002:0000acb4       ??_C@_0BK@PAFGOAGI@You?5can?5make?5a?5party?5with@ 004cfcb4     Game.obj
 0002:0000acd0       ??_C@_0P@HLBEJOIH@other?5players?4@ 004cfcd0     Game.obj
 0002:0000ace0       ??_C@_0BM@KHHENKEA@You?5are?5in?5a?5party?4?5You?5can@ 004cfce0     Game.obj
 0002:0000acfc       ??_C@_0BL@LANGGKMH@withdraw?5from?5the?5party?5or@ 004cfcfc     Game.obj
 0002:0000ad18       ??_C@_0BP@NLNHEPIH@see?5the?5list?5of?5party?5members?4@ 004cfd18     Game.obj
 0002:0000ad38       ??_C@_0BC@LELBJCHP@?$CFs?5offered?5you?5to@ 004cfd38     Game.obj
 0002:0000ad4c       ??_C@_0BI@MDOEAAOF@join?5the?5party?4?5You?5can@ 004cfd4c     Game.obj
 0002:0000ad64       ??_C@_0BI@OFFFIFCI@share?5the?5experience?5by@ 004cfd64     Game.obj
 0002:0000ad7c       ??_C@_0BG@DKCFKNBE@the?5ratio?5of?5level?5if@ 004cfd7c     Game.obj
 0002:0000ad94       ??_C@_0BE@ICHMMELI@you?5join?5the?5party?4@ 004cfd94     Game.obj
 0002:0000ada8       ??_C@_0BO@GLEAIEDI@Would?5you?5like?5to?5join?5party?$DP@ 004cfda8     Game.obj
 0002:0000adc8       ??_C@_0BK@CBJEKBLI@Click?5the?5character?5which@ 004cfdc8     Game.obj
 0002:0000ade4       ??_C@_0BI@CNDPAKEN@you?5want?5to?5join?4?5Press@ 004cfde4     Game.obj
 0002:0000adfc       ??_C@_0BI@GEOLHIHJ@cancel?5button?5to?5cancel@ 004cfdfc     Game.obj
 0002:0000ae14       ??_C@_0BD@EKBAONMP@joining?5the?5party?4@ 004cfe14     Game.obj
 0002:0000ae28       ??_C@_0BA@EFAGMMNH@You?5asked?5?$CFs?5to@ 004cfe28     Game.obj
 0002:0000ae38       ??_C@_0BI@JEAJAJNH@join?5party?4?5Please?5wait@ 004cfe38     Game.obj
 0002:0000ae50       ??_C@_0BJ@PELBMALP@until?5he?5responds?4?5Press@ 004cfe50     Game.obj
 0002:0000ae6c       ??_C@_0O@KCKNHCJB@making?5party?4@ 004cfe6c     Game.obj
 0002:0000ae7c       ??_C@_0BD@BKGAHIKE@The?5character?5name@ 004cfe7c     Game.obj
 0002:0000ae90       ??_C@_0P@KMNPDJAN@of?5your?5party?4@ 004cfe90     Game.obj
 0002:0000aea0       ??_C@_0BM@BPMLHELM@withdrawing?5from?5the?5party?4@ 004cfea0     Game.obj
 0002:0000aebc       ??_C@_0BG@CDHEGGGP@Please?5wait?5a?5moment?4@ 004cfebc     Game.obj
 0002:0000aed4       ??_C@_0BN@KDMPDEGL@You?5withdrew?5from?5the?5party?4@ 004cfed4     Game.obj
 0002:0000aef4       ??_C@_0CG@BKFKFLPL@Failed?5in?5withdrawing?5from?5the?5@ 004cfef4     Game.obj
 0002:0000af1c       ??_C@_0BM@CLANNBGG@If?5you?5fail?5repeatedly?0?5you@ 004cff1c     Game.obj
 0002:0000af38       ??_C@_0BM@PEJJLFHI@can?5withdraw?5from?5the?5party@ 004cff38     Game.obj
 0002:0000af54       ??_C@_0BA@PHNECOIC@by?5logging?5out?4@ 004cff54     Game.obj
 0002:0000af64       ??_C@_0BG@NJEOFDNJ@You?5joined?5the?5party?4@ 004cff64     Game.obj
 0002:0000af7c       ??_C@_0BN@EHCBLAIG@You?5can?5share?5the?5experience@ 004cff7c     Game.obj
 0002:0000af9c       ??_C@_0BP@LMNDFINK@with?5your?5party?4?5And?5you?5don?8t@ 004cff9c     Game.obj
 0002:0000afbc       ??_C@_0BM@MIPNABPN@have?5to?5set?5the?5safe?5attack@ 004cffbc     Game.obj
 0002:0000afd8       ??_C@_0BN@OIKFEBBK@mode?5with?5your?5party?4?5So?5you@ 004cffd8     Game.obj
 0002:0000aff8       ??_C@_0BG@OIJNPKCC@can?5play?5efficiently?4@ 004cfff8     Game.obj
 0002:0000b010       ??_C@_0BG@FJOEBHOC@Failed?5in?5joining?5the@ 004d0010     Game.obj
 0002:0000b028       ??_C@_0BI@JPEGACIA@party?4?5Maybe?5the?5player@ 004d0028     Game.obj
 0002:0000b040       ??_C@_0BJ@NMBGDNEC@rejected?5or?5the?5case?5you@ 004d0040     Game.obj
 0002:0000b05c       ??_C@_0BI@JONDGKGG@offered?5to?5enemy?5or?5you@ 004d005c     Game.obj
 0002:0000b074       ??_C@_0BJ@CGGKFJGC@offered?5to?5player?5who?5is@ 004d0074     Game.obj
 0002:0000b090       ??_C@_0BD@FMKGOFFK@not?5in?5peace?5mode?4@ 004d0090     Game.obj
 0002:0000b0a4       ??_C@_0BP@HAOJNFHC@Your?5party?5has?5been?5dismissed?4@ 004d00a4     Game.obj
 0002:0000b0c4       ??_C@_0BO@DPKDFEAN@If?5the?5number?5of?5members?5is?51@ 004d00c4     Game.obj
 0002:0000b0e4       ??_C@_0CD@GMNFGBGH@the?5party?5dismisses?5automatical@ 004d00e4     Game.obj
 0002:0000b108       ??_C@_0CL@LPGCNJMK@Would?5you?5like?5to?5withdraw?5from@ 004d0108     Game.obj
 0002:0000b134       ??_C@_0O@JJOCCCOC@?5Dropping?5?$CFs?4@ 004d0134     Game.obj
 0002:0000b144       ??_C@_0BA@CKACOPAM@?$CFs?3?5give?5to?5?$CFs?4@ 004d0144     Game.obj
 0002:0000b154       ??_C@_0BF@FINOIAK@Decide?5the?5quantity?4@ 004d0154     Game.obj
 0002:0000b16c       ??_C@_0BE@JMGNEJKF@__________?5?$CI0?5?$HO?5?$CFd?$CJ@ 004d016c     Game.obj
 0002:0000b180       ??_C@_0BJ@KIKDKMM@?5You?5are?5not?5on?5a?5quest?4@ 004d0180     Game.obj
 0002:0000b19c       ??_C@_0CH@FMADMLIC@You?5are?5on?5a?5monster?5conquering@ 004d019c     Game.obj
 0002:0000b1c4       ??_C@_0CP@JIDHHOMN@You?5accomplished?5the?5monster?5co@ 004d01c4     Game.obj
 0002:0000b1f4       ??_C@_0BC@LLKPFALN@Rest?5Monster?5?3?5?$CFd@ 004d01f4     Game.obj
 0002:0000b208       ??_C@_0L@ECMPJFGL@Client?3?5?$CFs@ 004d0208     Game.obj
 0002:0000b214       ??_C@_0CB@IFNGMCLC@Position?3?5?$CFd?0?5?$CFd?5Range?3?5?$CFd?5bloc@ 004d0214     Game.obj
 0002:0000b238       ??_C@_0BB@PNDNBLOK@Contribution?3?5?$CFd@ 004d0238     Game.obj
 0002:0000b24c       ??_C@_0CA@IEIDIMLF@You?5are?5on?5an?5observation?5quest@ 004d024c     Game.obj
 0002:0000b26c       ??_C@_0CE@BONNBOBH@You?5accomplished?5observation?5qu@ 004d026c     Game.obj
 0002:0000b290       ??_C@_0BP@FLCHCHFO@Your?5quest?5has?5been?5cancelled?4@ 004d0290     Game.obj
 0002:0000b2b0       ??_C@_0L@BPEACJIF@?$CFs?$CI?$CFs?0?5?$CFs?$CJ@ 004d02b0     Game.obj
 0002:0000b2bc       ??_C@_08GDBDNFEB@?$CFs?$CI?$CFs?$CFs?$CJ@ 004d02bc     Game.obj
 0002:0000b2c8       ??_C@_08HIHLJBMJ@?$CI?$CFs?0?5?$CFs?$CJ@ 004d02c8     Game.obj
 0002:0000b2d4       ??_C@_06PCMPEPAO@?$CI?$CFs?$CFs?$CJ@ 004d02d4     Game.obj
 0002:0000b2dc       ??_C@_0BP@NEEAFOCC@Drag?5the?5item?5that?5you?5want?5to@ 004d02dc     Game.obj
 0002:0000b2fc       ??_C@_0CB@CFGGBDBA@sell?5from?5your?5bag?4?5You?5can?5sel@ 004d02fc     Game.obj
 0002:0000b320       ??_C@_0BP@PPEMLBNI@up?5to?512?5items?5simultaneously?4@ 004d0320     Game.obj
 0002:0000b340       ??_C@_0CB@FFFMOFCO@You?5cannot?5sell?5exhausted?5items@ 004d0340     Game.obj
 0002:0000b364       ??_C@_0BL@DNANMFAL@If?5you?5want?5to?5remove?5sel?9@ 004d0364     Game.obj
 0002:0000b380       ??_C@_0BL@NMCIFDOF@ected?5item?5from?5the?5list?0?5@ 004d0380     Game.obj
 0002:0000b39c       ??_C@_0BM@BKJCEKOD@click?5the?5name?5of?5the?5item?4@ 004d039c     Game.obj
 0002:0000b3b8       ??_C@_0CB@LIKBAOHI@?$CK?5Drop?5the?5items?5to?5sell?5here?$CB?5@ 004d03b8     Game.obj
 0002:0000b3dc       ??_C@_0O@FBHMPPGH@Endurance?3?5?$CFd@ 004d03dc     Game.obj
 0002:0000b3ec       ??_C@_0BF@MHLGHEND@Do?5you?5want?5to?5sell?$DP@ 004d03ec     Game.obj
 0002:0000b404       ??_C@_0O@NKBJEHEH@Cost?3?5?$CFd?5Gold@ 004d0404     Game.obj
 0002:0000b414       ??_C@_0BH@FMJOCEPM@Do?5you?5want?5to?5repair?$DP@ 004d0414     Game.obj
 0002:0000b42c       ??_C@_0BM@OHIMODCP@?5Processing?5the?5item?5sale?4?4@ 004d042c     Game.obj
 0002:0000b448       ??_C@_0BI@DMKOFDLB@You?5cannot?5give?5or?5sell@ 004d0448     Game.obj
 0002:0000b460       ??_C@_0BG@GFDELCOD@until?5this?5finishes?4?5@ 004d0460     Game.obj
 0002:0000b478       ??_C@_0BP@FJLOPGIO@?5Processing?5the?5item?5repair?4?4?4@ 004d0478     Game.obj
 0002:0000b498       ??_C@_04BLNHNEEM@ITEM@     004d0498     Game.obj
 0002:0000b4a0       ??_C@_05BJKOFFGO@PRICE@    004d04a0     Game.obj
 0002:0000b4a8       ??_C@_03GICAEIGO@?$CF6d@   004d04a8     Game.obj
 0002:0000b4ac       ??_C@_06ODJMJFLN@Weight@   004d04ac     Game.obj
 0002:0000b4b4       ??_C@_09OBFMPJMC@?3?5?$CFd?5Gold@ 004d04b4     Game.obj
 0002:0000b4c0       ??_C@_0L@PNFEKMKB@?3?5?$CFd?5Stone@ 004d04c0     Game.obj
 0002:0000b4cc       ??_C@_06KGFFMMMJ@Damage@   004d04cc     Game.obj
 0002:0000b4d4       ??_C@_0BB@GCOFNMPP@Speed?$CIMin?4?$HOMax?4?$CJ@ 004d04d4     Game.obj
 0002:0000b4e8       ??_C@_0BB@HLOFPGE@?3?5?$CFdD?$CFd?$CL?$CFd?5?$CIS?9M?$CJ@ 004d04e8     Game.obj
 0002:0000b4fc       ??_C@_0O@LKHPCJIA@?3?5?$CFdD?$CFd?5?$CIS?9M?$CJ@ 004d04fc     Game.obj
 0002:0000b50c       ??_C@_0P@DGPCODCK@?3?5?$CFdD?$CFd?$CL?$CFd?5?$CIL?$CJ@ 004d050c     Game.obj
 0002:0000b51c       ??_C@_0M@GOOFKEOE@?3?5?$CFdD?$CFd?5?$CIL?$CJ@ 004d051c     Game.obj
 0002:0000b528       ??_C@_0L@HBHEPFDA@?3?50?$CI10?$HO10?$CJ@ 004d0528     Game.obj
 0002:0000b534       ??_C@_0O@OHCJOJAL@?3?5?$CFd?$CI?$CFd?5?$HO?5?$CFd?$CJ@ 004d0534     Game.obj
 0002:0000b544       ??_C@_0DC@IJAGPEHD@?$CKYour?5STR?5should?5be?5at?5least?5?$CFd@ 004d0544     Game.obj
 0002:0000b578       ??_C@_06OPPMCNKJ@?3?5?$CL?$CFd?$CF@ 004d0578     Game.obj
 0002:0000b580       ??_C@_0BL@INOEEFGG@Available?5for?5above?5Dex?5?$CFd@ 004d0580     Game.obj
 0002:0000b59c       ??_C@_0BL@MPJHOFPL@Available?5for?5above?5Vit?5?$CFd@ 004d059c     Game.obj
 0002:0000b5b8       ??_C@_0BL@EDAEDJGE@Available?5for?5above?5Int?5?$CFd@ 004d05b8     Game.obj
 0002:0000b5d4       ??_C@_0BL@GBFNECPA@Available?5for?5above?5Mag?5?$CFd@ 004d05d4     Game.obj
 0002:0000b5f0       ??_C@_0BL@LOGNHAJH@Available?5for?5above?5Chr?5?$CFd@ 004d05f0     Game.obj
 0002:0000b60c       ??_C@_0CP@HAKDBLOK@?$CIWarning?$CB?$CJ?5Your?5stat?5is?5too?5low@ 004d060c     Game.obj
 0002:0000b63c       ??_C@_03IHDJCGEK@?$CIM?$CJ@ 004d063c     Game.obj
 0002:0000b640       ??_C@_0BK@BIINGPAP@?$CIWarning?$CB?$CJ?5only?5for?5male?4@ 004d0640     Game.obj
 0002:0000b65c       ??_C@_03JGIIAAOM@?$CIW?$CJ@ 004d065c     Game.obj
 0002:0000b660       ??_C@_0BM@LJGKKFPK@?$CIWarning?$CB?$CJ?5only?5for?5female?4@ 004d0660     Game.obj
 0002:0000b67c       ??_C@_0L@KGEEMDAB@?3?5above?5?$CFd@ 004d067c     Game.obj
 0002:0000b688       ??_C@_0DA@NBAEKJEP@?$CIWarning?$CB?$CJ?5Your?5level?5is?5too?5lo@ 004d0688     Game.obj
 0002:0000b6b8       ??_C@_09KJBKILHO@Quantity?3@ 004d06b8     Game.obj
 0002:0000b6c4       ??_C@_01GBGANLPD@0@        004d06c4     Game.obj
 0002:0000b6c8       ??_C@_05JNOMDMDH@?$CF3d?$CF?$CF@ 004d06c8     Game.obj
 0002:0000b6d0       ??_C@_0M@EPKOAEJB@Creating?4?4?4@ 004d06d0     Game.obj
 0002:0000b6dc       ??_C@_09HGENNEPJ@Max?4Skill@ 004d06dc     Game.obj
 0002:0000b6e8       ??_C@_04FCMNJMCO@?$CFd?$CF?$CF@ 004d06e8     Game.obj
 0002:0000b6f0       ??_C@_0CH@NLKHCKEF@?5List?5of?5items?5which?5you?5can?5ma@ 004d06f0     Game.obj
 0002:0000b718       ??_C@_0CG@OPKCBKL@your?5current?5skill?4?5The?5items?5y@ 004d0718     Game.obj
 0002:0000b740       ??_C@_0CG@PDNBOFMA@make?5now?5with?5your?5current?5stuf@ 004d0740     Game.obj
 0002:0000b768       ??_C@_0BH@EMCGHKEH@be?5displayed?5in?5blue?4?5@ 004d0768     Game.obj
 0002:0000b780       ??_C@_0CI@BFEGLKFK@Select?5an?5item?5you?5want?5to?5manu@ 004d0780     Game.obj
 0002:0000b7a8       ??_C@_0BD@BMPLDOAO@Skill?5level?3?5?$CFd?1?$CFd@ 004d07a8     Game.obj
 0002:0000b7bc       ??_C@_0BE@GJHFDEJN@Ingredients?5Needed?3@ 004d07bc     Game.obj
 0002:0000b7d0       ??_C@_0CA@OEKONLBE@?5Click?5MANUFACTURE?5button?5after@ 004d07d0     Game.obj
 0002:0000b7f0       ??_C@_0CD@EGHKAFHH@dragging?5ingredients?5in?5the?5bla@ 004d07f0     Game.obj
 0002:0000b814       ??_C@_0BL@HGGMEEAL@to?5manufacture?5above?5item?4@ 004d0814     Game.obj
 0002:0000b830       ??_C@_04FEOMFELI@Back@     004d0830     Game.obj
 0002:0000b838       ??_C@_0M@GEMPNCML@Manufacture@ 004d0838     Game.obj
 0002:0000b844       ??_C@_0CF@LOCKJKAP@?5There?5are?5not?5enough?5ingredien@ 004d0844     Game.obj
 0002:0000b86c       ??_C@_0CC@KEHCOHOH@manufacture?4?5Needed?5materials?5a@ 004d086c     Game.obj
 0002:0000b890       ??_C@_0BD@FEGKDDDO@displayed?5in?5grey?4@ 004d0890     Game.obj
 0002:0000b8a4       ??_C@_0BN@MMKCHBAG@?5Manufacturing?5the?5items?4?4?4?4@ 004d08a4     Game.obj
 0002:0000b8c4       ??_C@_0CI@PHJKJAIH@Please?5wait?5until?5manufacture?5f@ 004d08c4     Game.obj
 0002:0000b8ec       ??_C@_0BJ@MOKLFEPK@?5Success?5in?5manufacture?$CB@ 004d08ec     Game.obj
 0002:0000b908       ??_C@_0BP@OFEMAJOE@The?5purity?5of?5product?5is?5?$CFd?$CF?$CF?4@ 004d0908     Game.obj
 0002:0000b928       ??_C@_0CD@MBJEHNAA@The?5completion?5of?5product?5is?5?$CFd@ 004d0928     Game.obj
 0002:0000b94c       ??_C@_0BI@ILHBJPHH@Failed?5on?5manufacture?4?4@ 004d094c     Game.obj
 0002:0000b964       ??_C@_0N@BFOBEMPK@Detail?5Level@ 004d0964     Game.obj
 0002:0000b974       ??_C@_03CMIMKEEK@Low@      004d0974     Game.obj
 0002:0000b978       ??_C@_06EFAGIKOH@Normal@   004d0978     Game.obj
 0002:0000b980       ??_C@_04PHMMJPOJ@High@     004d0980     Game.obj
 0002:0000b988       ??_C@_05MAHMNMLO@Sound@    004d0988     Game.obj
 0002:0000b990       ??_C@_02IAAGKKDJ@On@       004d0990     Game.obj
 0002:0000b994       ??_C@_03GCDBBDDL@Off@      004d0994     Game.obj
 0002:0000b998       ??_C@_08BEHKFNNO@disabled@ 004d0998     Game.obj
 0002:0000b9a4       ??_C@_05LMJFOPOI@Music@    004d09a4     Game.obj
 0002:0000b9ac       ??_C@_07NEMEKOGF@Whisper@  004d09ac     Game.obj
 0002:0000b9b4       ??_C@_05BHEJOJJF@Shout@    004d09b4     Game.obj
 0002:0000b9bc       ??_C@_0N@EHKOAFEG@Sound?5Volume@ 004d09bc     Game.obj
 0002:0000b9cc       ??_C@_0N@IBGIBGEC@Music?5Volume@ 004d09cc     Game.obj
 0002:0000b9dc       ??_C@_0BI@PEPBHACO@Dialog?5Box?5Transparency@ 004d09dc     Game.obj
 0002:0000b9f4       ??_C@_09PMNGDHEA@Guide?5Map@ 004d09f4     Game.obj
 0002:0000ba00       ??_C@_0P@CPPBEIEB@?$CFd?3?$CFd?3?$CFd?3?$CFd?3?$CFd@ 004d0a00     Game.obj
 0002:0000ba10       ??_C@_0BC@LGOAHGCK@Coded?5by?5Cleroth?0@ 004d0a10     Game.obj
 0002:0000ba24       ??_C@_0DH@MDMAEAHF@You?5can?8t?5release?5equipment?5whi@ 004d0a24     Game.obj
 0002:0000ba5c       ??_C@_0BN@DNLGECJH@That?5is?5already?5on?5the?5list?4@ 004d0a5c     Game.obj
 0002:0000ba7c       ??_C@_0BG@BJFLNOJG@You?5cannot?5sell?5gold?4@ 004d0a7c     Game.obj
 0002:0000ba94       ??_C@_0CL@LMPFGLGI@Item?5?$CFs?3?5You?5can?8t?5sell?5an?5exha@ 004d0a94     Game.obj
 0002:0000bac0       ??_C@_0DF@ENIKAMPA@You?5cannot?5sell?5more?5than?512?5it@ 004d0ac0     Game.obj
 0002:0000baf8       ??_C@_0CI@EGJJLBDI@There?5is?5no?5more?5space?5for?5ingr@ 004d0af8     Game.obj
 0002:0000bb20       ??_C@_0N@JPDKAHIH@Item?5ID?5?3?5?$CFd@ 004d0b20     Game.obj
 0002:0000bb30       ??_C@_0DH@KNBDHNEI@You?5cannot?5withdraw?5the?5item?5be@ 004d0b30     Game.obj
 0002:0000bb68       ??_C@_0BH@POEPKPNF@Attempting?5to?5Fish?4?4?4?4@ 004d0b68     Game.obj
 0002:0000bb80       ??_C@_0FM@DHIBBPOM@You?5should?5learn?5alchemy?5skill?5@ 004d0b80     Game.obj
 0002:0000bbdc       ??_C@_0DN@BCCGFIBK@You?5need?5Alchemy?5Bowl?5to?5alchem@ 004d0bdc     Game.obj
 0002:0000bc1c       ??_C@_0CA@IMGGFCID@Talking?5to?5Guildhall?5Officer?4?4?4@ 004d0c1c     Game.obj
 0002:0000bc3c       ??_C@_0BK@HBBPEDAI@Talking?5to?5Shop?5Keeper?4?4?4@ 004d0c3c     Game.obj
 0002:0000bc58       ??_C@_0CA@MEDJDKBL@Talking?5to?5Blacksmith?5Keeper?4?4?4@ 004d0c58     Game.obj
 0002:0000bc78       ??_C@_0BP@DBNMAKLJ@Talking?5to?5Cityhall?5Officer?4?4?4@ 004d0c78     Game.obj
 0002:0000bc98       ??_C@_0BP@EFNIDHPI@Talking?5to?5Warehouse?5Keeper?4?4?4@ 004d0c98     Game.obj
 0002:0000bcb8       ??_C@_0BH@CBBFIGGC@Talking?5to?5Sorcerer?4?4?4@ 004d0cb8     Game.obj
 0002:0000bcd0       ??_C@_0BK@LHFAIHHP@Too?5far?5to?5give?5the?5item?4@ 004d0cd0     Game.obj
 0002:0000bcec       ??_C@_0BK@CLBPOHAM@Too?5far?5to?5exchange?5item?4@ 004d0cec     Game.obj
 0002:0000bd08       ??_C@_0BE@HAANHGKD@Talking?5to?5Guard?4?4?4@ 004d0d08     Game.obj
 0002:0000bd1c       ??_C@_0BG@GDNHJGP@Talking?5to?5Unicorn?4?4?4@ 004d0d1c     Game.obj
 0002:0000bd34       ??_C@_0BJ@GABPLPKN@Talking?5to?5a?5town?5man?4?4?4@ 004d0d34     Game.obj
 0002:0000bd50       ??_C@_0BM@JBBOEKNC@Talking?5to?5a?5town?5maiden?4?4?4@ 004d0d50     Game.obj
 0002:0000bd6c       ??_C@_0BO@FGGAPMNG@Talking?5to?5a?5town?5magician?4?4?4@ 004d0d6c     Game.obj
 0002:0000bd8c       ??_C@_0DC@KFKMAMMF@You?5cannot?5buy?5anything?5because@ 004d0d8c     Game.obj
 0002:0000bdc0       ??_C@_0CD@EEKLFIKL@You?5are?5already?5using?5other?5ski@ 004d0dc0     Game.obj
 0002:0000bde4       ??_C@_0CM@NIIKHLKH@You?5can?8t?5use?5a?5skill?5while?5you@ 004d0de4     Game.obj
 0002:0000be10       ??_C@_0BD@DPEJHGN@Mixing?5a?5potion?4?4?4@ 004d0e10     Game.obj
 0002:0000be24       ??_C@_0BK@MKFAJJAB@Tag1?5DlgBoxClick_SkillDlg@ 004d0e24     Game.obj
 0002:0000be40       ??_C@_0EG@FHJJJMFG@There?5is?5not?5enough?5crafting?5ma@ 004d0e40     Game.obj
 0002:0000be88       ??_C@_0BO@ICMPGNMF@Crafting?5the?5item?5in?5progress@ 004d0e88     Game.obj
 0002:0000bea8       ??_C@_0CJ@DJOLCELJ@Your?5level?5is?5too?5low?5to?5go?5to?5@ 004d0ea8     Game.obj
 0002:0000bed4       ??_C@_0CB@DGAFGNBG@Civilians?5cannot?5go?5to?5the?5area@ 004d0ed4     Game.obj
 0002:0000bef8       ??_C@_0CC@DCJMLGGB@Travellers?5cannot?5go?5to?5the?5are@ 004d0ef8     Game.obj
 0002:0000bf1c       ??_C@_0CB@GEAIOBFC@Criminals?5cannot?5go?5to?5the?5area@ 004d0f1c     Game.obj
 0002:0000bf40       ??_C@_0CH@GPHIJPPM@You?5may?5not?5teleport?5to?5the?5sam@ 004d0f40     Game.obj
 0002:0000bf68       ??_C@_0CA@MPGDFGGB@You?5need?5more?5gold?5to?5teleport?4@ 004d0f68     Game.obj
 0002:0000bf88       ??_C@_0BL@LBBBIKJC@?4?4?4?4?4?4?4?4?4?4?4?4?4?4?4?4?4?4?4?4?4?4?4?4?4?4@ 004d0f88     Game.obj
 0002:0000bfa4       ??_C@_0DF@EPOFCFLM@?$CFs?3?5dropped?5to?5the?5ground?4?5Unab@ 004d0fa4     Game.obj
 0002:0000bfdc       ??_C@_0DI@CADJLJFJ@?$CFd?5?$CFs?3?5dropped?5to?5the?5ground?4?5U@ 004d0fdc     Game.obj
 0002:0000c014       ??_C@_0CE@GJDBHFJA@You?5threw?5?$CFd?5?$CFs?5away?5on?5the?5gro@ 004d1014     Game.obj
 0002:0000c038       ??_C@_0BK@LJEIJAGA@?$CFs?5cannot?5join?5our?5guild?4@ 004d1038     Game.obj
 0002:0000c054       ??_C@_0P@NFHDCKDJ@Guild?5is?5full?4@ 004d1054     Game.obj
 0002:0000c064       ??_C@_0CB@GHKEGPJK@?$CFs?5has?5withdrawn?5from?5our?5guild@ 004d1064     Game.obj
 0002:0000c088       ??_C@_0DK@JLHPNFAF@You?5must?5be?5a?5friendly?5citizen?5@ 004d1088     Game.obj
 0002:0000c0c4       ??_C@_0DB@PBFILBAC@You?5can?5evaluate?5other?5players?5@ 004d10c4     Game.obj
 0002:0000c0f8       ??_C@_0CN@PFFJFHEH@Item?5?$CFs?3?5You?5don?8t?5have?5to?5repa@ 004d10f8     Game.obj
 0002:0000c128       ??_C@_0CK@PAMCFPFK@Item?5?$CFs?3?5You?5can?8t?5repair?5this?5@ 004d1128     Game.obj
 0002:0000c154       ??_C@_0CI@HKEEMMJC@Item?5?$CFs?3?5You?5can?8t?5sell?5this?5it@ 004d1154     Game.obj
 0002:0000c17c       ??_C@_0CD@CDGNMNGN@Item?5?$CFs?3?5You?5can?8t?5sell?5this?5it@ 004d117c     Game.obj
 0002:0000c1a0       ??_C@_0DA@FGPLLIE@You?5should?5get?5a?5citizenship?5to@ 004d11a0     Game.obj
 0002:0000c1d0       ??_C@_0DH@DBICDKC@You?5can?8t?5sell?5anymore?5items?5be@ 004d11d0     Game.obj
 0002:0000c208       ??_C@_0CO@DNNHFNBJ@Try?5again?5after?5removing?5weight@ 004d1208     Game.obj
 0002:0000c238       ??_C@_0CE@OBGLPGO@CHR?5has?5been?5increased?5by?5?$CFdpoi@ 004d1238     Game.obj
 0002:0000c25c       ??_C@_0CE@BFLLDMEP@CHR?5has?5been?5decreased?5by?5?$CFdpoi@ 004d125c     Game.obj
 0002:0000c280       ??_C@_0CF@PEBIINLP@You?5threw?5the?5?$CFs?5away?5on?5the?5gr@ 004d1280     Game.obj
 0002:0000c2a8       ??_C@_0BC@DEPNPNGG@You?5dropped?5a?5?$CFs?4@ 004d12a8     Game.obj
 0002:0000c2bc       ??_C@_0BA@HNBBFCGN@You?5dropped?5?$CFs?4@ 004d12bc     Game.obj
 0002:0000c2cc       ??_C@_07BDNLLECC@?$CFs?5?$CL?$CFd?$CB@ 004d12cc     Game.obj
 0002:0000c2d4       ??_C@_0BJ@MKPPNCMB@You?5killed?5the?5enemy?5?$CFs?$CB@ 004d12d4     Game.obj
 0002:0000c2f0       ??_C@_0CF@PKCKDLG@You?5killed?5the?5enemy?5?$CFs?5of?5?$CFs?5g@ 004d12f0     Game.obj
 0002:0000c318       ??_C@_0DB@EPFAFPDK@Enemy?9Kill?9Count?5has?5been?5decre@ 004d1318     Game.obj
 0002:0000c34c       ??_C@_0DB@FEPNNMBL@Enemy?9Kill?9Count?5has?5been?5incre@ 004d134c     Game.obj
 0002:0000c380       ??_C@_0M@IFBHNOCB@Enemy?5Kill?$CB@ 004d1380     Game.obj
 0002:0000c38c       ??_C@_0BD@FNAKLONE@Started?5to?5fish?4?4?4@ 004d138c     Game.obj
 0002:0000c3a0       ??_C@_0CE@BFLABFGF@Exp?5has?5been?5increased?5by?5?$CFdpoi@ 004d13a0     Game.obj
 0002:0000c3c4       ??_C@_0CE@OBNJGEE@Exp?5has?5been?5decreased?5by?5?$CFdpoi@ 004d13c4     Game.obj
 0002:0000c3e8       ??_C@_0EM@JKMEIHC@You?5are?5forced?5to?5logout?5from?5o@ 004d13e8     Game.obj
 0002:0000c434       ??_C@_0BF@OOOIHEEF@You?5gave?5a?5?$CFs?5to?5?$CFs?4@ 004d1434     Game.obj
 0002:0000c44c       ??_C@_0BG@MFNFOLFH@You?5gave?5?$CFd?5?$CFs?5to?5?$CFs?4@ 004d144c     Game.obj
 0002:0000c464       ??_C@_0CH@OGDFNFBM@You?5dropped?5?$CFd?5?$CFs?4?5unable?5to?5tr@ 004d1464     Game.obj
 0002:0000c48c       ??_C@_0CE@KKGNJFMF@You?5gave?5?$CFd?5?$CFs?5to?5Warehouse?5Kee@ 004d148c     Game.obj
 0002:0000c4b0       ??_C@_0CF@BJHHLADI@You?5gave?5?$CFd?5?$CFs?5to?5Guildhall?5Off@ 004d14b0     Game.obj
 0002:0000c4d8       ??_C@_0CE@JFHJCHHI@You?5gave?5?$CFd?5?$CFs?5to?5Cityhall?5Offi@ 004d14d8     Game.obj
 0002:0000c4fc       ??_C@_03JAMCBOB@Tom@       004d14fc     Game.obj
 0002:0000c500       ??_C@_0CF@PPCHDHLI@You?5gave?5?$CFd?5?$CFs?5to?5Blacksmith?5Ke@ 004d1500     Game.obj
 0002:0000c528       ??_C@_0CK@IEMDPGKE@Attack?5prohibition?5mode?5has?5bee@ 004d1528     Game.obj
 0002:0000c554       ??_C@_0CK@COCNPCHM@All?5the?5attack?5is?5invalidate?5in@ 004d1554     Game.obj
 0002:0000c580       ??_C@_0CL@NJPGMHEF@Attack?5prohibition?5mode?5has?5bee@ 004d1580     Game.obj
 0002:0000c5ac       ??_C@_0DL@ODCEOGMG@Logout?5count?5cancels?5if?5HP?5decr@ 004d15ac     Game.obj
 0002:0000c5e8       ??_C@_0CC@KLHBPKBO@Warning?$CB?5HP?5is?5very?5low?4?5Danger@ 004d15e8     Game.obj
 0002:0000c60c       ??_C@_0BK@OECLHCJI@You?5are?5feeling?5hunger?4?4?4@ 004d160c     Game.obj
 0002:0000c628       ??_C@_0BC@KJCGJFHB@You?5are?5hungry?4?4?4@ 004d1628     Game.obj
 0002:0000c63c       ??_C@_0BH@CCLIEIOO@You?5are?5very?5hungry?4?4?4@ 004d163c     Game.obj
 0002:0000c654       ??_C@_0BE@JNOCIMHN@You?5are?5starving?4?4?4@ 004d1654     Game.obj
 0002:0000c668       ??_C@_0BN@GEKEMGIE@You?5are?5starving?5to?5death?$CB?$CB?$CB@ 004d1668     Game.obj
 0002:0000c688       ??_C@_0N@BHJMFBMM@You?5dyed?5?$CFs?4@ 004d1688     Game.obj
 0002:0000c698       ??_C@_0BK@LFOBJBAL@Item?5?$CFs?3?5can?5not?5be?5dyed?4@ 004d1698     Game.obj
 0002:0000c6b4       ??_C@_0BE@JJLEDCGK@Item?5?$CFs?3?5exhausted?4@ 004d16b4     Game.obj
 0002:0000c6c8       ??_C@_0N@DNOHBLDG@You?5used?5?$CFs?4@ 004d16c8     Game.obj
 0002:0000c6d8       ??_C@_0M@CDIHJCFF@You?5ate?5?$CFs?4@ 004d16d8     Game.obj
 0002:0000c6e4       ??_C@_0BF@ELMIEEDE@Item?5?$CFs?3?5was?5broken?4@ 004d16e4     Game.obj
 0002:0000c6fc       ??_C@_0BE@BOCMCOKF@Item?5?$CFs?3?5exhausted?$CB@ 004d16fc     Game.obj
 0002:0000c710       ??_C@_0O@CLJMEAOF@You?5got?5a?5?$CFs?4@ 004d1710     Game.obj
 0002:0000c720       ??_C@_0P@LNCDPIGG@You?5got?5?$CFd?5?$CFs?4@ 004d1720     Game.obj
 0002:0000c730       ??_C@_0BO@GIEMAKBC@You?5bought?5a?5?$CFs?5with?5?$CFd?5Gold?4@ 004d1730     Game.obj
 0002:0000c750       ??_C@_0BD@PMJDNOPH@Item?5?$CFs?3?5repaired?4@ 004d1750     Game.obj
 0002:0000c764       ??_C@_0BN@HJDEPABI@Item?5?$CFs?3?5put?5in?5safekeeping?4@ 004d1764     Game.obj
 0002:0000c784       ??_C@_0CA@EKADNBL@Item?5?$CFd?5?$CFs?3?5put?5in?5safekeeping?4@ 004d1784     Game.obj
 0002:0000c7a4       ??_C@_0DJ@NHHLEKIC@You?5have?5died?$CB?5?5Click?5the?5resta@ 004d17a4     Game.obj
 0002:0000c7e0       ??_C@_0DF@GPDMDJAM@to?5start?5again?0?5or?5click?5the?5Lo@ 004d17e0     Game.obj
 0002:0000c818       ??_C@_0BG@OHHNDIE@Level?5up?$CB?$CB?$CB?5Level?5?$CFd?$CB@ 004d1818     Game.obj
 0002:0000c830       ??_C@_09HMOICCB@Level?5up?$CB@ 004d1830     Game.obj
 0002:0000c83c       ??_C@_0CF@BBNEGHAE@Protection?5from?5arrows?5has?5vani@ 004d183c     Game.obj
 0002:0000c864       ??_C@_0CE@HCGCOPAO@Protection?5from?5magic?5has?5vanis@ 004d1864     Game.obj
 0002:0000c888       ??_C@_0CE@HBNNAGNK@Defense?5shield?5effect?5has?5vanis@ 004d1888     Game.obj
 0002:0000c8ac       ??_C@_0CN@DJPDBLKB@Absolute?5Magic?5Protection?5has?5b@ 004d18ac     Game.obj
 0002:0000c8dc       ??_C@_0CH@CBKOOJKD@Hold?5person?5magic?5effect?5has?5va@ 004d18dc     Game.obj
 0002:0000c904       ??_C@_0CF@EKFAJNKH@Paralysis?5magic?5effect?5has?5vani@ 004d1904     Game.obj
 0002:0000c92c       ??_C@_0CI@EOBNKJIG@Invisibility?5magic?5effect?5has?5v@ 004d192c     Game.obj
 0002:0000c954       ??_C@_0CM@ONOEMNJI@Language?5confuse?5magic?5effect?5h@ 004d1954     Game.obj
 0002:0000c980       ??_C@_0BO@BHIGJMHN@Confusion?5magic?5has?5vanished?4@ 004d1980     Game.obj
 0002:0000c9a0       ??_C@_0BN@BLMGGCFP@Illusion?5magic?5has?5vanished?4@ 004d19a0     Game.obj
 0002:0000c9c0       ??_C@_0CB@JPEDBAJI@At?5last?0?5you?5gather?5your?5senses@ 004d19c0     Game.obj
 0002:0000c9e4       ??_C@_0BB@JNHHGNH@Poisoning?5cured?$CB@ 004d19e4     Game.obj
 0002:0000c9f8       ??_C@_0BH@JLPEKOAG@Berserk?5mode?5released?4@ 004d19f8     Game.obj
 0002:0000ca10       ??_C@_0CG@HMEPNKMI@Transformation?5magic?5effect?5rel@ 004d1a10     Game.obj
 0002:0000ca38       ??_C@_0BI@EOGAOAMO@Freeze?5effect?5released?4@ 004d1a38     Game.obj
 0002:0000ca50       ??_C@_0CK@IGMFHIAC@You?5are?5completely?5protected?5fr@ 004d1a50     Game.obj
 0002:0000ca7c       ??_C@_0BO@MEECJJEL@You?5are?5protected?5from?5magic?$CB@ 004d1a7c     Game.obj
 0002:0000ca9c       ??_C@_0CL@IGAPKKFM@Defense?5ratio?5increased?5by?5a?5ma@ 004d1a9c     Game.obj
 0002:0000cac8       ??_C@_0CJ@GOIKPJL@You?5are?5completely?5protected?5fr@ 004d1ac8     Game.obj
 0002:0000caf4       ??_C@_0DJ@GFOPBFJF@You?5were?5bounded?5by?5a?5Hold?5Pers@ 004d1af4     Game.obj
 0002:0000cb30       ??_C@_0DH@GNCKOOBI@You?5were?5bounded?5by?5a?5Paralysis@ 004d1b30     Game.obj
 0002:0000cb68       ??_C@_0CL@ENLAAJCJ@You?5are?5now?5invisible?0?5no?5one?5c@ 004d1b68     Game.obj
 0002:0000cb94       ??_C@_0DM@LCPFPMAK@No?5one?5understands?5you?5because?5@ 004d1b94     Game.obj
 0002:0000cbd0       ??_C@_0ED@FAKKLOCK@Confusion?5magic?5casted?0?5impossi@ 004d1bd0     Game.obj
 0002:0000cc14       ??_C@_0DG@EKDMJIDB@Illusion?5magic?5casted?0?5impossib@ 004d1c14     Game.obj
 0002:0000cc4c       ??_C@_0DP@OPMANPEM@You?5are?5thrown?5into?5confusion?0?5@ 004d1c4c     Game.obj
 0002:0000cc8c       ??_C@_0BD@DNCHJPGB@You?5were?5poisoned?$CB@ 004d1c8c     Game.obj
 0002:0000cca0       ??_C@_0BG@PFGKHAFC@Berserk?5Magic?5Casted?$CB@ 004d1ca0     Game.obj
 0002:0000ccb8       ??_C@_0EE@BHHGDGGI@Transformation?5magic?5effect?0?5yo@ 004d1cb8     Game.obj
 0002:0000ccfc       ??_C@_0DG@LGPPOILO@You?5have?5been?5frozen?$CB?5Your?5move@ 004d1cfc     Game.obj
 0002:0000cd38       ??_C@_0EC@BJLJKDKC@Magic?5?$CI?$CFs?$CJ?5?3You?5failed?5learning@ 004d1d38     Game.obj
 0002:0000cd7c       ??_C@_0CB@DAMHAICL@Magic?5?$CI?$CFs?$CJ?3?5You?5failed?5learning@ 004d1d7c     Game.obj
 0002:0000cda0       ??_C@_0CD@DOIKOAGE@INT?5must?5be?5more?5than?5?$CFd?5to?5lea@ 004d1da0     Game.obj
 0002:0000cdc4       ??_C@_0BE@GCKLHKAO@Magic?$CI?$CFs?$CJ?3?5learned?$CB@ 004d1dc4     Game.obj
 0002:0000cdd8       ??_C@_0CJ@GLDHDKF@Your?5MP?5has?5been?5increased?5by?5?$CF@ 004d1dd8     Game.obj
 0002:0000ce04       ??_C@_0CJ@EKMBMOHI@Your?5MP?5has?5been?5decreased?5by?5?$CF@ 004d1e04     Game.obj
 0002:0000ce30       ??_C@_0BK@DDFCGCBM@?$CFs?5has?5joined?5your?5guild?4@ 004d1e30     Game.obj
 0002:0000ce4c       ??_C@_0DG@GFIOMNGL@Level?5?$CFd?5win?5in?5a?5battle?5agains@ 004d1e4c     Game.obj
 0002:0000ce84       ??_C@_0BP@MKDMDNCK@You?5can?5receive?5?$CFd?5prize?5gold?4@ 004d1e84     Game.obj
 0002:0000cea8       ??_C@_0EO@HGAFADPO@You?5received?5a?5PK?5penalty?5becau@ 004d1ea8     Game.obj
 0002:0000cef8       ??_C@_0CF@IHNPOAPG@Exp?5has?5been?5decreased?5by?5?$CFd?5po@ 004d1ef8     Game.obj
 0002:0000cf20       ??_C@_0DE@CCKIKJFE@You?5got?5a?5penalty?5that?5you?5can?8@ 004d1f20     Game.obj
 0002:0000cf54       ??_C@_0DI@BOKPFBA@You?5gave?5?$CFs?5a?5penalty?5that?5he?5c@ 004d1f54     Game.obj
 0002:0000cf8c       ??_C@_0CL@ILIDKEGE@Player?5?$CFs?5is?5connected?5to?5the?5g@ 004d1f8c     Game.obj
 0002:0000cfb8       ??_C@_0CJ@JEFGMHP@Player?5?$CFs?5is?5connected?5to?5the?5?$CF@ 004d1fb8     Game.obj
 0002:0000cfe4       ??_C@_0CO@NLPDENHO@Player?5?$CFs?5is?5not?5connected?5to?5t@ 004d1fe4     Game.obj
 0002:0000d014       ??_C@_0BM@DPIOOLEO@Prize?3?5Experience?5?$CFd?5points@ 004d2014     Game.obj
 0002:0000d030       ??_C@_0N@JHLDNKEB@Prize?3?5?$CFd?5?$CFs@ 004d2030     Game.obj
 0002:0000d040       ??_C@_0CC@FLJFCHKM@Contribution?5ascent?5to?5?$CFd?5point@ 004d2040     Game.obj
 0002:0000d064       ??_C@_0CD@EOONDLBM@Contribution?5descent?5to?5?$CFd?5poin@ 004d2064     Game.obj
 0002:0000d088       ??_C@_0CL@CEPBHANN@Another?5player?5gave?5you?5a?5good?5@ 004d2088     Game.obj
 0002:0000d0b4       ??_C@_0CC@BEBIPHAB@You?5gave?5a?5good?5evaluation?5to?5?$CF@ 004d20b4     Game.obj
 0002:0000d0d8       ??_C@_0CB@HOEBHNAA@You?5gave?5a?5bad?5evaluation?5to?5?$CFs@ 004d20d8     Game.obj
 0002:0000d0fc       ??_C@_02IACPMDCA@55@       004d20fc     Game.obj
 0002:0000d100       ??_C@_0CE@GPGKGKHN@There?5isn?8t?5any?5map?5for?5this?5ar@ 004d2100     Game.obj
 0002:0000d124       ??_C@_0BN@MBGBILNA@Skill?5?$CFs?3?5increased?5by?5?$CFd?$CF?$CF?4@ 004d2124     Game.obj
 0002:0000d144       ??_C@_08DKIJOCGL@?$CFs?5?$CL?$CFd?$CF?$CF@ 004d2144     Game.obj
 0002:0000d150       ??_C@_0BN@LJNGIIB@Skill?5?$CFs?3?5decreased?5by?5?$CFd?$CF?$CF?4@ 004d2150     Game.obj
 0002:0000d170       ??_C@_08OMNAABHG@?$CFs?5?9?$CFd?$CF?$CF@ 004d2170     Game.obj
 0002:0000d180       ??_C@_0EG@HJPIDKLH@Skill?$CI?$CFs?$CJ?3?5You?5have?5learned?5a?5n@ 004d2180     Game.obj
 0002:0000d1c8       ??_C@_0CA@KABHMCFP@You?5failed?5the?5ability?5attempt?4@ 004d21c8     Game.obj
 0002:0000d1e8       ??_C@_0CE@BFLDOBEA@You?5succeeded?5in?5using?5the?5abil@ 004d21e8     Game.obj
 0002:0000d20c       ??_C@_0CE@CNDGDJPP@SP?5has?5been?5increased?5by?5?$CFd?5poi@ 004d220c     Game.obj
 0002:0000d230       ??_C@_0CE@GBEEIECC@SP?5has?5been?5decreased?5by?5?$CFd?5poi@ 004d2230     Game.obj
 0002:0000d254       ??_C@_0BN@CHBLPEDD@Total?5players?5connected?3?5?$CFd?4@ 004d2254     Game.obj
 0002:0000d274       ??_C@_0BN@NHEDOMGD@Whispering?5mode?5set?5with?5?$CFs?4@ 004d2274     Game.obj
 0002:0000d294       ??_C@_0BK@NPNIDAEM@Whispering?5mode?5disabled?4@ 004d2294     Game.obj
 0002:0000d2b0       ??_C@_0CK@DJMIEFFF@Decides?5your?5assignments?5while?5@ 004d22b0     Game.obj
 0002:0000d2dc       ??_C@_0BN@PIBDBHLE@The?5assignments?5is?5indicated@ 004d22dc     Game.obj
 0002:0000d2fc       ??_C@_0O@KAPPOOLF@at?5the?5bottom@ 004d22fc     Game.obj
 0002:0000d30c       ??_C@_0BO@FIKKBDL@Click?5the?5assignment?5you?5want@ 004d230c     Game.obj
 0002:0000d32c       ??_C@_09EJFGJKCI@Commander@ 004d232c     Game.obj
 0002:0000d338       ??_C@_07DKDFFMCF@Soldier@  004d2338     Game.obj
 0002:0000d340       ??_C@_0M@GKLEJKJI@Constructor@ 004d2340     Game.obj
 0002:0000d34c       ??_C@_0CF@NCHFBBAD@?5Click?5the?5Help?5button?5at?5the?5b@ 004d234c     Game.obj
 0002:0000d374       ??_C@_0BM@FIHKOMHJ@for?5a?5detailed?5assignments?4@ 004d2374     Game.obj
 0002:0000d390       ??_C@_04DDFEFHOJ@Help@     004d2390     Game.obj
 0002:0000d398       ??_C@_0CF@OHCCAKFK@While?5the?5portal?5war?5your?5assig@ 004d2398     Game.obj
 0002:0000d3c0       ??_C@_0BB@HHOJEOIO@will?5be?5Soldier?4@ 004d23c0     Game.obj
 0002:0000d3d4       ??_C@_0BF@HBLDOGBC@will?5be?5Constructor?4@ 004d23d4     Game.obj
 0002:0000d3ec       ??_C@_0BD@DEEJNDLA@will?5be?5Commander?4@ 004d23ec     Game.obj
 0002:0000d400       ??_C@_0BK@FBFIPNEA@For?5a?5detailed?5assignment@ 004d2400     Game.obj
 0002:0000d41c       ??_C@_0M@KCGBFCDP@Click?5here?4@ 004d241c     Game.obj
 0002:0000d428       ??_C@_0CG@OBLHIAGB@If?5you?5want?5another?5assignment?5@ 004d2428     Game.obj
 0002:0000d450       ??_C@_0CB@OAIHJNLF@go?5to?5look?5the?5cityhall?5officer@ 004d2450     Game.obj
 0002:0000d474       ??_C@_0BJ@DIDCHAH@You?5are?5using?5a?5skill?4?4?4@ 004d2474     Game.obj
 0002:0000d490       ??_C@_08MIICGKJJ@mapdata?2@ 004d2490     Game.obj
 0002:0000d49c       ??_C@_0N@KNJOCMPO@mw?2defaultmw@ 004d249c     Game.obj
 0002:0000d4ac       ??_C@_04IFCIPPDB@?4amd@    004d24ac     Game.obj
 0002:0000d4b4       ??_C@_0M@NEOPEEBG@This?5is?5?$CFs?4@ 004d24b4     Game.obj
 0002:0000d4c0       ??_C@_0BK@CACEBPEI@Converted?5to?5attack?5mode?4@ 004d24c0     Game.obj
 0002:0000d4dc       ??_C@_0BJ@MNDDHCG@Converted?5to?5peace?5mode?4@ 004d24dc     Game.obj
 0002:0000d4f8       ??_C@_07PACIDHIM@?9?$CFdPts?$CB@ 004d24f8     Game.obj
 0002:0000d500       ??_C@_0N@BHECDMDA@?5?$CK?5Failed?$CB?5?$CK@ 004d2500     Game.obj
 0002:0000d510       ??_C@_0DA@MCCKECFL@Middleland?5warfare?5building?5str@ 004d2510     Game.obj
 0002:0000d540       ??_C@_0CB@PHCDCEKB@Middleland?5teleport?5position?5se@ 004d2540     Game.obj
 0002:0000d564       ??_C@_0BO@DBAGJIMD@Teleport?5to?5the?5selected?5area@ 004d2564     Game.obj
 0002:0000d584       ??_C@_0BF@CGJEDEMC@Recall?5warfare?5units@ 004d2584     Game.obj
 0002:0000d59c       ??_C@_0CF@LACGDKCC@Middleland?5construction?5buildin@ 004d259c     Game.obj
 0002:0000d5c4       ??_C@_0BG@HMNILMA@Commander?8s?5duty?5help@ 004d25c4     Game.obj
 0002:0000d5dc       ??_C@_0CI@INEAMNNL@Click?5and?5select?5the?5teleport?5l@ 004d25dc     Game.obj
 0002:0000d604       ??_C@_0CB@MOIHGCGB@Returns?5to?5commander?8s?5main?5men@ 004d2604     Game.obj
 0002:0000d628       ??_C@_0BL@KMNOFGGP@Teleport?5location?5set?5help@ 004d2628     Game.obj
 0002:0000d644       ??_C@_0CI@LCBDJOAL@Teleport?5confirmation?$CIClick?5onc@ 004d2644     Game.obj
 0002:0000d66c       ??_C@_0CB@HNLOLFMG@Teleport?5move?5possibilities?5hel@ 004d266c     Game.obj
 0002:0000d690       ??_C@_0BF@HJENBHML@Actual?5recall?5point?3@ 004d2690     Game.obj
 0002:0000d6a8       ??_C@_05DIALNFFA@?$CFs?5?$CFd@ 004d26a8     Game.obj
 0002:0000d6b0       ??_C@_0BC@FGCKFNAO@Recall?5point?53000@ 004d26b0     Game.obj
 0002:0000d6c4       ??_C@_0BC@GLEKHELO@Recall?5point?52000@ 004d26c4     Game.obj
 0002:0000d6d8       ??_C@_0BC@CMOKAOGO@Recall?5point?51000@ 004d26d8     Game.obj
 0002:0000d6ec       ??_C@_0BC@BLDEPOFM@Recall?5point?51500@ 004d26ec     Game.obj
 0002:0000d700       ??_C@_0CB@JEHOCNKI@Follows?5the?5owner?5in?5a?5safe?5mod@ 004d2700     Game.obj
 0002:0000d724       ??_C@_0BL@BBOLCFAO@Self?5protect?5location?5mode@ 004d2724     Game.obj
 0002:0000d740       ??_C@_0CF@NODPJLOI@Returns?5to?5the?5commander?8s?5main@ 004d2740     Game.obj
 0002:0000d768       ??_C@_0CC@CBAODLIF@Warfare?5units?5recall?5related?5he@ 004d2768     Game.obj
 0002:0000d78c       ??_C@_0BK@OCMOKBEP@God?8s?5Hand?5Knight?5Cavalry@ 004d278c     Game.obj
 0002:0000d7a8       ??_C@_0DB@GBIINHKG@Select?5the?5unit?5to?5recall?5and?5s@ 004d27a8     Game.obj
 0002:0000d7dc       ??_C@_0CD@GBBDHMFG@Click?5the?5unit?5icon?4?5More?5detai@ 004d27dc     Game.obj
 0002:0000d800       ??_C@_0CG@MDHCCPLD@To?5see?5the?5content?5press?5help?5b@ 004d2800     Game.obj
 0002:0000d828       ??_C@_0L@DCCBOFNK@Guard?5Mode@ 004d2828     Game.obj
 0002:0000d834       ??_C@_09HJKBMBCP@Hold?5Mode@ 004d2834     Game.obj
 0002:0000d840       ??_C@_0CI@CNIOALMP@Select?5the?5construction?5area?5an@ 004d2840     Game.obj
 0002:0000d868       ??_C@_0CD@JDMFIONL@Construction?5area?5set?5related?5h@ 004d2868     Game.obj
 0002:0000d88c       ??_C@_0CF@NCMFBCMI@Construction?5location?3?5?$CFs?5near?5@ 004d288c     Game.obj
 0002:0000d8b4       ??_C@_0CO@IHPKPCGI@Construction?5unavailable?3?5Unabl@ 004d28b4     Game.obj
 0002:0000d8e4       ??_C@_0BE@NKDIPBGB@Select?5war?5building@ 004d28e4     Game.obj
 0002:0000d8f8       ??_C@_0CF@KHIMANGG@Commander?5sets?5the?5teleport?5pos@ 004d28f8     Game.obj
 0002:0000d920       ??_C@_0BI@PLEILBAO@Constructor?8s?5duty?5help@ 004d2920     Game.obj
 0002:0000d938       ??_C@_0CC@OIMOGCJK@Constructs?5the?5war?5building?5her@ 004d2938     Game.obj
 0002:0000d95c       ??_C@_0BM@MACPGIIC@Press?5the?5building?5icon?5and@ 004d295c     Game.obj
 0002:0000d978       ??_C@_0CM@LNPEDAH@the?5base?5will?5be?5formed?5and?5slo@ 004d2978     Game.obj
 0002:0000d9a4       ??_C@_0CC@EJNEPCK@Attack?5the?5building?5with?5Pickax@ 004d29a4     Game.obj
 0002:0000d9c8       ??_C@_0BK@JBBLFDEF@Building?5is?5not?5activated@ 004d29c8     Game.obj
 0002:0000d9e4       ??_C@_0BE@BHBLLIJP@while?5constructing?4@ 004d29e4     Game.obj
 0002:0000d9f8       ??_C@_0BK@JDFEMNH@Back?5to?5Construction?5menu@ 004d29f8     Game.obj
 0002:0000da14       ??_C@_0BG@GEAPBNMI@Help?5for?5construction@ 004d2a14     Game.obj
 0002:0000da2c       ??_C@_0CM@KHJJPOHE@Teleport?5to?5position?5that?5comma@ 004d2a2c     Game.obj
 0002:0000da58       ??_C@_0BP@KBOJPBJC@Confirm?5teleport?$CI1?5more?5click?$CJ@ 004d2a58     Game.obj
 0002:0000da78       ??_C@_0BK@HMJLIDAE@Back?5to?5construction?5mode@ 004d2a78     Game.obj
 0002:0000da94       ??_C@_0BC@FNDBDEFH@Help?5for?5teleport@ 004d2a94     Game.obj
 0002:0000daa8       ??_C@_0CC@JCKMHNGG@Teleport?5position?3?5?$CFs?5near?5?$CFd?0?5@ 004d2aa8     Game.obj
 0002:0000dacc       ??_C@_0BO@BAGPBGBA@Teleport?5position?5is?5not?5set?4@ 004d2acc     Game.obj
 0002:0000daec       ??_C@_0BB@LNBEACPL@Help?5for?5soldier@ 004d2aec     Game.obj
 0002:0000db00       ??_C@_0BF@FGEEJPKP@Back?5to?5soldier?5mode@ 004d2b00     Game.obj
 0002:0000db18       ??_C@_0BG@IKOGNCOD@Building?5durability?5?3@ 004d2b18     Game.obj
 0002:0000db30       ??_C@_0P@GOFAHLEL@?$CFs?5?$CFd?5?$CFd?5?$CFd?5?$CFd@ 004d2b30     Game.obj
 0002:0000db40       ??_C@_04IHEKLNBL@News@     004d2b40     Game.obj
 0002:0000db48       ??_C@_0BB@EEHIPEHP@Helbreath?5World?$DP@ 004d2b48     Game.obj
 0002:0000db5c       ??_C@_0M@PPFEPPNL@How?5to?5move@ 004d2b5c     Game.obj
 0002:0000db68       ??_C@_0BP@PLAFEEJG@Attack?0?5Defence?0?5Enemy?0?5Friend@ 004d2b68     Game.obj
 0002:0000db88       ??_C@_09JKPGEJCH@Interface@ 004d2b88     Game.obj
 0002:0000db94       ??_C@_0BN@LMBONMFB@Specific?5Point?0?5Skill?5System@ 004d2b94     Game.obj
 0002:0000dbb4       ??_C@_06BGMOODEK@Guilds@   004d2bb4     Game.obj
 0002:0000dbbc       ??_C@_05CCNNDGIA@Items@    004d2bbc     Game.obj
 0002:0000dbc4       ??_C@_0O@NHLIPMOP@Communication@ 004d2bc4     Game.obj
 0002:0000dbd4       ??_C@_0BE@IPEOJDLP@What?8s?5the?5Crusade?$DP@ 004d2bd4     Game.obj
 0002:0000dbe8       ??_C@_08JNEOMACB@Commands@ 004d2be8     Game.obj
 0002:0000dbf4       ??_C@_06DLOJOANL@F?4A?4Q?4@ 004d2bf4     Game.obj
 0002:0000dbfc       ??_C@_0BB@NIGIMGCO@Beginner?8s?5Guide@ 004d2bfc     Game.obj
 0002:0000dc10       ??_C@_0CA@IPPDBPOF@Drag?5item?5needed?5to?5be?5upgraded@ 004d2c10     Game.obj
 0002:0000dc30       ??_C@_0BP@OBBGKHEA@from?5the?5inventory?4?5Then?5press@ 004d2c30     Game.obj
 0002:0000dc50       ??_C@_0BC@PLNLLBPG@?8Upgrade?8?5button?4@ 004d2c50     Game.obj
 0002:0000dc64       ??_C@_0BI@JGADCBIB@Item?5upgrade?5point?5?3?5?$CFd@ 004d2c64     Game.obj
 0002:0000dc7c       ??_C@_0BK@JPLBJNFC@Needed?5upgrade?5point?5?3?5?$CFd@ 004d2c7c     Game.obj
 0002:0000dc98       ??_C@_0CA@EDOGMCCG@Item?5upgrade?5is?5in?5process?5now?4@ 004d2c98     Game.obj
 0002:0000dcb8       ??_C@_0BB@PIBAJNHC@Wait?5a?5moment?4?4?4@ 004d2cb8     Game.obj
 0002:0000dccc       ??_C@_0BN@BJLPGDDC@Congratulation?$CB?5item?5upgrade@ 004d2ccc     Game.obj
 0002:0000dcec       ??_C@_0BE@DBNKLNGH@has?5been?5succeeded?4@ 004d2cec     Game.obj
 0002:0000dd00       ??_C@_0BJ@LPHPBPLM@Item?5upgrade?5has?5failed?4@ 004d2d00     Game.obj
 0002:0000dd1c       ??_C@_0CH@JCLMLAHF@Select?5which?5kind?5of?5items?5to?5u@ 004d2d1c     Game.obj
 0002:0000dd44       ??_C@_0BE@GHOMPCCB@Normal?5item?5upgrade@ 004d2d44     Game.obj
 0002:0000dd58       ??_C@_0BJ@FHFLNOBK@Upgrading?5a?5normal?5item?4@ 004d2d58     Game.obj
 0002:0000dd74       ??_C@_0BG@HACNNKPH@With?5upgrading?5weapon@ 004d2d74     Game.obj
 0002:0000dd8c       ??_C@_0BH@IIIDKEAM@items?0?5Stone?5of?5Xelima@ 004d2d8c     Game.obj
 0002:0000dda4       ??_C@_0BK@LJHKNLMF@is?5needed?4?5With?5upgrading@ 004d2da4     Game.obj
 0002:0000ddc0       ??_C@_0BG@IJMCFKOG@armor?5items?0?5Stone?5of@ 004d2dc0     Game.obj
 0002:0000ddd8       ??_C@_0BC@KAKPLNE@Merien?5is?5needed?4@ 004d2dd8     Game.obj
 0002:0000ddec       ??_C@_0BL@GLFBHDFH@?$CK?5Majestic?5items?5cannot?5be@ 004d2dec     Game.obj
 0002:0000de08       ??_C@_0CA@PGNJKBBO@upgraded?5with?5this?5performance?4@ 004d2e08     Game.obj
 0002:0000de28       ??_C@_0BG@JDENJGEJ@Majestic?5item?5upgrade@ 004d2e28     Game.obj
 0002:0000de40       ??_C@_0BK@OHPHLFAP@Upgrading?5majestic?5items?4@ 004d2e40     Game.obj
 0002:0000de5c       ??_C@_0CE@NIOJGGOI@In?5order?5to?5upgrade?5majestic?5it@ 004d2e5c     Game.obj
 0002:0000de80       ??_C@_0BK@FJDANPHN@enough?5upgrade?5points?5for@ 004d2e80     Game.obj
 0002:0000de9c       ??_C@_0BN@LCFEDIFM@majestic?5items?5are?5required?4@ 004d2e9c     Game.obj
 0002:0000debc       ??_C@_0BJ@DLDMKBEO@?$CK?5Normal?5items?5cannot?5be@ 004d2ebc     Game.obj
 0002:0000ded8       ??_C@_0BN@EEBALDHG@After?5bring?5a?5normal?5item?5to@ 004d2ed8     Game.obj
 0002:0000def8       ??_C@_0BM@BMIANJJA@upgrade?5from?5the?5inventory?0@ 004d2ef8     Game.obj
 0002:0000df14       ??_C@_0BM@PLKHOIH@press?5the?5?8Upgrade?8?5button?4@ 004d2f14     Game.obj
 0002:0000df30       ??_C@_0BM@FIEGLJIP@You?5can?5upgrade?5only?5armor?4@ 004d2f30     Game.obj
 0002:0000df4c       ??_C@_0CC@IKEIHLCF@The?5number?5of?5upgrade?$CIweapon?$CJ?3?5@ 004d2f4c     Game.obj
 0002:0000df70       ??_C@_0BN@CJGOIJGC@You?5can?5upgrade?5only?5weapon?4@ 004d2f70     Game.obj
 0002:0000df90       ??_C@_0CB@EEOKAJAM@The?5number?5of?5upgrade?$CIarmor?$CJ?3?5?$CF@ 004d2f90     Game.obj
 0002:0000dfb4       ??_C@_0CD@DPMOEHMH@Due?5to?5the?5failure?5of?5upgrade?0?5@ 004d2fb4     Game.obj
 0002:0000dfd8       ??_C@_0BN@LPBNNEIL@item?5is?5gone?4?5Try?5next?5time?$CB@ 004d2fd8     Game.obj
 0002:0000dff8       ??_C@_0CN@BBFECLBP@Upgrading?5the?5item?5is?5not?5possi@ 004d2ff8     Game.obj
 0002:0000e028       ??_C@_0CE@CBEPMAHF@Upgrading?5the?5item?5is?5not?5possi@ 004d3028     Game.obj
 0002:0000e04c       ??_C@_0CI@FNELDDBH@A?5point?5to?5upgrade?5items?5is?5not@ 004d304c     Game.obj
 0002:0000e074       ??_C@_0DA@NPALABNI@?5There?5is?5no?5item?5or?5magic?5for?5@ 004d3074     Game.obj
 0002:0000e0a4       ??_C@_0DD@OPFOGJFG@?5To?5Equip?5an?5item?0?5weapon?0?5or?5m@ 004d30a4     Game.obj
 0002:0000e0d8       ??_C@_0EG@GEHPNHPA@?5Cast?5a?5spell?5first?5then?5press?5@ 004d30d8     Game.obj
 0002:0000e120       ??_C@_0BP@ECIOPOGL@Item?$CI?$CFs?5?$CFs?5?$CFs?$CJ?5?3?5set?5to?5?$FLF?$CFd?$FN?4@ 004d3120     Game.obj
 0002:0000e140       ??_C@_0BK@HJDKNGFI@Magic?$CI?$CFs?$CJ?5?3?5set?5to?5?$FLF?$CFd?$FN?4@ 004d3140     Game.obj
 0002:0000e15c       ??_C@_0BA@EHDCLING@MagicWand?$CIMS10?$CJ@ 004d315c     Game.obj
 0002:0000e16c       ??_C@_0BA@FFIHBHDI@MagicWand?$CIMS20?$CJ@ 004d316c     Game.obj
 0002:0000e17c       ??_C@_0BD@CMKFKHBC@WizMagicWand?$CIMS10?$CJ@ 004d317c     Game.obj
 0002:0000e190       ??_C@_0BD@DOBAAIPM@WizMagicWand?$CIMS20?$CJ@ 004d3190     Game.obj
 0002:0000e1a4       ??_C@_0BE@IPEOEKAH@MagicNecklace?$CIMS10?$CJ@ 004d31a4     Game.obj
 0002:0000e1b8       ??_C@_0BD@KKGEBMPF@DarkMageMagicStaff@ 004d31b8     Game.obj
 0002:0000e1cc       ??_C@_0BE@DIIHKJBM@DarkMageMagicStaffW@ 004d31cc     Game.obj
 0002:0000e1e0       ??_C@_0BC@GBKMEKNB@DarkMageMagicWand@ 004d31e0     Game.obj
 0002:0000e1f4       ??_C@_0BA@GGBPLIFH@NecklaceOfLiche@ 004d31f4     Game.obj
 0002:0000e204       ??_C@_0BD@BOMBBEOI@DarkMageTempleWand@ 004d3204     Game.obj
 0002:0000e218       ??_C@_0BD@BMGNBHPL@BerserkWand?$CIMS?420?$CJ@ 004d3218     Game.obj
 0002:0000e22c       ??_C@_0BD@ONILIBF@BerserkWand?$CIMS?410?$CJ@ 004d322c     Game.obj
 0002:0000e240       ??_C@_0BD@KDKEEAKC@KlonessWand?$CIMS?420?$CJ@ 004d3240     Game.obj
 0002:0000e254       ??_C@_0BD@LBBBOPEM@KlonessWand?$CIMS?410?$CJ@ 004d3254     Game.obj
 0002:0000e268       ??_C@_0BB@JONFEEII@ResurWand?$CIMS?420?$CJ@ 004d3268     Game.obj
 0002:0000e27c       ??_C@_0BB@IMGAOLGG@ResurWand?$CIMS?410?$CJ@ 004d327c     Game.obj
 0002:0000e290       ??_C@_0BE@IMMKJOGJ@MagicNecklace?$CIMS12?$CJ@ 004d3290     Game.obj
 0002:0000e2a4       ??_C@_0BE@IIEHOCNL@MagicNecklace?$CIMS14?$CJ@ 004d32a4     Game.obj
 0002:0000e2b8       ??_C@_0BE@ILMDDGLF@MagicNecklace?$CIMS16?$CJ@ 004d32b8     Game.obj
 0002:0000e2cc       ??_C@_0BE@IBFNBLLP@MagicNecklace?$CIMS18?$CJ@ 004d32cc     Game.obj
 0002:0000e2e0       ??_C@_0CL@OCDJELAE@Your?5hands?5must?5be?5free?5for?5cas@ 004d32e0     Game.obj
 0002:0000e30c       ??_C@_0CA@POBMJFAF@Can?8t?5cast?5while?5using?5a?5skill?4@ 004d330c     Game.obj
 0002:0000e32c       ??_C@_0BL@CJNIOHKB@The?5item?5is?5not?5available?4@ 004d332c     Game.obj
 0002:0000e348       ??_C@_0CJ@NHKAKFNK@The?5item?5is?5exhausted?4?5Fix?5it?5t@ 004d3348     Game.obj
 0002:0000e374       ??_C@_0CP@CCHPJCKE@The?5item?5is?5too?5heavy?5to?5equip?0@ 004d3374     Game.obj
 0002:0000e3a4       ??_C@_0CB@ELPIAFCJ@Your?5level?5is?5too?5low?5to?5use?5it@ 004d33a4     Game.obj
 0002:0000e3c8       ??_C@_0DC@DNBIEMAP@You?5can?8t?5use?5the?5item?5while?5us@ 004d33c8     Game.obj
 0002:0000e3fc       ??_C@_0BK@CLDPNEFA@The?5item?5is?5not?5for?5male?4@ 004d33fc     Game.obj
 0002:0000e418       ??_C@_0BM@NIPKLNNH@The?5item?5is?5not?5for?5female?4@ 004d3418     Game.obj
 0002:0000e434       ??_C@_0BB@EBJECGOP@You?5equipped?5?$CFs?4@ 004d3434     Game.obj
 0002:0000e448       ??_C@_0BN@HGBLAECJ@You?5can?5change?53?5stats?5point@ 004d3448     Game.obj
 0002:0000e468       ??_C@_0BJ@GMPIGFGE@for?5each?5Majestic?5Point?4@ 004d3468     Game.obj
 0002:0000e484       ??_C@_0BH@IAMGIIEG@?$CK?5Majestic?5Points?5Left@ 004d3484     Game.obj
 0002:0000e49c       ??_C@_0CE@FEMGEMDJ@Heldenian?5holy?5war?5has?5been?5clo@ 004d349c     Game.obj
 0002:0000e4c0       ??_C@_0BJ@GHGBMFOP@Heldenian?5Holy?5war?5ended@ 004d34c0     Game.obj
 0002:0000e4dc       ??_C@_09HJFKDMFF@in?5a?5tie?4@ 004d34dc     Game.obj
 0002:0000e4e8       ??_C@_0BF@LPBCJFDB@in?5favor?5of?5Aresden?4@ 004d34e8     Game.obj
 0002:0000e500       ??_C@_0BE@JNFPJDOC@in?5favor?5of?5Elvine?4@ 004d3500     Game.obj
 0002:0000e514       ??_C@_0BA@KOCACDIF@Congratulation?4@ 004d3514     Game.obj
 0002:0000e524       ??_C@_0BH@HJMLIPBN@As?5cityzen?5of?5victory?0@ 004d3524     Game.obj
 0002:0000e53c       ??_C@_0BL@GFACJBOA@You?5will?5recieve?5a?5reward?4@ 004d353c     Game.obj
 0002:0000e558       ??_C@_06GGLIPOFD@?5?5?5?5?5?5@ 004d3558     Game.obj
 0002:0000e560       ??_C@_0O@BJJLJKJC@To?5our?5regret@ 004d3560     Game.obj
 0002:0000e570       ??_C@_0BG@PCACAENJ@As?5cityzen?5of?5defeat?0@ 004d3570     Game.obj
 0002:0000e588       ??_C@_0BP@FCDMIJEE@You?5cannot?5recieve?5any?5reward?4@ 004d3588     Game.obj
 0002:0000e5a8       ??_C@_0CB@PNFHDHJC@Someone?5intend?5to?5resurrect?5you@ 004d35a8     Game.obj
 0002:0000e5cc       ??_C@_0BG@PCCMOEC@Will?5you?5revive?5here?$DP@ 004d35cc     Game.obj
 0002:0000e5e4       ??_C@_0BJ@EINPOGLM@Teleport?5to?5Battle?5Field@ 004d35e4     Game.obj
 0002:0000e600       ??_C@_0P@GFKJFID@Hire?5a?5soldier@ 004d3600     Game.obj
 0002:0000e610       ??_C@_0N@BKKJCEPI@Taking?5Flags@ 004d3610     Game.obj
 0002:0000e620       ??_C@_0BJ@PBCBACHP@Receive?5a?5Tutelary?5Angel@ 004d3620     Game.obj
 0002:0000e63c       ??_C@_0CJ@MLMOCGGC@You?5will?5hire?5a?5soldier?5by?5summ@ 004d363c     Game.obj
 0002:0000e668       ??_C@_0CB@EGKGIMEI@Sorceress?5?5?5?5?5?5?5?5?5?5?5?5?52000?5Poin@ 004d3668     Game.obj
 0002:0000e68c       ??_C@_0CB@FBFMIADJ@Ancient?5Temple?5Knight?53000?5Poin@ 004d368c     Game.obj
 0002:0000e6b0       ??_C@_0CB@POAEDFMK@Elf?5Master?5?5?5?5?5?5?5?5?5?5?5?51500?5Poin@ 004d36b0     Game.obj
 0002:0000e6d4       ??_C@_0CB@BEAKHCFC@Dark?5Shadow?5Knight?5?5?5?53000?5Poin@ 004d36d4     Game.obj
 0002:0000e6f8       ??_C@_0CB@CKBHOKHB@Heavy?5Battle?5Tank?5?5?5?5?54000?5Poin@ 004d36f8     Game.obj
 0002:0000e71c       ??_C@_0CB@JPLFKBIP@Barbarian?5?5?5?5?5?5?5?5?5?5?5?5?53000?5Poin@ 004d371c     Game.obj
 0002:0000e740       ??_C@_0CK@LDPKAMB@You?5should?5join?5a?5guild?5to?5hire@ 004d3740     Game.obj
 0002:0000e76c       ??_C@_0BD@JOBAFNIJ@Summon?5points?5?3?5?$CFd@ 004d376c     Game.obj
 0002:0000e780       ??_C@_0CG@PEPBNMOF@Maximum?5summon?5points?5?3?512000?5p@ 004d3780     Game.obj
 0002:0000e7a8       ??_C@_0BL@ODGNPCEI@Maximum?5hiring?5number?5?3?55?5@ 004d37a8     Game.obj
 0002:0000e7c4       ??_C@_0CG@EOABOEIP@You?5may?5acquire?5Flags?5with?5EK?5p@ 004d37c4     Game.obj
 0002:0000e7ec       ??_C@_0BJ@JIKHPDAI@Price?5is?510?5EK?5per?5Flag?4@ 004d37ec     Game.obj
 0002:0000e808       ??_C@_0M@DAPLDGD@Take?5a?5Flag@ 004d3808     Game.obj
 0002:0000e814       ??_C@_0CC@CBKHINLE@5?5magesty?5points?5will?5be?5deduct@ 004d3814     Game.obj
 0002:0000e838       ??_C@_0CO@EDEOKFFA@upon?5receiving?5the?5Pendant?5of?5T@ 004d3838     Game.obj
 0002:0000e868       ??_C@_0CO@IBHFAADO@Would?5you?5like?5to?5receive?5the?5T@ 004d3868     Game.obj
 0002:0000e898       ??_C@_0CJ@HFOHGODD@Tutelary?5Angel?5?$CISTR?$CJ?5will?5be?5ha@ 004d3898     Game.obj
 0002:0000e8c4       ??_C@_0CJ@PAMBDPCA@Tutelary?5Angel?5?$CIDEX?$CJ?5will?5be?5ha@ 004d38c4     Game.obj
 0002:0000e8f0       ??_C@_0CJ@IAKABEB@Tutelary?5Angel?5?$CIINT?$CJ?5will?5be?5ha@ 004d38f0     Game.obj
 0002:0000e91c       ??_C@_0CJ@GHDFPPAC@Tutelary?5Angel?5?$CIMAG?$CJ?5will?5be?5ha@ 004d391c     Game.obj
 0002:0000e948       ??_C@_02CPIDLAI@at@        004d3948     Game.obj
 0002:0000e94c       ??_C@_09CPKCLAKE@Debug?4txt@ 004d394c     Game.obj
 0002:0000e958       ??_C@_0BN@GFPBDJO@?$CI?$CF4d?3?$CF2d?3?$CF2d_?$CF2d?3?$CF2d?3?$CF2d?$CJ?5?9?5@ 004d3958     Game.obj
 0002:0000e978       ??_C@_0CG@GIANNODO@Do?5you?5want?5to?5upgrade?5all?5?$CFs?5s@ 004d3978     Game.obj
 0002:0000e9a0       ??_C@_03CCLAEDDF@Yes@      004d39a0     Game.obj
 0002:0000e9a4       ??_C@_02JINPPBEP@No@       004d39a4     Game.obj
 0002:0000e9a8       ??_C@_0CJ@DLNJJDOJ@Do?5you?5want?5to?5upgrade?5all?5?$CFs?5f@ 004d39a8     Game.obj
 0002:0000e9d4       ??_C@_08ENAAKOIP@?$CFs?5Lv?4?$CFd@ 004d39d4     Game.obj
 0002:0000e9e0       ??_C@_0M@MCOBENJC@Upgrade?5all@ 004d39e0     Game.obj
 0002:0000e9ec       ??_C@_0M@PAHIFFIG@Upgrade?5one@ 004d39ec     Game.obj
 0002:0000e9f8       ??_C@_0P@GKODPAMM@Enchanting?5Bag@ 004d39f8     Game.obj
 0002:0000ea08       ??_C@_07INILFAGB@Enchant@  004d3a08     Game.obj
 0002:0000ea10       ??_C@_0L@PIBFOGHF@Disenchant@ 004d3a10     Game.obj
 0002:0000ea1c       ??_C@_07NMBDMHPI@Recover@  004d3a1c     Game.obj
 0002:0000ea24       ??_C@_0CB@BGJGFNGM@Drop?5an?5item?5here?5to?5enchant?5it@ 004d3a24     Game.obj
 0002:0000ea48       ??_C@_0CL@LFMKAJMJ@Enchanting?5the?5first?5stat?5requi@ 004d3a48     Game.obj
 0002:0000ea74       ??_C@_0CE@NAAHMPBG@The?5second?5stat?5requires?5fragme@ 004d3a74     Game.obj
 0002:0000ea98       ??_C@_0BO@IBKGFPGE@Disenchant?5items?5to?5get?5both?4@ 004d3a98     Game.obj
 0002:0000eab8       ??_C@_0CH@NBBOMCCC@You?5can?5also?5combine?5shards?1fra@ 004d3ab8     Game.obj
 0002:0000eae0       ??_C@_0BP@DMKOCGAC@This?5item?5cannot?5be?5enchanted?$CB@ 004d3ae0     Game.obj
 0002:0000eb00       ??_C@_0BC@HHIBJJIN@Ench?4?5Shard?5Lv?4?$CFd@ 004d3b00     Game.obj
 0002:0000eb14       ??_C@_0BC@PBGJEGDF@Ench?4?5Frag?4?5Lv?4?$CFd@ 004d3b14     Game.obj
 0002:0000eb28       ??_C@_0CE@MKJAMIA@Drop?5an?5item?5here?5to?5disenchant@ 004d3b28     Game.obj
 0002:0000eb4c       ??_C@_0CG@PMFCLAFB@The?5first?5stat?5disenchants?5to?5s@ 004d3b4c     Game.obj
 0002:0000eb74       ??_C@_0CK@BFMDJENB@The?5second?5stat?5disenchants?5to?5@ 004d3b74     Game.obj
 0002:0000eba0       ??_C@_0CF@OGEADLMP@Disenchanting?5will?5destroy?5the?5@ 004d3ba0     Game.obj
 0002:0000ebc8       ??_C@_0CC@JHAKDABC@This?5item?5cannot?5be?5disenchante@ 004d3bc8     Game.obj
 0002:0000ebec       ??_C@_0BP@BCOHNJIP@Recovering?5disenchanted?5items?3@ 004d3bec     Game.obj
 0002:0000ec0c       ??_C@_0CN@PJNHKALN@Requires?5shards?5and?5fragments?5f@ 004d3c0c     Game.obj
 0002:0000ec3c       ??_C@_0CI@EIKNDFCB@DO?5NOT?5use?5this?5as?5storage?0?5as?5@ 004d3c3c     Game.obj
 0002:0000ec64       ??_C@_0DD@CBMKPKDN@this?5list?5will?5be?5deleted?5when?5@ 004d3c64     Game.obj
 0002:0000ec98       ??_C@_0BN@JFPHBBEG@Enchanting?5shard?5successful?$CB@ 004d3c98     Game.obj
 0002:0000ecb8       ??_C@_0CA@OCNANDGN@Enchanting?5fragment?5successful?$CB@ 004d3cb8     Game.obj
 0002:0000ecd8       ??_C@_0EM@NNFOMCMC@Drop?5enchanting?5ingredients?5fro@ 004d3cd8     Game.obj
 0002:0000ed24       ??_C@_06LKKBCBLP@Shards@   004d3d24     Game.obj
 0002:0000ed2c       ??_C@_09GKHPFHED@Fragments@ 004d3d2c     Game.obj
 0002:0000ed38       ??_C@_03FEACNKKI@Lv?4@     004d3d38     Game.obj
 0002:0000ed3c       ??_C@_09MFOEPJPC@Poisoning@ 004d3d3c     Game.obj
 0002:0000ed48       ??_C@_05JODGIKH@Light@     004d3d48     Game.obj
 0002:0000ed50       ??_C@_09HBOMMIAK@Endurance@ 004d3d50     Game.obj
 0002:0000ed5c       ??_C@_0L@GHPDENDK@Cast?5Prob?4@ 004d3d5c     Game.obj
 0002:0000ed68       ??_C@_0L@OCPALDJK@Mana?5Conv?4@ 004d3d68     Game.obj
 0002:0000ed74       ??_C@_0BC@NMOCDDC@Poison?5Resistance@ 004d3d74     Game.obj
 0002:0000ed88       ??_C@_09CCFFAGNJ@Hit?5Ratio@ 004d3d88     Game.obj
 0002:0000ed94       ??_C@_0O@HGPNHPJA@Defense?5Ratio@ 004d3d94     Game.obj
 0002:0000eda4       ??_C@_0M@NBBHGGGN@HP?5Recovery@ 004d3da4     Game.obj
 0002:0000edb0       ??_C@_0M@KMJNCPJP@SP?5Recovery@ 004d3db0     Game.obj
 0002:0000edbc       ??_C@_0M@EJLEBBHN@MP?5Recovery@ 004d3dbc     Game.obj
 0002:0000edc8       ??_C@_0BB@MPGINNCM@Magic?5Resistance@ 004d3dc8     Game.obj
 0002:0000eddc       ??_C@_0BE@OLMCCMHP@Physical?5Absorption@ 004d3ddc     Game.obj
 0002:0000edf0       ??_C@_0BD@KOIEMCKG@Magical?5Absorption@ 004d3df0     Game.obj
 0002:0000ee04       ??_C@_0L@DCGNFONO@Experience@ 004d3e04     Game.obj
 0002:0000ee10       ??_C@_0BE@JFCAKGHO@Critical?5Hit?5Damage@ 004d3e10     Game.obj
 0002:0000ee24       ??_C@_0BG@FNMAEIJC@Crit?4?5Increase?5Chance@ 004d3e24     Game.obj
 0002:0000ee3c       ??_C@_09MHCPINBC@Righteous@ 004d3e3c     Game.obj
 0002:0000ee48       ??_C@_05LOECDJOH@Agile@    004d3e48     Game.obj
 0002:0000ee50       ??_C@_05JGLFENCH@Sharp@    004d3e50     Game.obj
 0002:0000ee58       ??_C@_07LLMDOAHM@Ancient@  004d3e58     Game.obj
 0002:0000ee60       ??_C@_0BK@GIDFOLNP@Magic?5Casting?5Probability@ 004d3e60     Game.obj
 0002:0000ee7c       ??_C@_0BA@GPJCFEPO@Mana?5Converting@ 004d3e7c     Game.obj
 0002:0000ee8c       ??_C@_0BE@HJJFMLHK@Hitting?5Probability@ 004d3e8c     Game.obj
 0002:0000eea0       ??_C@_0BB@DOBACEFO@Magic?5Absorption@ 004d3ea0     Game.obj
 0002:0000eeb4       ??_C@_0BK@PPOLCABC@Consecutive?5Attack?5Damage@ 004d3eb4     Game.obj
 0002:0000eed0       ??_C@_0O@KNIKLHDK@?$CFs?5?9?5Cost?3?5?$CFd@ 004d3ed0     Game.obj
 0002:0000eee0       ??_C@_0BA@GCBCJECG@Total?5cost?5?3?5?$CFd@ 004d3ee0     Game.obj
 0002:0000eef0       ??_C@_0BO@NCINLNHK@There?5are?5no?5items?5to?5repair?4@ 004d3ef0     Game.obj
 0002:0000ef10       ?_iAttackerHeight@@3PAHA   004d3f10     Game.obj
 0002:0000f080       ?_tmp_iMLevelPenalty@@3PAHA 004d4080     Game.obj
 0002:0000f0ac       ?_tmp_cTmpDirX@@3PADA      004d40ac     Game.obj
 0002:0000f0b6       ?G_bIsCalcSocketConnected@@3_NA 004d40b6     Wmain.obj
 0002:0000f0b8       ?_cDrawingOrder@@3PADA     004d40b8     Game.obj
 0002:0000f0c4       ?_tmp_cTmpDirY@@3PADA      004d40c4     Game.obj
 0002:0000f0dc       ?_cMantleDrawingOrder@@3PADA 004d40dc     Game.obj
 0002:0000f150       ?_cMantleDrawingOrderOnRun@@3PADA 004d4150     Game.obj
 0002:0000f15c       ?_tmp_iMCProb@@3PAHA       004d415c     Game.obj
 0002:0000f18c       ??_7?$basic_filebuf@DU?$char_traits@D@std@@@std@@6B@ 004d418c     Game.obj
 0002:0000f1cc       ??_7?$basic_ofstream@DU?$char_traits@D@std@@@std@@6B@ 004d41cc     Game.obj
 0002:0000f1d4       ??_7CGame@@6B@             004d41d4     Game.obj
 0002:0000f1dc       ??_7bad_cast@std@@6B@      004d41dc     Game.obj
 0002:0000f1e4       ??_8?$basic_ofstream@DU?$char_traits@D@std@@@std@@7B@ 004d41e4     Game.obj
 0002:0000f1f0       ?g_XMIdentityR1@DirectX@@3UXMVECTORF32@1@B 004d41f0     Game.obj
 0002:0000f200       ?g_XMIdentityR0@DirectX@@3UXMVECTORF32@1@B 004d4200     Game.obj
 0002:0000f210       ?g_XMIdentityR2@DirectX@@3UXMVECTORF32@1@B 004d4210     Game.obj
 0002:0000f220       ?g_XMMaskY@DirectX@@3UXMVECTORU32@1@B 004d4220     Game.obj
 0002:0000f230       ?g_XMIdentityR3@DirectX@@3UXMVECTORF32@1@B 004d4230     Game.obj
 0002:0000f240       ?g_XMMaskZ@DirectX@@3UXMVECTORU32@1@B 004d4240     Game.obj
 0002:0000f250       __GUID_6f15aaf2_d208_4e89_9ab4_489535d34f9c 004d4250     DX11Renderer.obj
 0002:0000f260       ??_C@_0CG@DFLFBNIO@SB?3?5Constructor?4?5This?$DN?$CFp?0?5Rende@ 004d4260     SpriteBatcher.obj
 0002:0000f288       ??_C@_06KFINLFAI@vs_5_0@   004d4288     SpriteBatcher.obj
 0002:0000f290       ??_C@_0BE@GIELIFLB@TextureVertexShader@ 004d4290     SpriteBatcher.obj
 0002:0000f2a4       ??_C@_1CM@HHGOFIEJ@?$AAR?$AAe?$AAn?$AAd?$AAe?$AAr?$AAe?$AAr?$AA?1?$AAS?$AAh?$AAa?$AAd?$AAe?$AAr@ 004d42a4     SpriteBatcher.obj
 0002:0000f2d0       ??_C@_0CA@ELPGFPCB@SB?5ERROR?3?5VS?5Compile?5Failed?3?5?$CFs@ 004d42d0     SpriteBatcher.obj
 0002:0000f2f0       ??_C@_0DL@OFMDHFGP@SB?5ERROR?3?5VS?5Compile?5Failed?5?$CINo@ 004d42f0     SpriteBatcher.obj
 0002:0000f32c       ??_C@_06MGFNIADC@ps_5_0@   004d432c     SpriteBatcher.obj
 0002:0000f334       ??_C@_0BD@ODEEFFNP@TexturePixelShader@ 004d4334     SpriteBatcher.obj
 0002:0000f348       ??_C@_0CA@DJAHAFKB@SB?5ERROR?3?5PS?5Compile?5Failed?3?5?$CFs@ 004d4348     SpriteBatcher.obj
 0002:0000f368       ??_C@_0DL@HAPBJLIH@SB?5ERROR?3?5PS?5Compile?5Failed?5?$CINo@ 004d4368     SpriteBatcher.obj
 0002:0000f3a4       ??_C@_0CH@IPALKIJJ@SB?5ERROR?3?5CreateVertexShader?5Fa@ 004d43a4     SpriteBatcher.obj
 0002:0000f3cc       ??_C@_0CG@OFCILKBO@SB?5ERROR?3?5CreatePixelShader?5Fai@ 004d43cc     SpriteBatcher.obj
 0002:0000f3f4       ??_C@_08JPMAAECC@POSITION@ 004d43f4     SpriteBatcher.obj
 0002:0000f400       ??_C@_08CMDKBPJM@TEXCOORD@ 004d4400     SpriteBatcher.obj
 0002:0000f40c       ??_C@_05DPNLPLKI@COLOR@    004d440c     SpriteBatcher.obj
 0002:0000f414       ??_C@_0CG@KPHJOEAC@SB?5ERROR?3?5CreateInputLayout?5Fai@ 004d4414     SpriteBatcher.obj
 0002:0000f43c       ??_C@_0CJ@KANIOJHG@SB?5ERROR?3?5Create?5Matrix?5Buffer?5@ 004d443c     SpriteBatcher.obj
 0002:0000f468       ??_C@_0CH@OCEDKLAJ@SB?5ERROR?3?5CreateSamplerState?5Fa@ 004d4468     SpriteBatcher.obj
 0002:0000f490       ??_C@_0CK@LICEIIOG@SB?5ERROR?3?5CreateRasterizerState@ 004d4490     SpriteBatcher.obj
 0002:0000f4bc       ??_C@_0CF@DBOPLDLD@SB?5ERROR?3?5CreateBlendState?5Fail@ 004d44bc     SpriteBatcher.obj
 0002:0000f4e4       ??_C@_0CJ@CAGMAOD@SB?5ERROR?3?5Create?5Vertex?5Buffer?5@ 004d44e4     SpriteBatcher.obj
 0002:0000f510       ??_C@_0CI@PKGGBCNP@SB?5ERROR?3?5Create?5Index?5Buffer?5F@ 004d4510     SpriteBatcher.obj
 0002:0000f538       ??_C@_0BA@FOIKENOD@vector?5too?5long@ 004d4538     SpriteBatcher.obj
 0002:0000f548       ??_C@_0BM@CFBMFKGK@Creating?5Dynamic?5Texture?4?4?4@ 004d4548     TextureManager.obj
 0002:0000f564       ??_C@_0BO@PFKIAAGA@Failed?5to?5CreateTexture2D?3?5?$CFx@ 004d4564     TextureManager.obj
 0002:0000f584       ??_C@_0BI@BFJPPBKE@Failed?5to?5CreateSRV?3?5?$CFx@ 004d4584     TextureManager.obj
 0002:0000f59c       ??_C@_0BO@JMEBAJEA@Texture?5Created?5Successfully?4@ 004d459c     TextureManager.obj
 0002:0000f5bc       ??_C@_0BC@PPMJMFP@Failed?5to?5Map?3?5?$CFx@ 004d45bc     TextureManager.obj
 0002:0000f5d0       ??_C@_0BO@OEBLCCDJ@ERROR?3?5Mapped?5Pointer?5is?5NULL@ 004d45d0     TextureManager.obj
 0002:0000f5f0       ??_C@_0CJ@KAJHHEMB@Game?3?5Hardware?5cursor?5system?5cl@ 004d45f0     GameCursorIntegration.obj
 0002:0000f61c       ??_C@_04GFJGHDLE@?1?0?7?6@ 004d461c     GameMonitor.obj
 0002:0000f628       ??_7CGameMonitor@@6B@      004d4628     GameMonitor.obj
 0002:0000f630       ??_7CItem@@6B@             004d4630     Item.obj
 0002:0000f638       ??_7CItemName@@6B@         004d4638     ItemName.obj
 0002:0000f640       ??_7CMagic@@6B@            004d4640     Magic.obj
 0002:0000f648       ??_7CMapData@@6B@          004d4648     MapData.obj
 0002:0000f650       ??_7CMisc@@6B@             004d4650     Misc.obj
 0002:0000f658       ??_7CMobCounter@@6B@       004d4658     MobCounter.obj
 0002:0000f660       ??_7CMouseInterface@@6B@   004d4660     MouseInterface.obj
 0002:0000f668       ??_7CMsg@@6B@              004d4668     Msg.obj
 0002:0000f670       ??_7CSkill@@6B@            004d4670     Skill.obj
 0002:0000f678       ??_7CSoundBuffer@@6B@      004d4678     SoundBuffer.obj
 0002:0000f680       ??_7CSprite@@6B@           004d4680     Sprite.obj
 0002:0000f688       ??_7CStrTok@@6B@           004d4688     StrTok.obj
 0002:0000f690       ??_7CTile@@6B@             004d4690     Tile.obj
 0002:0000f698       ??_7CTileSpr@@6B@          004d4698     TileSpr.obj
 0002:0000f69c       ??_C@_08LANNCJNO@CRCCHECK@ 004d469c     Wmain.obj
 0002:0000f6a8       ??_C@_0L@NDCFGFK@rd?$GAqbg?9ckk@ 004d46a8     Wmain.obj
 0002:0000f6b4       ??_C@_06FHOFOIFO@ERROR?$CB@ 004d46b4     Wmain.obj
 0002:0000f6bc       ??_C@_0BG@PGLEHPKG@don?8t?5find?5search?4dll@ 004d46bc     Wmain.obj
 0002:0000f6d4       ??_C@_0BD@FCMHNLPE@__FindHackingDll__@ 004d46d4     Wmain.obj
 0002:0000f6e8       ??_C@_0BG@EAKCENFG@can?8t?5find?5search?4dll@ 004d46e8     Wmain.obj
 0002:0000f700       ??_C@_0L@NDKCOCOG@Client?9I?$CFd@ 004d4700     Wmain.obj
 0002:0000f70c       ??_C@_0N@MPKLNHGC@0543kjg3j31?$CF@ 004d470c     Wmain.obj
 0002:0000f71c       ??_C@_0CL@FBOIMBGO@Only?5one?5Helbreath?5client?5progr@ 004d471c     Wmain.obj
 0002:0000f748       ??_C@_0BB@CFFPMEAN@Helbreath?5Client@ 004d4748     Wmain.obj
 0002:0000f75c       ??_C@_0DA@MOKGMEND@Winsock?9V1?41?5not?5found?$CB?5Cannot?5@ 004d475c     Wmain.obj
 0002:0000f790       ??_7XSocket@@6B@           004d4790     XSocket.obj
 0002:0000f794       ??_C@_0BM@LDPIDACN@DirectSoundCreate?5error?4?4?4?6@ 004d4794     YWSound.obj
 0002:0000f7b4       ??_7YWSound@@6B@           004d47b4     YWSound.obj
 0002:0000f7b8       __real@00000000            004d47b8     Game.obj
 0002:0000f7bc       __real@3f800000            004d47bc     Game.obj
 0002:0000f7c0       __real@3fd0000000000000    004d47c0     DXC_ddraw.obj
 0002:0000f7c8       __real@3fd554c980000000    004d47c8     Misc.obj
 0002:0000f7d0       __real@3fe0000000000000    004d47d0     Game.obj
 0002:0000f7d8       __real@3fe6666660000000    004d47d8     DXC_ddraw.obj
 0002:0000f7e0       __real@3ff0000000000000    004d47e0     Game.obj
 0002:0000f7e8       __real@4002666666666666    004d47e8     MapData.obj
 0002:0000f7f0       __real@4008000000000000    004d47f0     Misc.obj
 0002:0000f7f8       __real@4024000000000000    004d47f8     Game.obj
 0002:0000f800       __real@4052000000000000    004d4800     Game.obj
 0002:0000f808       __real@4059000000000000    004d4808     Game.obj
 0002:0000f810       __real@405a400000000000    004d4810     Game.obj
 0002:0000f818       __real@4071200000000000    004d4818     Game.obj
 0002:0000f820       __real@4071700000000000    004d4820     Game.obj
 0002:0000f828       __real@4071800000000000    004d4828     Game.obj
 0002:0000f830       __real@4080600000000000    004d4830     Game.obj
 0002:0000f838       __real@4085400000000000    004d4838     Game.obj
 0002:0000f840       __real@4087800000000000    004d4840     Game.obj
 0002:0000f848       __real@bfd554c980000000    004d4848     Misc.obj
 0002:0000f850       __real@c008000000000000    004d4850     Misc.obj
 0002:0000f860       __xmm@00000001000000010000000100000015 004d4860     SpriteBatcher.obj
 0002:0000f870       __xmm@00000001000000020000000500000001 004d4870     DX11Renderer.obj
 0002:0000f880       __xmm@00000001000000060000000500000001 004d4880     DX11Renderer.obj
 0002:0000f890       __xmm@00000003000000020000000100000000 004d4890     XSocket.obj
 0002:0000f8a0       __xmm@000000ff000000ff000000ff000000ff 004d48a0     XSocket.obj
 0002:0000f8b0       __xmm@23232323232323232323232323232323 004d48b0     Misc.obj
 0002:0000f8c0       __xmm@3def3def3def3def3def3def3def3def 004d48c0     DXC_ddraw.obj
 0002:0000f8d0       __xmm@41f00000000000000000000000000000 004d48d0     Game.obj
 0002:0000f8e0       __xmm@7bef7bef7bef7bef7bef7bef7bef7bef 004d48e0     DXC_ddraw.obj
 0002:0000f8f0       __xmm@80000000800000008000000080000000 004d48f0     SpriteBatcher.obj
 0002:0000f900       __xmm@ffffffffffffffffffffffffffffffff 004d4900     Game.obj
 0002:0000f910       __load_config_used         004d4910     MSVCRT:loadcfg.obj
 0002:0000fa40       __tls_used                 004d4a40     MSVCRT:tlssup.obj
 0002:0000fa58       ??_R4CxFile@@6B@           004d4a58     cximage:ximainfo.obj
 0002:0000fa6c       ??_R3CxFile@@8             004d4a6c     cximage:ximainfo.obj
 0002:0000fa7c       ??_R2CxFile@@8             004d4a7c     cximage:ximainfo.obj
 0002:0000fa84       ??_R1A@?0A@EA@CxFile@@8    004d4a84     cximage:ximainfo.obj
 0002:0000faa0       ??_R4CxIOFile@@6B@         004d4aa0     cximage:ximainfo.obj
 0002:0000fab4       ??_R3CxIOFile@@8           004d4ab4     cximage:ximainfo.obj
 0002:0000fac4       ??_R2CxIOFile@@8           004d4ac4     cximage:ximainfo.obj
 0002:0000fad0       ??_R1A@?0A@EA@CxIOFile@@8  004d4ad0     cximage:ximainfo.obj
 0002:0000faec       ??_R4CxMemFile@@6B@        004d4aec     cximage:ximainfo.obj
 0002:0000fb00       ??_R3CxMemFile@@8          004d4b00     cximage:ximainfo.obj
 0002:0000fb10       ??_R2CxMemFile@@8          004d4b10     cximage:ximainfo.obj
 0002:0000fb1c       ??_R1A@?0A@EA@CxMemFile@@8 004d4b1c     cximage:ximainfo.obj
 0002:0000fb38       ??_R4CxImageJPG@@6B@       004d4b38     cximage:ximaenc.obj
 0002:0000fb4c       ??_R3CxImageJPG@@8         004d4b4c     cximage:ximaenc.obj
 0002:0000fb5c       ??_R2CxImageJPG@@8         004d4b5c     cximage:ximaenc.obj
 0002:0000fb68       ??_R1A@?0A@EA@CxImageJPG@@8 004d4b68     cximage:ximaenc.obj
 0002:0000fb84       ??_R4CxImageBMP@@6B@       004d4b84     cximage:ximaenc.obj
 0002:0000fb98       ??_R3CxImageBMP@@8         004d4b98     cximage:ximaenc.obj
 0002:0000fba8       ??_R2CxImageBMP@@8         004d4ba8     cximage:ximaenc.obj
 0002:0000fbb4       ??_R1A@?0A@EA@CxImageBMP@@8 004d4bb4     cximage:ximaenc.obj
 0002:0000fbd0       ??_R4type_info@@6B@        004d4bd0     MSVCRT:std_type_info_static.obj
 0002:0000fbe4       ??_R3type_info@@8          004d4be4     MSVCRT:std_type_info_static.obj
 0002:0000fbf4       ??_R2type_info@@8          004d4bf4     MSVCRT:std_type_info_static.obj
 0002:0000fbfc       ??_R1A@?0A@EA@type_info@@8 004d4bfc     MSVCRT:std_type_info_static.obj
 0002:0000fc18       ??_R3CBuildItem@@8         004d4c18     BuildItem.obj
 0002:0000fc28       ??_R1A@?0A@EA@CBuildItem@@8 004d4c28     BuildItem.obj
 0002:0000fc44       ??_R2CBuildItem@@8         004d4c44     BuildItem.obj
 0002:0000fc4c       ??_R4CBuildItem@@6B@       004d4c4c     BuildItem.obj
 0002:0000fc60       ??_R1A@?0A@EA@CCharInfo@@8 004d4c60     CharInfo.obj
 0002:0000fc7c       ??_R3CCharInfo@@8          004d4c7c     CharInfo.obj
 0002:0000fc8c       ??_R2CCharInfo@@8          004d4c8c     CharInfo.obj
 0002:0000fc94       ??_R4CCharInfo@@6B@        004d4c94     CharInfo.obj
 0002:0000fca8       ??_R4CCurse@@6B@           004d4ca8     Curse.obj
 0002:0000fcbc       ??_R1A@?0A@EA@CCurse@@8    004d4cbc     Curse.obj
 0002:0000fcd8       ??_R3CCurse@@8             004d4cd8     Curse.obj
 0002:0000fce8       ??_R2CCurse@@8             004d4ce8     Curse.obj
 0002:0000fcf0       ??_R3DXC_ddraw@@8          004d4cf0     DXC_ddraw.obj
 0002:0000fd00       ??_R1A@?0A@EA@DXC_ddraw@@8 004d4d00     DXC_ddraw.obj
 0002:0000fd1c       ??_R4DXC_ddraw@@6B@        004d4d1c     DXC_ddraw.obj
 0002:0000fd30       ??_R2DXC_ddraw@@8          004d4d30     DXC_ddraw.obj
 0002:0000fd38       ??_R2DXC_dinput@@8         004d4d38     DXC_dinput.obj
 0002:0000fd40       ??_R3DXC_dinput@@8         004d4d40     DXC_dinput.obj
 0002:0000fd50       ??_R1A@?0A@EA@DXC_dinput@@8 004d4d50     DXC_dinput.obj
 0002:0000fd6c       ??_R4DXC_dinput@@6B@       004d4d6c     DXC_dinput.obj
 0002:0000fd80       ??_R4CEffect@@6B@          004d4d80     Effect.obj
 0002:0000fd94       ??_R2CEffect@@8            004d4d94     Effect.obj
 0002:0000fd9c       ??_R1A@?0A@EA@CEffect@@8   004d4d9c     Effect.obj
 0002:0000fdb8       ??_R3CEffect@@8            004d4db8     Effect.obj
 0002:0000fdc8       ??_R4exception@std@@6B@    004d4dc8     Game.obj
 0002:0000fddc       ??_R2bad_array_new_length@std@@8 004d4ddc     Game.obj
 0002:0000fdec       ??_R4?$basic_ofstream@DU?$char_traits@D@std@@@std@@6B@ 004d4dec     Game.obj
 0002:0000fe00       ??_R3?$basic_ofstream@DU?$char_traits@D@std@@@std@@8 004d4e00     Game.obj
 0002:0000fe10       ??_R2CGame@@8              004d4e10     Game.obj
 0002:0000fe18       ??_R1A@?0A@EA@CGame@@8     004d4e18     Game.obj
 0002:0000fe34       ??_R1A@?0A@EA@bad_cast@std@@8 004d4e34     Game.obj
 0002:0000fe50       ??_R2bad_alloc@std@@8      004d4e50     Game.obj
 0002:0000fe5c       ??_R17A@3EA@?$_Iosb@H@std@@8 004d4e5c     Game.obj
 0002:0000fe78       ??_R1A@?0A@EA@exception@std@@8 004d4e78     Game.obj
 0002:0000fe94       ??_R2?$basic_ofstream@DU?$char_traits@D@std@@@std@@8 004d4e94     Game.obj
 0002:0000feac       ??_R3CGame@@8              004d4eac     Game.obj
 0002:0000febc       ??_R1A@?0A@EA@?$basic_streambuf@DU?$char_traits@D@std@@@std@@8 004d4ebc     Game.obj
 0002:0000fed8       ??_R1A@?0A@EA@bad_alloc@std@@8 004d4ed8     Game.obj
 0002:0000fef4       ??_R2bad_cast@std@@8       004d4ef4     Game.obj
 0002:0000ff00       ??_R2exception@std@@8      004d4f00     Game.obj
 0002:0000ff08       ??_R2?$basic_ostream@DU?$char_traits@D@std@@@std@@8 004d4f08     Game.obj
 0002:0000ff1c       ??_R3?$basic_ios@DU?$char_traits@D@std@@@std@@8 004d4f1c     Game.obj
 0002:0000ff2c       ??_R1A@?0A@EA@ios_base@std@@8 004d4f2c     Game.obj
 0002:0000ff48       ??_R3exception@std@@8      004d4f48     Game.obj
 0002:0000ff58       ??_R1A@?0A@EA@?$basic_ostream@DU?$char_traits@D@std@@@std@@8 004d4f58     Game.obj
 0002:0000ff74       ??_R4?$basic_filebuf@DU?$char_traits@D@std@@@std@@6B@ 004d4f74     Game.obj
 0002:0000ff88       ??_R2?$basic_streambuf@DU?$char_traits@D@std@@@std@@8 004d4f88     Game.obj
 0002:0000ff90       ??_R1A@?0A@EA@?$_Iosb@H@std@@8 004d4f90     Game.obj
 0002:0000ffac       ??_R3bad_cast@std@@8       004d4fac     Game.obj
 0002:0000ffbc       ??_R4bad_alloc@std@@6B@    004d4fbc     Game.obj
 0002:0000ffd0       ??_R4bad_cast@std@@6B@     004d4fd0     Game.obj
 0002:0000ffe4       ??_R4CGame@@6B@            004d4fe4     Game.obj
 0002:0000fff8       ??_R4CxImage@@6B@          004d4ff8     Game.obj
 0002:0001000c       ??_R3bad_array_new_length@std@@8 004d500c     Game.obj
 0002:0001001c       ??_R3CxImage@@8            004d501c     Game.obj
 0002:0001002c       ??_R1A@?0A@EA@?$basic_ofstream@DU?$char_traits@D@std@@@std@@8 004d502c     Game.obj
 0002:00010048       ??_R3bad_alloc@std@@8      004d5048     Game.obj
 0002:00010058       ??_R1A@?0A@EA@?$basic_filebuf@DU?$char_traits@D@std@@@std@@8 004d5058     Game.obj
 0002:00010074       ??_R1A@A@3FA@?$basic_ios@DU?$char_traits@D@std@@@std@@8 004d5074     Game.obj
 0002:00010090       ??_R4bad_array_new_length@std@@6B@ 004d5090     Game.obj
 0002:000100a4       ??_R3?$basic_filebuf@DU?$char_traits@D@std@@@std@@8 004d50a4     Game.obj
 0002:000100b4       ??_R2CxImage@@8            004d50b4     Game.obj
 0002:000100bc       ??_R2ios_base@std@@8       004d50bc     Game.obj
 0002:000100c8       ??_R3?$basic_ostream@DU?$char_traits@D@std@@@std@@8 004d50c8     Game.obj
 0002:000100d8       ??_R3ios_base@std@@8       004d50d8     Game.obj
 0002:000100e8       ??_R2?$basic_filebuf@DU?$char_traits@D@std@@@std@@8 004d50e8     Game.obj
 0002:000100f4       ??_R3?$basic_streambuf@DU?$char_traits@D@std@@@std@@8 004d50f4     Game.obj
 0002:00010104       ??_R1A@?0A@EA@bad_array_new_length@std@@8 004d5104     Game.obj
 0002:00010120       ??_R2?$_Iosb@H@std@@8      004d5120     Game.obj
 0002:00010128       ??_R1A@A@3EA@ios_base@std@@8 004d5128     Game.obj
 0002:00010144       ??_R1A@?0A@EA@?$basic_ios@DU?$char_traits@D@std@@@std@@8 004d5144     Game.obj
 0002:00010160       ??_R3?$_Iosb@H@std@@8      004d5160     Game.obj
 0002:00010170       ??_R17?0A@EA@?$_Iosb@H@std@@8 004d5170     Game.obj
 0002:0001018c       ??_R1A@?0A@EA@CxImage@@8   004d518c     Game.obj
 0002:000101a8       ??_R2?$basic_ios@DU?$char_traits@D@std@@@std@@8 004d51a8     Game.obj
 0002:000101b8       ??_R4CGameMonitor@@6B@     004d51b8     GameMonitor.obj
 0002:000101cc       ??_R3CGameMonitor@@8       004d51cc     GameMonitor.obj
 0002:000101dc       ??_R2CGameMonitor@@8       004d51dc     GameMonitor.obj
 0002:000101e4       ??_R1A@?0A@EA@CGameMonitor@@8 004d51e4     GameMonitor.obj
 0002:00010200       ??_R3CItem@@8              004d5200     Item.obj
 0002:00010210       ??_R2CItem@@8              004d5210     Item.obj
 0002:00010218       ??_R1A@?0A@EA@CItem@@8     004d5218     Item.obj
 0002:00010234       ??_R4CItem@@6B@            004d5234     Item.obj
 0002:00010248       ??_R2CItemName@@8          004d5248     ItemName.obj
 0002:00010250       ??_R1A@?0A@EA@CItemName@@8 004d5250     ItemName.obj
 0002:0001026c       ??_R3CItemName@@8          004d526c     ItemName.obj
 0002:0001027c       ??_R4CItemName@@6B@        004d527c     ItemName.obj
 0002:00010290       ??_R2CMagic@@8             004d5290     Magic.obj
 0002:00010298       ??_R3CMagic@@8             004d5298     Magic.obj
 0002:000102a8       ??_R4CMagic@@6B@           004d52a8     Magic.obj
 0002:000102bc       ??_R1A@?0A@EA@CMagic@@8    004d52bc     Magic.obj
 0002:000102d8       ??_R2CMapData@@8           004d52d8     MapData.obj
 0002:000102e0       ??_R1A@?0A@EA@CMapData@@8  004d52e0     MapData.obj
 0002:000102fc       ??_R4CMapData@@6B@         004d52fc     MapData.obj
 0002:00010310       ??_R3CMapData@@8           004d5310     MapData.obj
 0002:00010320       ??_R4CMisc@@6B@            004d5320     Misc.obj
 0002:00010334       ??_R1A@?0A@EA@CMisc@@8     004d5334     Misc.obj
 0002:00010350       ??_R2CMisc@@8              004d5350     Misc.obj
 0002:00010358       ??_R3CMisc@@8              004d5358     Misc.obj
 0002:00010368       ??_R4CMobCounter@@6B@      004d5368     MobCounter.obj
 0002:0001037c       ??_R1A@?0A@EA@CMobCounter@@8 004d537c     MobCounter.obj
 0002:00010398       ??_R3CMobCounter@@8        004d5398     MobCounter.obj
 0002:000103a8       ??_R2CMobCounter@@8        004d53a8     MobCounter.obj
 0002:000103b0       ??_R2CMouseInterface@@8    004d53b0     MouseInterface.obj
 0002:000103b8       ??_R1A@?0A@EA@CMouseInterface@@8 004d53b8     MouseInterface.obj
 0002:000103d4       ??_R4CMouseInterface@@6B@  004d53d4     MouseInterface.obj
 0002:000103e8       ??_R3CMouseInterface@@8    004d53e8     MouseInterface.obj
 0002:000103f8       ??_R4CMsg@@6B@             004d53f8     Msg.obj
 0002:0001040c       ??_R3CMsg@@8               004d540c     Msg.obj
 0002:0001041c       ??_R2CMsg@@8               004d541c     Msg.obj
 0002:00010424       ??_R1A@?0A@EA@CMsg@@8      004d5424     Msg.obj
 0002:00010440       ??_R4CSkill@@6B@           004d5440     Skill.obj
 0002:00010454       ??_R2CSkill@@8             004d5454     Skill.obj
 0002:0001045c       ??_R3CSkill@@8             004d545c     Skill.obj
 0002:0001046c       ??_R1A@?0A@EA@CSkill@@8    004d546c     Skill.obj
 0002:00010488       ??_R2CSoundBuffer@@8       004d5488     SoundBuffer.obj
 0002:00010490       ??_R4CSoundBuffer@@6B@     004d5490     SoundBuffer.obj
 0002:000104a4       ??_R1A@?0A@EA@CSoundBuffer@@8 004d54a4     SoundBuffer.obj
 0002:000104c0       ??_R3CSoundBuffer@@8       004d54c0     SoundBuffer.obj
 0002:000104d0       ??_R4CSprite@@6B@          004d54d0     Sprite.obj
 0002:000104e4       ??_R2CSprite@@8            004d54e4     Sprite.obj
 0002:000104ec       ??_R1A@?0A@EA@CSprite@@8   004d54ec     Sprite.obj
 0002:00010508       ??_R3CSprite@@8            004d5508     Sprite.obj
 0002:00010518       ??_R2CStrTok@@8            004d5518     StrTok.obj
 0002:00010520       ??_R4CStrTok@@6B@          004d5520     StrTok.obj
 0002:00010534       ??_R3CStrTok@@8            004d5534     StrTok.obj
 0002:00010544       ??_R1A@?0A@EA@CStrTok@@8   004d5544     StrTok.obj
 0002:00010560       ??_R4CTile@@6B@            004d5560     Tile.obj
 0002:00010574       ??_R3CTile@@8              004d5574     Tile.obj
 0002:00010584       ??_R2CTile@@8              004d5584     Tile.obj
 0002:0001058c       ??_R1A@?0A@EA@CTile@@8     004d558c     Tile.obj
 0002:000105a8       ??_R4CTileSpr@@6B@         004d55a8     TileSpr.obj
 0002:000105bc       ??_R1A@?0A@EA@CTileSpr@@8  004d55bc     TileSpr.obj
 0002:000105d8       ??_R2CTileSpr@@8           004d55d8     TileSpr.obj
 0002:000105e0       ??_R3CTileSpr@@8           004d55e0     TileSpr.obj
 0002:000105f0       ??_R2XSocket@@8            004d55f0     XSocket.obj
 0002:000105f8       ??_R1A@?0A@EA@XSocket@@8   004d55f8     XSocket.obj
 0002:00010614       ??_R4XSocket@@6B@          004d5614     XSocket.obj
 0002:00010628       ??_R3XSocket@@8            004d5628     XSocket.obj
 0002:00010638       ??_R3YWSound@@8            004d5638     YWSound.obj
 0002:00010648       ??_R2YWSound@@8            004d5648     YWSound.obj
 0002:00010650       ??_R4YWSound@@6B@          004d5650     YWSound.obj
 0002:00010664       ??_R1A@?0A@EA@YWSound@@8   004d5664     YWSound.obj
 0002:00010680       ___volatile_metadata       004d5680     <linker-defined>
 0002:00010af0       ___rtc_iaa                 004d5af0     MSVCRT:initsect.obj
 0002:00010af4       ___rtc_izz                 004d5af4     MSVCRT:initsect.obj
 0002:00010af8       ___rtc_taa                 004d5af8     MSVCRT:initsect.obj
 0002:00010afc       ___rtc_tzz                 004d5afc     MSVCRT:initsect.obj
 0002:00010b00       __tls_start                004d5b00     MSVCRT:tlssup.obj
 0002:00010b04       __Init_thread_epoch        004d5b04     MSVCRT:thread_safe_statics.obj
 0002:00010b08       __tls_end                  004d5b08     MSVCRT:tlssup.obj
 0002:0001213c       __TI2PAD                   004d713c     cximage:ximabmp.obj
 0002:0001214c       __CTA2PAD                  004d714c     cximage:ximabmp.obj
 0002:00012158       __CT??_R0PAD@84            004d7158     cximage:ximabmp.obj
 0002:00012174       __CT??_R0PAX@84            004d7174     cximage:ximabmp.obj
 0002:0001230c       __TI2?AVbad_alloc@std@@    004d730c     MSVCRT:throw_bad_alloc.obj
 0002:0001231c       __CTA2?AVbad_alloc@std@@   004d731c     MSVCRT:throw_bad_alloc.obj
 0002:00012328       __TI1H                     004d7328     DXC_ddraw.obj
 0002:00012338       __CT??_R0H@84              004d7338     DXC_ddraw.obj
 0002:00012354       __CTA1H                    004d7354     DXC_ddraw.obj
 0002:0001235c       __CTA3?AVbad_array_new_length@std@@ 004d735c     Game.obj
 0002:0001236c       __CT??_R0?AVbad_alloc@std@@@8??0bad_alloc@std@@QAE@ABV01@@Z12 004d736c     Game.obj
 0002:00012388       __CTA2?AVbad_cast@std@@    004d7388     Game.obj
 0002:00012394       __CT??_R0?AVbad_cast@std@@@8??0bad_cast@std@@QAE@ABV01@@Z12 004d7394     Game.obj
 0002:000123b0       __TI2?AVbad_cast@std@@     004d73b0     Game.obj
 0002:000123c0       __CT??_R0?AVexception@std@@@8??0exception@std@@QAE@ABV01@@Z12 004d73c0     Game.obj
 0002:000123dc       __TI3?AVbad_array_new_length@std@@ 004d73dc     Game.obj
 0002:000123ec       __CT??_R0?AVbad_array_new_length@std@@@8??0bad_array_new_length@std@@QAE@ABV01@@Z12 004d73ec     Game.obj
 0002:000145a4       __IMPORT_DESCRIPTOR_search 004d95a4     search:search.dll
 0002:000145b8       __IMPORT_DESCRIPTOR_WSOCK32 004d95b8     wsock32:WSOCK32.dll
 0002:000145cc       __IMPORT_DESCRIPTOR_DINPUT 004d95cc     DINPUT:DINPUT.dll
 0002:000145e0       __IMPORT_DESCRIPTOR_DSOUND 004d95e0     DSOUND:DSOUND.dll
 0002:000145f4       __IMPORT_DESCRIPTOR_DDRAW  004d95f4     ddraw:DDRAW.dll
 0002:00014608       __IMPORT_DESCRIPTOR_IMM32  004d9608     IMM32:IMM32.dll
 0002:0001461c       __IMPORT_DESCRIPTOR_WINMM  004d961c     winmm:WINMM.dll
 0002:00014630       __IMPORT_DESCRIPTOR_KERNEL32 004d9630     kernel32:KERNEL32.dll
 0002:00014644       __IMPORT_DESCRIPTOR_USER32 004d9644     user32:USER32.dll
 0002:00014658       __IMPORT_DESCRIPTOR_GDI32  004d9658     gdi32:GDI32.dll
 0002:0001466c       __IMPORT_DESCRIPTOR_ADVAPI32 004d966c     advapi32:ADVAPI32.dll
 0002:00014680       __IMPORT_DESCRIPTOR_MSVCP140 004d9680     msvcprt:MSVCP140.dll
 0002:00014694       __IMPORT_DESCRIPTOR_d3d11  004d9694     d3d11:d3d11.dll
 0002:000146a8       __IMPORT_DESCRIPTOR_D3DCOMPILER_47 004d96a8     d3dcompiler:D3DCOMPILER_47.dll
 0002:000146bc       __IMPORT_DESCRIPTOR_VCRUNTIME140 004d96bc     vcruntime:VCRUNTIME140.dll
 0002:000146d0       __IMPORT_DESCRIPTOR_api-ms-win-crt-stdio-l1-1-0 004d96d0     ucrt:api-ms-win-crt-stdio-l1-1-0.dll
 0002:000146e4       __IMPORT_DESCRIPTOR_api-ms-win-crt-string-l1-1-0 004d96e4     ucrt:api-ms-win-crt-string-l1-1-0.dll
 0002:000146f8       __IMPORT_DESCRIPTOR_api-ms-win-crt-utility-l1-1-0 004d96f8     ucrt:api-ms-win-crt-utility-l1-1-0.dll
 0002:0001470c       __IMPORT_DESCRIPTOR_api-ms-win-crt-runtime-l1-1-0 004d970c     ucrt:api-ms-win-crt-runtime-l1-1-0.dll
 0002:00014720       __IMPORT_DESCRIPTOR_api-ms-win-crt-filesystem-l1-1-0 004d9720     ucrt:api-ms-win-crt-filesystem-l1-1-0.dll
 0002:00014734       __IMPORT_DESCRIPTOR_api-ms-win-crt-time-l1-1-0 004d9734     ucrt:api-ms-win-crt-time-l1-1-0.dll
 0002:00014748       __IMPORT_DESCRIPTOR_api-ms-win-crt-convert-l1-1-0 004d9748     ucrt:api-ms-win-crt-convert-l1-1-0.dll
 0002:0001475c       __IMPORT_DESCRIPTOR_api-ms-win-crt-math-l1-1-0 004d975c     ucrt:api-ms-win-crt-math-l1-1-0.dll
 0002:00014770       __IMPORT_DESCRIPTOR_api-ms-win-crt-heap-l1-1-0 004d9770     ucrt:api-ms-win-crt-heap-l1-1-0.dll
 0002:00014784       __IMPORT_DESCRIPTOR_api-ms-win-crt-environment-l1-1-0 004d9784     ucrt:api-ms-win-crt-environment-l1-1-0.dll
 0002:00014798       __IMPORT_DESCRIPTOR_api-ms-win-crt-locale-l1-1-0 004d9798     ucrt:api-ms-win-crt-locale-l1-1-0.dll
 0002:000147ac       __NULL_IMPORT_DESCRIPTOR   004d97ac     search:search.dll
 0003:00000014       __Init_global_epoch        004dc014     MSVCRT:thread_safe_statics.obj
 0003:00000018       ___scrt_native_dllmain_reason 004dc018     MSVCRT:utility.obj
 0003:00000040       ___security_cookie         004dc040     MSVCRT:gs_cookie.obj
 0003:00000080       ___security_cookie_complement 004dc080     MSVCRT:gs_cookie.obj
 0003:00000084       __fltused                  004dc084     MSVCRT:fltused.obj
 0003:00000090       ___isa_inverted            004dc090     MSVCRT:cpu_disp.obj
 0003:00000098       ___isa_enabled             004dc098     MSVCRT:cpu_disp.obj
 0003:000000a0       ___scrt_default_matherr    004dc0a0     MSVCRT:matherr.obj
 0003:000000a4       ___scrt_ucrt_dll_is_in_use 004dc0a4     MSVCRT:ucrt_stubs.obj
 0003:000000b8       _NvOptimusEnablement       004dc0b8     Wmain.obj
 0003:000000bc       _AmdPowerXpressRequestHighPerformance 004dc0bc     Wmain.obj
 0003:000000c0       ??_R0PAD@8                 004dc0c0     cximage:ximabmp.obj
 0003:000000d0       ??_R0PAX@8                 004dc0d0     cximage:ximabmp.obj
 0003:000000e0       ??_R0H@8                   004dc0e0     DXC_ddraw.obj
 0003:000000ec       ??_R0?AVbad_alloc@std@@@8  004dc0ec     Game.obj
 0003:00000108       ??_R0?AVbad_cast@std@@@8   004dc108     Game.obj
 0003:00000124       ??_R0?AVexception@std@@@8  004dc124     Game.obj
 0003:00000140       ??_R0?AVbad_array_new_length@std@@@8 004dc140     Game.obj
 0003:00000168       ??_R0?AVCxFile@@@8         004dc168     cximage:ximainfo.obj
 0003:00000180       ??_R0?AVCxIOFile@@@8       004dc180     cximage:ximainfo.obj
 0003:00000198       ??_R0?AVCxMemFile@@@8      004dc198     cximage:ximainfo.obj
 0003:000001b0       ??_R0?AVCxImageJPG@@@8     004dc1b0     cximage:ximaenc.obj
 0003:000001cc       ??_R0?AVCxImageBMP@@@8     004dc1cc     cximage:ximaenc.obj
 0003:000001e8       ??_R0?AVtype_info@@@8      004dc1e8     MSVCRT:std_type_info_static.obj
 0003:00000200       ??_R0?AVCBuildItem@@@8     004dc200     BuildItem.obj
 0003:0000021c       ??_R0?AVCCharInfo@@@8      004dc21c     CharInfo.obj
 0003:00000234       ??_R0?AVCCurse@@@8         004dc234     Curse.obj
 0003:0000024c       ??_R0?AVDXC_ddraw@@@8      004dc24c     DXC_ddraw.obj
 0003:00000264       ??_R0?AVDXC_dinput@@@8     004dc264     DXC_dinput.obj
 0003:00000280       ??_R0?AVCEffect@@@8        004dc280     Effect.obj
 0003:00000298       ??_R0?AV?$basic_filebuf@DU?$char_traits@D@std@@@std@@@8 004dc298     Game.obj
 0003:000002d4       ??_R0?AVios_base@std@@@8   004dc2d4     Game.obj
 0003:000002f0       ??_R0?AV?$_Iosb@H@std@@@8  004dc2f0     Game.obj
 0003:0000030c       ??_R0?AV?$basic_ofstream@DU?$char_traits@D@std@@@std@@@8 004dc30c     Game.obj
 0003:00000348       ??_R0?AV?$basic_streambuf@DU?$char_traits@D@std@@@std@@@8 004dc348     Game.obj
 0003:00000384       ??_R0?AVCGame@@@8          004dc384     Game.obj
 0003:00000398       ??_R0?AVCxImage@@@8        004dc398     Game.obj
 0003:000003b0       ??_R0?AV?$basic_ios@DU?$char_traits@D@std@@@std@@@8 004dc3b0     Game.obj
 0003:000003e8       ??_R0?AV?$basic_ostream@DU?$char_traits@D@std@@@std@@@8 004dc3e8     Game.obj
 0003:00000424       ??_R0?AVCGameMonitor@@@8   004dc424     GameMonitor.obj
 0003:00000440       ??_R0?AVCItem@@@8          004dc440     Item.obj
 0003:00000454       ??_R0?AVCItemName@@@8      004dc454     ItemName.obj
 0003:0000046c       ??_R0?AVCMagic@@@8         004dc46c     Magic.obj
 0003:00000484       ??_R0?AVCMapData@@@8       004dc484     MapData.obj
 0003:0000049c       ??_R0?AVCMisc@@@8          004dc49c     Misc.obj
 0003:000004b0       ??_R0?AVCMobCounter@@@8    004dc4b0     MobCounter.obj
 0003:000004cc       ??_R0?AVCMouseInterface@@@8 004dc4cc     MouseInterface.obj
 0003:000004ec       ??_R0?AVCMsg@@@8           004dc4ec     Msg.obj
 0003:00000500       ??_R0?AVCSkill@@@8         004dc500     Skill.obj
 0003:00000518       ??_R0?AVCSoundBuffer@@@8   004dc518     SoundBuffer.obj
 0003:00000534       ??_R0?AVCSprite@@@8        004dc534     Sprite.obj
 0003:0000054c       ??_R0?AVCStrTok@@@8        004dc54c     StrTok.obj
 0003:00000564       ??_R0?AVCTile@@@8          004dc564     Tile.obj
 0003:00000578       ??_R0?AVCTileSpr@@@8       004dc578     TileSpr.obj
 0003:00000590       ??_R0?AVXSocket@@@8        004dc590     XSocket.obj
 0003:000005a8       ??_R0?AVYWSound@@@8        004dc5a8     YWSound.obj
 0003:000008e4       ___scrt_current_native_startup_state 004dc8e4     MSVCRT:utility.obj
 0003:000008e8       ___scrt_native_startup_lock 004dc8e8     MSVCRT:utility.obj
 0003:00000908       ___avx10_version           004dc908     MSVCRT:cpu_disp.obj
 0003:0000090c       ___isa_available           004dc90c     MSVCRT:cpu_disp.obj
 0003:00000910       ___favor                   004dc910     MSVCRT:cpu_disp.obj
 0003:00000914       __tls_index                004dc914     MSVCRT:tlssup.obj
 0003:00000918       ___scrt_debugger_hook_flag 004dc918     MSVCRT:utility_desktop.obj
 0003:00000920       ?__type_info_root_node@@3U__type_info_node@@A 004dc920     MSVCRT:tncleanup.obj
 0003:00000930       ?_OptionsStorage@?1??__local_stdio_printf_options@@9@4_KA 004dc930     Curse.obj
 0003:00000938       ?_tmp_sAppr1@@3FA          004dc938     Game.obj
 0003:0000093a       ?cDynamicObjectData3@@3DA  004dc93a     Game.obj
 0003:0000093b       ?cFocusAction@@3DA         004dc93b     Game.obj
 0003:0000093c       ?_tmp_sAppr4@@3FA          004dc93c     Game.obj
 0003:0000093e       ?cFocusDir@@3DA            004dc93e     Game.obj
 0003:0000093f       ?cDynamicObjectData2@@3DA  004dc93f     Game.obj
 0003:00000940       ?iFocusApprColor@@3HA      004dc940     Game.obj
 0003:00000944       ?_tmp_sAppr3@@3FA          004dc944     Game.obj
 0003:00000946       ?cDynamicObjectData1@@3DA  004dc946     Game.obj
 0003:00000947       ?_tmp_cAction@@3DA         004dc947     Game.obj
 0003:00000948       ?_tmp_iEffectFrame@@3HA    004dc948     Game.obj
 0003:0000094c       ?wFocusObjectID@@3GA       004dc94c     Game.obj
 0003:0000094e       ?_tmp_cFrame@@3DA          004dc94e     Game.obj
 0003:0000094f       ?cDynamicObjectData4@@3DA  004dc94f     Game.obj
 0003:00000950       ?sFocus_dX@@3FA            004dc950     Game.obj
 0003:00000952       ?cFocusFrame@@3DA          004dc952     Game.obj
 0003:00000953       ?_tmp_cDir@@3DA            004dc953     Game.obj
 0003:00000954       ?_tmp_wObjectID@@3GA       004dc954     Game.obj
 0003:00000956       ?G_cSpriteAlphaDegree@@3DA 004dc956     Wmain.obj
 0003:00000958       ?_tmp_sAppr2@@3FA          004dc958     Game.obj
 0003:0000095c       ?sFocusAppr3@@3FA          004dc95c     Game.obj
 0003:00000960       ?_tmp_iApprColor@@3HA      004dc960     Game.obj
 0003:00000964       ?_tmp_cName@@3PADA         004dc964     Game.obj
 0003:00000970       ?sFocusY@@3FA              004dc970     Game.obj
 0003:00000974       ?sFocusX@@3FA              004dc974     Game.obj
 0003:00000978       ?iFocuiStatus@@3HA         004dc978     Game.obj
 0003:0000097c       ?sFocus_dY@@3FA            004dc97c     Game.obj
 0003:00000980       ?sFocusAppr1@@3FA          004dc980     Game.obj
 0003:00000984       ?_tmp_iChatIndex@@3HA      004dc984     Game.obj
 0003:00000988       ?cFocusName@@3PADA         004dc988     Game.obj
 0003:00000994       ?sFocusAppr4@@3FA          004dc994     Game.obj
 0003:00000998       ?_tmp_sOwnerType@@3FA      004dc998     Game.obj
 0003:0000099c       ?_tmp_iEffectType@@3HA     004dc99c     Game.obj
 0003:000009a0       ?_tmp_dY@@3HA              004dc9a0     Game.obj
 0003:000009a4       ?sFocusAppr2@@3FA          004dc9a4     Game.obj
 0003:000009a8       ?_tmp_iStatus@@3HA         004dc9a8     Game.obj
 0003:000009ac       ?sFocusOwnerType@@3FA      004dc9ac     Game.obj
 0003:000009b0       ?_tmp_dX@@3HA              004dc9b0     Game.obj
 0003:000009b4       ?g_pHardwareCursor@@3PAVCHardwareCursor@@A 004dc9b4     HardwareCursor.obj
 0003:000009b8       ?G_lTransRB70@@3PAY0EA@JA  004dc9b8     Wmain.obj
 0003:000049b8       ?G_lTransG25@@3PAY0EA@JA   004e09b8     Wmain.obj
 0003:000089b8       ?G_lTransRB2@@3PAY0EA@JA   004e49b8     Wmain.obj
 0003:0000c9b8       ?G_lTransRB100@@3PAY0EA@JA 004e89b8     Wmain.obj
 0003:000109b8       ?G_lTransG2@@3PAY0EA@JA    004ec9b8     Wmain.obj
 0003:000149b8       ?G_lTransG70@@3PAY0EA@JA   004f09b8     Wmain.obj
 0003:000189b8       ?G_lTransG100@@3PAY0EA@JA  004f49b8     Wmain.obj
 0003:0001c9b8       ?G_lTransG50@@3PAY0EA@JA   004f89b8     Wmain.obj
 0003:000209b8       ?G_hWnd@@3PAUHWND__@@A     004fc9b8     Wmain.obj
 0003:000209bc       ?G_dwCalcSocketTime@@3KA   004fc9bc     Wmain.obj
 0003:000209c0       ?G_lTransRB25@@3PAY0EA@JA  004fc9c0     Wmain.obj
 0003:000249c0       ?G_lTransRB50@@3PAY0EA@JA  005009c0     Wmain.obj
 0003:000289c0       ?G_cCmdLineTokenD@@3PADA   005049c0     Wmain.obj
 0003:00028a38       ?G_cCmdLineTokenC@@3PADA   00504a38     Wmain.obj
 0003:00028ab0       ?G_cCmdLineTokenE@@3PADA   00504ab0     Wmain.obj
 0003:00028b28       ?G_cCmdLine@@3PADA         00504b28     Wmain.obj
 0003:00028c28       ?G_cCmdLineTokenA@@3PADA   00504c28     Wmain.obj
 0003:00028ca0       ?G_cCmdLineTokenB@@3PADA   00504ca0     Wmain.obj
 0003:00028d18       ?G_pCalcSocket@@3PAVXSocket@@A 00504d18     Wmain.obj
 0003:00028d1c       ?G_dwCalcSocketSendTime@@3KA 00504d1c     Wmain.obj
 0003:00028d20       ?G_cCmdLineTokenA_Lowercase@@3PADA 00504d20     Wmain.obj
 0003:00028d98       ?G_iAddTable31@@3PAY0BPO@HA 00504d98     Wmain.obj
 0003:00048b98       ?G_iAddTransTable63@@3PAY0EA@HA 00524b98     Wmain.obj
 0003:00068998       ?G_iAddTable63@@3PAY0BPO@HA 00544998     Wmain.obj
 0003:00088798       ?G_iAddTransTable31@@3PAY0EA@HA 00564798     Wmain.obj
 0003:000a8598       ?G_mmTimer@@3IA            00584598     Wmain.obj
 0003:000a859c       ?szAppClass@@3PADA         0058459c     Wmain.obj
 0003:000a85bc       ?G_pGame@@3PAVCGame@@A     005845bc     Wmain.obj
 0003:000a85c0       ?G_hInstance@@3PAUHINSTANCE__@@A 005845c0     Wmain.obj
 0003:000aa124       ?_Psave@?$_Facetptr@V?$codecvt@DDU_Mbstatet@@@std@@@std@@2PBVfacet@locale@2@B 00586124     Game.obj
 0003:000aa168       ?_Stinit@?1??_Init@?$basic_filebuf@DU?$char_traits@D@std@@@std@@IAEXPAU_iobuf@@W4_Initfl@23@@Z@4U_Mbstatet@@A 00586168     Game.obj
 0003:000ad568       ?_OptionsStorage@?1??__local_stdio_scanf_options@@9@9 00589568     <common>
 0003:000ad570       ___dyn_tls_dtor_callback   00589570     <common>
 0003:000ad574       ___dyn_tls_init_callback   00589574     <common>

 entry point at        0001:000c0bbe

 Static symbols

 0000:ffe6c000       .debug$S                   00400000     Game.exp
 0000:ffe6c000       .debug$S                   00400000     ucrt:api-ms-win-crt-convert-l1-1-0.dll
 0000:ffe6c000       .debug$S                   00400000     ucrt:api-ms-win-crt-convert-l1-1-0.dll
 0000:ffe6c000       .debug$S                   00400000     ucrt:api-ms-win-crt-convert-l1-1-0.dll
 0000:ffe6c000       .debug$S                   00400000     ucrt:api-ms-win-crt-environment-l1-1-0.dll
 0000:ffe6c000       .debug$S                   00400000     ucrt:api-ms-win-crt-filesystem-l1-1-0.dll
 0000:ffe6c000       .debug$S                   00400000     ucrt:api-ms-win-crt-filesystem-l1-1-0.dll
 0000:ffe6c000       .debug$S                   00400000     ucrt:api-ms-win-crt-filesystem-l1-1-0.dll
 0000:ffe6c000       .debug$S                   00400000     ucrt:api-ms-win-crt-heap-l1-1-0.dll
 0000:ffe6c000       .debug$S                   00400000     ucrt:api-ms-win-crt-heap-l1-1-0.dll
 0000:ffe6c000       .debug$S                   00400000     ucrt:api-ms-win-crt-heap-l1-1-0.dll
 0000:ffe6c000       .debug$S                   00400000     ucrt:api-ms-win-crt-heap-l1-1-0.dll
 0000:ffe6c000       .debug$S                   00400000     ucrt:api-ms-win-crt-heap-l1-1-0.dll
 0000:ffe6c000       .debug$S                   00400000     ucrt:api-ms-win-crt-locale-l1-1-0.dll
 0000:ffe6c000       .debug$S                   00400000     ucrt:api-ms-win-crt-math-l1-1-0.dll
 0000:ffe6c000       .debug$S                   00400000     ucrt:api-ms-win-crt-math-l1-1-0.dll
 0000:ffe6c000       .debug$S                   00400000     ucrt:api-ms-win-crt-math-l1-1-0.dll
 0000:ffe6c000       .debug$S                   00400000     ucrt:api-ms-win-crt-math-l1-1-0.dll
 0000:ffe6c000       .debug$S                   00400000     ucrt:api-ms-win-crt-math-l1-1-0.dll
 0000:ffe6c000       .debug$S                   00400000     ucrt:api-ms-win-crt-runtime-l1-1-0.dll
 0000:ffe6c000       .debug$S                   00400000     ucrt:api-ms-win-crt-runtime-l1-1-0.dll
 0000:ffe6c000       .debug$S                   00400000     ucrt:api-ms-win-crt-runtime-l1-1-0.dll
 0000:ffe6c000       .debug$S                   00400000     ucrt:api-ms-win-crt-runtime-l1-1-0.dll
 0000:ffe6c000       .debug$S                   00400000     ucrt:api-ms-win-crt-runtime-l1-1-0.dll
 0000:ffe6c000       .debug$S                   00400000     ucrt:api-ms-win-crt-runtime-l1-1-0.dll
 0000:ffe6c000       .debug$S                   00400000     ucrt:api-ms-win-crt-runtime-l1-1-0.dll
 0000:ffe6c000       .debug$S                   00400000     ucrt:api-ms-win-crt-runtime-l1-1-0.dll
 0000:ffe6c000       .debug$S                   00400000     ucrt:api-ms-win-crt-runtime-l1-1-0.dll
 0000:ffe6c000       .debug$S                   00400000     ucrt:api-ms-win-crt-runtime-l1-1-0.dll
 0000:ffe6c000       .debug$S                   00400000     ucrt:api-ms-win-crt-runtime-l1-1-0.dll
 0000:ffe6c000       .debug$S                   00400000     ucrt:api-ms-win-crt-runtime-l1-1-0.dll
 0000:ffe6c000       .debug$S                   00400000     ucrt:api-ms-win-crt-runtime-l1-1-0.dll
 0000:ffe6c000       .debug$S                   00400000     ucrt:api-ms-win-crt-runtime-l1-1-0.dll
 0000:ffe6c000       .debug$S                   00400000     ucrt:api-ms-win-crt-runtime-l1-1-0.dll
 0000:ffe6c000       .debug$S                   00400000     ucrt:api-ms-win-crt-runtime-l1-1-0.dll
 0000:ffe6c000       .debug$S                   00400000     ucrt:api-ms-win-crt-runtime-l1-1-0.dll
 0000:ffe6c000       .debug$S                   00400000     ucrt:api-ms-win-crt-runtime-l1-1-0.dll
 0000:ffe6c000       .debug$S                   00400000     ucrt:api-ms-win-crt-runtime-l1-1-0.dll
 0000:ffe6c000       .debug$S                   00400000     ucrt:api-ms-win-crt-runtime-l1-1-0.dll
 0000:ffe6c000       .debug$S                   00400000     ucrt:api-ms-win-crt-runtime-l1-1-0.dll
 0000:ffe6c000       .debug$S                   00400000     ucrt:api-ms-win-crt-stdio-l1-1-0.dll
 0000:ffe6c000       .debug$S                   00400000     ucrt:api-ms-win-crt-stdio-l1-1-0.dll
 0000:ffe6c000       .debug$S                   00400000     ucrt:api-ms-win-crt-stdio-l1-1-0.dll
 0000:ffe6c000       .debug$S                   00400000     ucrt:api-ms-win-crt-stdio-l1-1-0.dll
 0000:ffe6c000       .debug$S                   00400000     ucrt:api-ms-win-crt-stdio-l1-1-0.dll
 0000:ffe6c000       .debug$S                   00400000     ucrt:api-ms-win-crt-stdio-l1-1-0.dll
 0000:ffe6c000       .debug$S                   00400000     ucrt:api-ms-win-crt-stdio-l1-1-0.dll
 0000:ffe6c000       .debug$S                   00400000     ucrt:api-ms-win-crt-stdio-l1-1-0.dll
 0000:ffe6c000       .debug$S                   00400000     ucrt:api-ms-win-crt-stdio-l1-1-0.dll
 0000:ffe6c000       .debug$S                   00400000     ucrt:api-ms-win-crt-stdio-l1-1-0.dll
 0000:ffe6c000       .debug$S                   00400000     ucrt:api-ms-win-crt-stdio-l1-1-0.dll
 0000:ffe6c000       .debug$S                   00400000     ucrt:api-ms-win-crt-stdio-l1-1-0.dll
 0000:ffe6c000       .debug$S                   00400000     ucrt:api-ms-win-crt-stdio-l1-1-0.dll
 0000:ffe6c000       .debug$S                   00400000     ucrt:api-ms-win-crt-stdio-l1-1-0.dll
 0000:ffe6c000       .debug$S                   00400000     ucrt:api-ms-win-crt-stdio-l1-1-0.dll
 0000:ffe6c000       .debug$S                   00400000     ucrt:api-ms-win-crt-stdio-l1-1-0.dll
 0000:ffe6c000       .debug$S                   00400000     ucrt:api-ms-win-crt-stdio-l1-1-0.dll
 0000:ffe6c000       .debug$S                   00400000     ucrt:api-ms-win-crt-stdio-l1-1-0.dll
 0000:ffe6c000       .debug$S                   00400000     ucrt:api-ms-win-crt-stdio-l1-1-0.dll
 0000:ffe6c000       .debug$S                   00400000     ucrt:api-ms-win-crt-stdio-l1-1-0.dll
 0000:ffe6c000       .debug$S                   00400000     ucrt:api-ms-win-crt-stdio-l1-1-0.dll
 0000:ffe6c000       .debug$S                   00400000     ucrt:api-ms-win-crt-stdio-l1-1-0.dll
 0000:ffe6c000       .debug$S                   00400000     ucrt:api-ms-win-crt-stdio-l1-1-0.dll
 0000:ffe6c000       .debug$S                   00400000     ucrt:api-ms-win-crt-stdio-l1-1-0.dll
 0000:ffe6c000       .debug$S                   00400000     ucrt:api-ms-win-crt-stdio-l1-1-0.dll
 0000:ffe6c000       .debug$S                   00400000     ucrt:api-ms-win-crt-string-l1-1-0.dll
 0000:ffe6c000       .debug$S                   00400000     ucrt:api-ms-win-crt-string-l1-1-0.dll
 0000:ffe6c000       .debug$S                   00400000     ucrt:api-ms-win-crt-string-l1-1-0.dll
 0000:ffe6c000       .debug$S                   00400000     ucrt:api-ms-win-crt-string-l1-1-0.dll
 0000:ffe6c000       .debug$S                   00400000     ucrt:api-ms-win-crt-string-l1-1-0.dll
 0000:ffe6c000       .debug$S                   00400000     ucrt:api-ms-win-crt-string-l1-1-0.dll
 0000:ffe6c000       .debug$S                   00400000     ucrt:api-ms-win-crt-time-l1-1-0.dll
 0000:ffe6c000       .debug$S                   00400000     ucrt:api-ms-win-crt-utility-l1-1-0.dll
 0000:ffe6c000       .debug$S                   00400000     ucrt:api-ms-win-crt-utility-l1-1-0.dll
 0000:ffe6c000       .debug$S                   00400000     advapi32:ADVAPI32.dll
 0000:ffe6c000       .debug$S                   00400000     advapi32:ADVAPI32.dll
 0000:ffe6c000       .debug$S                   00400000     advapi32:ADVAPI32.dll
 0000:ffe6c000       .debug$S                   00400000     advapi32:ADVAPI32.dll
 0000:ffe6c000       .debug$S                   00400000     advapi32:ADVAPI32.dll
 0000:ffe6c000       .debug$S                   00400000     advapi32:ADVAPI32.dll
 0000:ffe6c000       .debug$S                   00400000     d3d11:d3d11.dll
 0000:ffe6c000       .debug$S                   00400000     d3dcompiler:D3DCOMPILER_47.dll
 0000:ffe6c000       .debug$S                   00400000     gdi32:GDI32.dll
 0000:ffe6c000       .debug$S                   00400000     gdi32:GDI32.dll
 0000:ffe6c000       .debug$S                   00400000     gdi32:GDI32.dll
 0000:ffe6c000       .debug$S                   00400000     gdi32:GDI32.dll
 0000:ffe6c000       .debug$S                   00400000     gdi32:GDI32.dll
 0000:ffe6c000       .debug$S                   00400000     gdi32:GDI32.dll
 0000:ffe6c000       .debug$S                   00400000     gdi32:GDI32.dll
 0000:ffe6c000       .debug$S                   00400000     gdi32:GDI32.dll
 0000:ffe6c000       .debug$S                   00400000     gdi32:GDI32.dll
 0000:ffe6c000       .debug$S                   00400000     gdi32:GDI32.dll
 0000:ffe6c000       .debug$S                   00400000     gdi32:GDI32.dll
 0000:ffe6c000       .debug$S                   00400000     gdi32:GDI32.dll
 0000:ffe6c000       .debug$S                   00400000     gdi32:GDI32.dll
 0000:ffe6c000       .debug$S                   00400000     gdi32:GDI32.dll
 0000:ffe6c000       .debug$S                   00400000     gdi32:GDI32.dll
 0000:ffe6c000       .debug$S                   00400000     gdi32:GDI32.dll
 0000:ffe6c000       .debug$S                   00400000     kernel32:KERNEL32.dll
 0000:ffe6c000       .debug$S                   00400000     kernel32:KERNEL32.dll
 0000:ffe6c000       .debug$S                   00400000     kernel32:KERNEL32.dll
 0000:ffe6c000       .debug$S                   00400000     kernel32:KERNEL32.dll
 0000:ffe6c000       .debug$S                   00400000     kernel32:KERNEL32.dll
 0000:ffe6c000       .debug$S                   00400000     kernel32:KERNEL32.dll
 0000:ffe6c000       .debug$S                   00400000     kernel32:KERNEL32.dll
 0000:ffe6c000       .debug$S                   00400000     kernel32:KERNEL32.dll
 0000:ffe6c000       .debug$S                   00400000     kernel32:KERNEL32.dll
 0000:ffe6c000       .debug$S                   00400000     kernel32:KERNEL32.dll
 0000:ffe6c000       .debug$S                   00400000     kernel32:KERNEL32.dll
 0000:ffe6c000       .debug$S                   00400000     kernel32:KERNEL32.dll
 0000:ffe6c000       .debug$S                   00400000     kernel32:KERNEL32.dll
 0000:ffe6c000       .debug$S                   00400000     kernel32:KERNEL32.dll
 0000:ffe6c000       .debug$S                   00400000     kernel32:KERNEL32.dll
 0000:ffe6c000       .debug$S                   00400000     kernel32:KERNEL32.dll
 0000:ffe6c000       .debug$S                   00400000     kernel32:KERNEL32.dll
 0000:ffe6c000       .debug$S                   00400000     kernel32:KERNEL32.dll
 0000:ffe6c000       .debug$S                   00400000     kernel32:KERNEL32.dll
 0000:ffe6c000       .debug$S                   00400000     kernel32:KERNEL32.dll
 0000:ffe6c000       .debug$S                   00400000     kernel32:KERNEL32.dll
 0000:ffe6c000       .debug$S                   00400000     kernel32:KERNEL32.dll
 0000:ffe6c000       .debug$S                   00400000     kernel32:KERNEL32.dll
 0000:ffe6c000       .debug$S                   00400000     kernel32:KERNEL32.dll
 0000:ffe6c000       .debug$S                   00400000     kernel32:KERNEL32.dll
 0000:ffe6c000       .debug$S                   00400000     kernel32:KERNEL32.dll
 0000:ffe6c000       .debug$S                   00400000     kernel32:KERNEL32.dll
 0000:ffe6c000       .debug$S                   00400000     kernel32:KERNEL32.dll
 0000:ffe6c000       .debug$S                   00400000     kernel32:KERNEL32.dll
 0000:ffe6c000       .debug$S                   00400000     kernel32:KERNEL32.dll
 0000:ffe6c000       .debug$S                   00400000     kernel32:KERNEL32.dll
 0000:ffe6c000       .debug$S                   00400000     kernel32:KERNEL32.dll
 0000:ffe6c000       .debug$S                   00400000     kernel32:KERNEL32.dll
 0000:ffe6c000       .debug$S                   00400000     kernel32:KERNEL32.dll
 0000:ffe6c000       .debug$S                   00400000     kernel32:KERNEL32.dll
 0000:ffe6c000       .debug$S                   00400000     kernel32:KERNEL32.dll
 0000:ffe6c000       .debug$S                   00400000     kernel32:KERNEL32.dll
 0000:ffe6c000       .debug$S                   00400000     kernel32:KERNEL32.dll
 0000:ffe6c000       .debug$S                   00400000     kernel32:KERNEL32.dll
 0000:ffe6c000       .debug$S                   00400000     kernel32:KERNEL32.dll
 0000:ffe6c000       .debug$S                   00400000     kernel32:KERNEL32.dll
 0000:ffe6c000       .debug$S                   00400000     kernel32:KERNEL32.dll
 0000:ffe6c000       .debug$S                   00400000     kernel32:KERNEL32.dll
 0000:ffe6c000       .debug$S                   00400000     kernel32:KERNEL32.dll
 0000:ffe6c000       .debug$S                   00400000     kernel32:KERNEL32.dll
 0000:ffe6c000       .debug$S                   00400000     shell32:SHELL32.dll
 0002:fff3b000       .idata$6                   00400000     shell32:SHELL32.dll
 0000:ffe6c000       .debug$S                   00400000     user32:USER32.dll
 0000:ffe6c000       .debug$S                   00400000     user32:USER32.dll
 0000:ffe6c000       .debug$S                   00400000     user32:USER32.dll
 0000:ffe6c000       .debug$S                   00400000     user32:USER32.dll
 0000:ffe6c000       .debug$S                   00400000     user32:USER32.dll
 0000:ffe6c000       .debug$S                   00400000     user32:USER32.dll
 0000:ffe6c000       .debug$S                   00400000     user32:USER32.dll
 0000:ffe6c000       .debug$S                   00400000     user32:USER32.dll
 0000:ffe6c000       .debug$S                   00400000     user32:USER32.dll
 0000:ffe6c000       .debug$S                   00400000     user32:USER32.dll
 0000:ffe6c000       .debug$S                   00400000     user32:USER32.dll
 0000:ffe6c000       .debug$S                   00400000     user32:USER32.dll
 0000:ffe6c000       .debug$S                   00400000     user32:USER32.dll
 0000:ffe6c000       .debug$S                   00400000     user32:USER32.dll
 0000:ffe6c000       .debug$S                   00400000     user32:USER32.dll
 0000:ffe6c000       .debug$S                   00400000     user32:USER32.dll
 0000:ffe6c000       .debug$S                   00400000     user32:USER32.dll
 0000:ffe6c000       .debug$S                   00400000     user32:USER32.dll
 0000:ffe6c000       .debug$S                   00400000     user32:USER32.dll
 0000:ffe6c000       .debug$S                   00400000     user32:USER32.dll
 0000:ffe6c000       .debug$S                   00400000     user32:USER32.dll
 0000:ffe6c000       .debug$S                   00400000     user32:USER32.dll
 0000:ffe6c000       .debug$S                   00400000     user32:USER32.dll
 0000:ffe6c000       .debug$S                   00400000     user32:USER32.dll
 0000:ffe6c000       .debug$S                   00400000     user32:USER32.dll
 0000:ffe6c000       .debug$S                   00400000     user32:USER32.dll
 0000:ffe6c000       .debug$S                   00400000     user32:USER32.dll
 0000:ffe6c000       .debug$S                   00400000     user32:USER32.dll
 0000:ffe6c000       .debug$S                   00400000     user32:USER32.dll
 0000:ffe6c000       .debug$S                   00400000     user32:USER32.dll
 0000:ffe6c000       .debug$S                   00400000     msvcprt:MSVCP140.dll
 0000:ffe6c000       .debug$S                   00400000     msvcprt:MSVCP140.dll
 0000:ffe6c000       .debug$S                   00400000     msvcprt:MSVCP140.dll
 0000:ffe6c000       .debug$S                   00400000     msvcprt:MSVCP140.dll
 0000:ffe6c000       .debug$S                   00400000     msvcprt:MSVCP140.dll
 0000:ffe6c000       .debug$S                   00400000     msvcprt:MSVCP140.dll
 0000:ffe6c000       .debug$S                   00400000     msvcprt:MSVCP140.dll
 0000:ffe6c000       .debug$S                   00400000     msvcprt:MSVCP140.dll
 0000:ffe6c000       .debug$S                   00400000     msvcprt:MSVCP140.dll
 0000:ffe6c000       .debug$S                   00400000     msvcprt:MSVCP140.dll
 0000:ffe6c000       .debug$S                   00400000     msvcprt:MSVCP140.dll
 0000:ffe6c000       .debug$S                   00400000     msvcprt:MSVCP140.dll
 0000:ffe6c000       .debug$S                   00400000     msvcprt:MSVCP140.dll
 0000:ffe6c000       .debug$S                   00400000     msvcprt:MSVCP140.dll
 0000:ffe6c000       .debug$S                   00400000     msvcprt:MSVCP140.dll
 0000:ffe6c000       .debug$S                   00400000     msvcprt:MSVCP140.dll
 0000:ffe6c000       .debug$S                   00400000     msvcprt:MSVCP140.dll
 0000:ffe6c000       .debug$S                   00400000     msvcprt:MSVCP140.dll
 0000:ffe6c000       .debug$S                   00400000     msvcprt:MSVCP140.dll
 0000:ffe6c000       .debug$S                   00400000     msvcprt:MSVCP140.dll
 0000:ffe6c000       .debug$S                   00400000     msvcprt:MSVCP140.dll
 0000:ffe6c000       .debug$S                   00400000     msvcprt:MSVCP140.dll
 0000:ffe6c000       .debug$S                   00400000     msvcprt:MSVCP140.dll
 0000:ffe6c000       .debug$S                   00400000     msvcprt:MSVCP140.dll
 0000:ffe6c000       .debug$S                   00400000     msvcprt:MSVCP140.dll
 0000:ffe6c000       .debug$S                   00400000     msvcprt:MSVCP140.dll
 0000:ffe6c000       .debug$S                   00400000     msvcprt:MSVCP140.dll
 0000:ffe6c000       .debug$S                   00400000     msvcprt:MSVCP140.dll
 0000:ffe6c000       .debug$S                   00400000     msvcprt:MSVCP140.dll
 0000:ffe6c000       .debug$S                   00400000     msvcprt:MSVCP140.dll
 0000:ffe6c000       .debug$S                   00400000     msvcprt:MSVCP140.dll
 0000:ffe6c000       .debug$S                   00400000     msvcprt:MSVCP140.dll
 0000:ffe6c000       .debug$S                   00400000     msvcprt:MSVCP140.dll
 0000:ffe6c000       .debug$S                   00400000     msvcprt:MSVCP140.dll
 0000:ffe6c000       .debug$S                   00400000     msvcprt:MSVCP140.dll
 0000:ffe6c000       .debug$S                   00400000     msvcprt:MSVCP140.dll
 0000:ffe6c000       .debug$S                   00400000     msvcprt:MSVCP140.dll
 0000:ffe6c000       .debug$S                   00400000     msvcprt:MSVCP140.dll
 0000:ffe6c000       .debug$S                   00400000     msvcprt:MSVCP140.dll
 0000:ffe6c000       .debug$S                   00400000     msvcprt:MSVCP140.dll
 0000:ffe6c000       .debug$S                   00400000     msvcprt:MSVCP140.dll
 0000:ffe6c000       .debug$S                   00400000     msvcprt:MSVCP140.dll
 0000:ffe6c000       .debug$S                   00400000     msvcprt:MSVCP140.dll
 0000:ffe6c000       .debug$S                   00400000     msvcprt:MSVCP140.dll
 0000:ffe6c000       .debug$S                   00400000     msvcprt:MSVCP140.dll
 0000:ffe6c000       .debug$S                   00400000     msvcprt:MSVCP140.dll
 0000:ffe6c000       .debug$S                   00400000     msvcprt:MSVCP140.dll
 0000:ffe6c000       .debug$S                   00400000     msvcprt:MSVCP140.dll
 0000:ffe6c000       .debug$S                   00400000     msvcprt:MSVCP140.dll
 0000:ffe6c000       .debug$S                   00400000     msvcprt:MSVCP140.dll
 0000:ffe6c000       .debug$S                   00400000     msvcprt:MSVCP140.dll
 0000:ffe6c000       .debug$S                   00400000     msvcprt:MSVCP140.dll
 0000:ffe6c000       .debug$S                   00400000     msvcprt:MSVCP140.dll
 0000:ffe6c000       .debug$S                   00400000     msvcprt:MSVCP140.dll
 0000:ffe6c000       .debug$S                   00400000     msvcprt:MSVCP140.dll
 0000:ffe6c000       .debug$S                   00400000     vcruntime:VCRUNTIME140.dll
 0000:ffe6c000       .debug$S                   00400000     vcruntime:VCRUNTIME140.dll
 0000:ffe6c000       .debug$S                   00400000     vcruntime:VCRUNTIME140.dll
 0000:ffe6c000       .debug$S                   00400000     vcruntime:VCRUNTIME140.dll
 0000:ffe6c000       .debug$S                   00400000     vcruntime:VCRUNTIME140.dll
 0000:ffe6c000       .debug$S                   00400000     vcruntime:VCRUNTIME140.dll
 0000:ffe6c000       .debug$S                   00400000     vcruntime:VCRUNTIME140.dll
 0000:ffe6c000       .debug$S                   00400000     vcruntime:VCRUNTIME140.dll
 0000:ffe6c000       .debug$S                   00400000     vcruntime:VCRUNTIME140.dll
 0000:ffe6c000       .debug$S                   00400000     vcruntime:VCRUNTIME140.dll
 0000:ffe6c000       .debug$S                   00400000     vcruntime:VCRUNTIME140.dll
 0000:ffe6c000       .debug$S                   00400000     vcruntime:VCRUNTIME140.dll
 0000:ffe6c000       .debug$S                   00400000     vcruntime:VCRUNTIME140.dll
 0000:ffe6c000       .debug$S                   00400000     vcruntime:VCRUNTIME140.dll
 0000:ffe6c000       .debug$S                   00400000     vcruntime:VCRUNTIME140.dll
 0000:ffe6c000       .debug$S                   00400000     vcruntime:VCRUNTIME140.dll
 0000:ffe6c000       .debug$S                   00400000     vcruntime:VCRUNTIME140.dll
 0000:ffe6c000       .debug$S                   00400000     vcruntime:VCRUNTIME140.dll
 0000:ffe6c000       .debug$S                   00400000     DINPUT:DINPUT.dll
 0000:ffe6c000       .debug$S                   00400000     DSOUND:DSOUND.dll
 0000:ffe6c000       .debug$S                   00400000     IMM32:IMM32.dll
 0000:ffe6c000       .debug$S                   00400000     IMM32:IMM32.dll
 0000:ffe6c000       .debug$S                   00400000     IMM32:IMM32.dll
 0000:ffe6c000       .debug$S                   00400000     ddraw:DDRAW.dll
 0000:ffe6c000       .debug$S                   00400000     search:search.dll
 0000:ffe6c000       .debug$S                   00400000     winmm:WINMM.dll
 0000:ffe6c000       .debug$S                   00400000     winmm:WINMM.dll
 0000:ffe6c000       .debug$S                   00400000     winmm:WINMM.dll
 0000:ffe6c000       .debug$S                   00400000     winmm:WINMM.dll
 0000:ffe6c000       .debug$S                   00400000     winmm:WINMM.dll
 0000:ffe6c000       .debug$S                   00400000     winmm:WINMM.dll
 0000:ffe6c000       .debug$S                   00400000     wsock32:WSOCK32.dll
 0000:ffe6c000       .debug$S                   00400000     wsock32:WSOCK32.dll
 0000:ffe6c000       .debug$S                   00400000     wsock32:WSOCK32.dll
 0000:ffe6c000       .debug$S                   00400000     wsock32:WSOCK32.dll
 0000:ffe6c000       .debug$S                   00400000     wsock32:WSOCK32.dll
 0000:ffe6c000       .debug$S                   00400000     wsock32:WSOCK32.dll
 0000:ffe6c000       .debug$S                   00400000     wsock32:WSOCK32.dll
 0000:ffe6c000       .debug$S                   00400000     wsock32:WSOCK32.dll
 0000:ffe6c000       .debug$S                   00400000     wsock32:WSOCK32.dll
 0000:ffe6c000       .debug$S                   00400000     wsock32:WSOCK32.dll
 0000:ffe6c000       .debug$S                   00400000     wsock32:WSOCK32.dll
 0000:ffe6c000       .debug$S                   00400000     wsock32:WSOCK32.dll
 0000:ffe6c000       .debug$S                   00400000     wsock32:WSOCK32.dll
 0000:ffe6c000       .debug$S                   00400000     wsock32:WSOCK32.dll
 0000:ffe6c000       .debug$S                   00400000     wsock32:WSOCK32.dll
 0000:ffe6c000       .debug$S                   00400000     wsock32:WSOCK32.dll
 0000:ffe6c000       .debug$S                   00400000     wsock32:WSOCK32.dll
 0000:ffe6c000       .debug$S                   00400000     wsock32:WSOCK32.dll
 0000:ffe6c000       .debug$S                   00400000     wsock32:WSOCK32.dll
 0001:00000000       _c_rgodfDIMouse$S39736     00401000     DINPUT:dilib1.obj
 0001:00000070       ??__E_Fac_tidy_reg@std@@YAXXZ 00401070 f   msvcprt:locale0_implib.obj
 0001:0000218c       __catch$?Screenshot@DXC_ddraw@@QAE_NPBDPAUIDirectDrawSurface7@@@Z$0 0040318c f   DXC_ddraw.obj
 0001:000021c4       __catch$?Screenshot@DXC_ddraw@@QAE_NPBDPAUIDirectDrawSurface7@@@Z$1 004031c4 f   DXC_ddraw.obj
 0001:00002800       _null_method               00403800 f i Jpeg:Jccolor.obj
 0001:00002800       _start_pass_downsample     00403800 f i Jpeg:Jcsample.obj
 0001:00002800       _start_pass_dcolor         00403800 f i Jpeg:Jdcolor.obj
 0001:00002800       _finish_pass_1_quant       00403800 f i Jpeg:Jquant1.obj
 0001:00002800       _finish_pass2              00403800 f i Jpeg:Jquant2.obj
 0001:00004878       $LN124                     00405878     Game.obj
 0001:00004d38       $LN25                      00405d38     Game.obj
 0001:00004fdc       $LN20                      00405fdc     Game.obj
 0001:0000627c       $LN95                      0040727c     Game.obj
 0001:00006298       $LN97                      00407298     Game.obj
 0001:000062ac       $LN96                      004072ac     Game.obj
 0001:000062f8       $LN99                      004072f8     Game.obj
 0001:00006320       $LN98                      00407320     Game.obj
 0001:00006340       $LN103                     00407340     Game.obj
 0001:0000634c       $LN102                     0040734c     Game.obj
 0001:0000845c       $LN294                     0040945c     Game.obj
 0001:00008464       $LN293                     00409464     Game.obj
 0001:00008474       $LN300                     00409474     Game.obj
 0001:000084a0       $LN305                     004094a0     Game.obj
 0001:000084d8       $LN302                     004094d8     Game.obj
 0001:000084e0       $LN301                     004094e0     Game.obj
 0001:000084f0       $LN304                     004094f0     Game.obj
 0001:00008510       $LN303                     00409510     Game.obj
 0001:000085e0       $LN307                     004095e0     Game.obj
 0001:0000860c       $LN306                     0040960c     Game.obj
 0001:00008674       $LN309                     00409674     Game.obj
 0001:0000867c       $LN308                     0040967c     Game.obj
 0001:00008e14       $LN163                     00409e14     Game.obj
 0001:00009518       $LN34                      0040a518     Game.obj
 0001:00009664       $LN17                      0040a664     Game.obj
 0001:00009684       $LN16                      0040a684     Game.obj
 0001:0000f604       $LN1359                    00410604     Game.obj
 0001:0000f670       $LN1358                    00410670     Game.obj
 0001:0000fd60       $LN60                      00410d60     Game.obj
 0001:00010364       $LN27                      00411364     Game.obj
 0001:00010390       $LN26                      00411390     Game.obj
 0001:000109a0       $LN51                      004119a0     Game.obj
 0001:000109b0       $LN50                      004119b0     Game.obj
 0001:00010ab4       $LN11                      00411ab4     Game.obj
 0001:00010ac8       $LN10                      00411ac8     Game.obj
 0001:00011384       $LN21                      00412384     Game.obj
 0001:00011d18       $LN60                      00412d18     Game.obj
 0001:00011d38       $LN59                      00412d38     Game.obj
 0001:00012408       $LN42                      00413408     Game.obj
 0001:00014998       $LN242                     00415998     Game.obj
 0001:000149a0       $LN241                     004159a0     Game.obj
 0001:000149a8       $LN244                     004159a8     Game.obj
 0001:00014af0       $LN243                     00415af0     Game.obj
 0001:00016484       $LN259                     00417484     Game.obj
 0001:000165c4       $LN258                     004175c4     Game.obj
 0001:000166c0       $LN260                     004176c0     Game.obj
 0001:00016c40       $LN61                      00417c40     Game.obj
 0001:00016c88       $LN60                      00417c88     Game.obj
 0001:000171d8       $LN52                      004181d8     Game.obj
 0001:00018334       $LN77                      00419334     Game.obj
 0001:000187d0       $LN58                      004197d0     Game.obj
 0001:0001890c       $LN17                      0041990c     Game.obj
 0001:00018918       $LN16                      00419918     Game.obj
 0001:0001ace8       $LN273                     0041bce8     Game.obj
 0001:0001ad00       $LN275                     0041bd00     Game.obj
 0001:0001ad08       $LN274                     0041bd08     Game.obj
 0001:0001ad5c       $LN277                     0041bd5c     Game.obj
 0001:0001ad64       $LN276                     0041bd64     Game.obj
 0001:0001adb8       $LN279                     0041bdb8     Game.obj
 0001:0001cf78       $LN306                     0041df78     Game.obj
 0001:0001cf9c       $LN307                     0041df9c     Game.obj
 0001:0001cfb4       $LN308                     0041dfb4     Game.obj
 0001:0001cfd4       $LN309                     0041dfd4     Game.obj
 0001:0001cff4       $LN310                     0041dff4     Game.obj
 0001:0001d014       $LN312                     0041e014     Game.obj
 0001:0001d01c       $LN311                     0041e01c     Game.obj
 0001:0001d070       $LN314                     0041e070     Game.obj
 0001:0001d078       $LN313                     0041e078     Game.obj
 0001:0001dd14       $LN104                     0041ed14     Game.obj
 0001:0001dd2c       $LN106                     0041ed2c     Game.obj
 0001:0001dd34       $LN105                     0041ed34     Game.obj
 0001:0001eaac       $LN121                     0041faac     Game.obj
 0001:0001eac4       $LN123                     0041fac4     Game.obj
 0001:0001eacc       $LN122                     0041facc     Game.obj
 0001:00022020       $LN450                     00423020     Game.obj
 0001:00022038       $LN452                     00423038     Game.obj
 0001:00022040       $LN451                     00423040     Game.obj
 0001:00022094       $LN454                     00423094     Game.obj
 0001:0002209c       $LN453                     0042309c     Game.obj
 0001:000220f0       $LN456                     004230f0     Game.obj
 0001:000220f8       $LN455                     004230f8     Game.obj
 0001:0002214c       $LN458                     0042314c     Game.obj
 0001:00022154       $LN457                     00423154     Game.obj
 0001:000221a8       $LN460                     004231a8     Game.obj
 0001:00023570       $LN207                     00424570     Game.obj
 0001:00023588       $LN209                     00424588     Game.obj
 0001:00023594       $LN208                     00424594     Game.obj
 0001:000235a4       $LN211                     004245a4     Game.obj
 0001:000235ac       $LN210                     004245ac     Game.obj
 0001:00023600       $LN212                     00424600     Game.obj
 0001:00023620       $LN213                     00424620     Game.obj
 0001:0002421c       $LN138                     0042521c     Game.obj
 0001:00024234       $LN140                     00425234     Game.obj
 0001:0002425c       $LN139                     0042525c     Game.obj
 0001:00026b04       $LN393                     00427b04     Game.obj
 0001:00026b1c       $LN394                     00427b1c     Game.obj
 0001:00026b3c       $LN395                     00427b3c     Game.obj
 0001:00026b5c       $LN397                     00427b5c     Game.obj
 0001:00026b64       $LN396                     00427b64     Game.obj
 0001:00026bc0       $LN399                     00427bc0     Game.obj
 0001:00026bc8       $LN398                     00427bc8     Game.obj
 0001:00026c1c       $LN401                     00427c1c     Game.obj
 0001:00026c24       $LN400                     00427c24     Game.obj
 0001:00026c78       $LN403                     00427c78     Game.obj
 0001:0002879c       $LN252                     0042979c     Game.obj
 0001:000287bc       $LN253                     004297bc     Game.obj
 0001:000287d4       $LN254                     004297d4     Game.obj
 0001:000287f4       $LN255                     004297f4     Game.obj
 0001:00028814       $LN257                     00429814     Game.obj
 0001:0002881c       $LN256                     0042981c     Game.obj
 0001:00028870       $LN259                     00429870     Game.obj
 0001:00028878       $LN258                     00429878     Game.obj
 0001:0002a0cc       $LN201                     0042b0cc     Game.obj
 0001:0002a0e4       $LN203                     0042b0e4     Game.obj
 0001:0002a0ec       $LN202                     0042b0ec     Game.obj
 0001:0002a140       $LN205                     0042b140     Game.obj
 0001:0002a148       $LN204                     0042b148     Game.obj
 0001:0002c90c       $LN332                     0042d90c     Game.obj
 0001:0002c924       $LN334                     0042d924     Game.obj
 0001:0002c92c       $LN333                     0042d92c     Game.obj
 0001:0002c978       $LN336                     0042d978     Game.obj
 0001:0002c980       $LN335                     0042d980     Game.obj
 0001:0002c9d4       $LN338                     0042d9d4     Game.obj
 0001:0002c9dc       $LN337                     0042d9dc     Game.obj
 0001:0002ca30       $LN340                     0042da30     Game.obj
 0001:0002ce94       $LN16                      0042de94     Game.obj
 0001:0002cf48       $LN17                      0042df48     Game.obj
 0001:0002d974       $LN148                     0042e974     Game.obj
 0001:0002d994       $LN149                     0042e994     Game.obj
 0001:0002d9a8       $LN151                     0042e9a8     Game.obj
 0001:0002d9f4       $LN150                     0042e9f4     Game.obj
 0001:0002da14       $LN152                     0042ea14     Game.obj
 0001:0002e054       $LN42                      0042f054     Game.obj
 0001:00032104       $LN414                     00433104     Game.obj
 0001:000321c8       $LN413                     004331c8     Game.obj
 0001:000322c4       $LN415                     004332c4     Game.obj
 0001:000345c0       $LN290                     004355c0     Game.obj
 0001:000345d8       $LN291                     004355d8     Game.obj
 0001:000345f8       $LN292                     004355f8     Game.obj
 0001:00034618       $LN294                     00435618     Game.obj
 0001:00034620       $LN293                     00435620     Game.obj
 0001:00034674       $LN296                     00435674     Game.obj
 0001:0003467c       $LN295                     0043567c     Game.obj
 0001:000346d0       $LN297                     004356d0     Game.obj
 0001:0003482c       $LN44                      0043582c     Game.obj
 0001:0003484c       $LN45                      0043584c     Game.obj
 0001:00034dbc       $LN133                     00435dbc     Game.obj
 0001:00034df0       $LN132                     00435df0     Game.obj
 0001:00036274       $LN68                      00437274     Game.obj
 0001:00036ffc       $LN163                     00437ffc     Game.obj
 0001:0003707c       $LN162                     0043807c     Game.obj
 0001:000370b4       $LN164                     004380b4     Game.obj
 0001:00037500       $LN75                      00438500     Game.obj
 0001:00037544       $LN74                      00438544     Game.obj
 0001:0003791c       $LN38                      0043891c     Game.obj
 0001:00037924       $LN37                      00438924     Game.obj
 0001:0003793c       $LN40                      0043893c     Game.obj
 0001:00037948       $LN39                      00438948     Game.obj
 0001:00038528       $LN30                      00439528     Game.obj
 0001:00039b0c       $LN61                      0043ab0c     Game.obj
 0001:0003a344       $LN9                       0043b344     Game.obj
 0001:0003bfec       $LN31                      0043cfec     Game.obj
 0001:0003c00c       $LN30                      0043d00c     Game.obj
 0001:0003c3c0       $LN43                      0043d3c0     Game.obj
 0001:0003c3d4       $LN42                      0043d3d4     Game.obj
 0001:0003ccdc       $LN9                       0043dcdc     Game.obj
 0001:0003efe8       $LN84                      0043ffe8     Game.obj
 0001:0003effc       $LN83                      0043fffc     Game.obj
 0001:0003f028       $LN89                      00440028     Game.obj
 0001:0003f038       $LN88                      00440038     Game.obj
 0001:0003f050       $LN91                      00440050     Game.obj
 0001:0003f894       $LN108                     00440894     Game.obj
 0001:00040e2c       $LN109                     00441e2c     Game.obj
 0001:000420ec       $LN54                      004430ec     Game.obj
 0001:000423d4       $LN58                      004433d4     Game.obj
 0001:00042df4       $LN33                      00443df4     Game.obj
 0001:00043600       $LN89                      00444600     Game.obj
 0001:00043618       $LN90                      00444618     Game.obj
 0001:00043630       $LN91                      00444630     Game.obj
 0001:00043648       $LN92                      00444648     Game.obj
 0001:00043660       $LN93                      00444660     Game.obj
 0001:00043678       $LN94                      00444678     Game.obj
 0001:00044d00       $LN45                      00445d00     Game.obj
 0001:0004569c       $LN13                      0044669c     Game.obj
 0001:00045ba0       $LN39                      00446ba0     Game.obj
 0001:00047264       $LN42                      00448264     Game.obj
 0001:00049394       $LN152                     0044a394     Game.obj
 0001:0004a758       $LN176                     0044b758     Game.obj
 0001:0004a770       $LN192                     0044b770     Game.obj
 0001:0004a794       $LN193                     0044b794     Game.obj
 0001:0004a7cc       $LN194                     0044b7cc     Game.obj
 0001:0004af24       $LN96                      0044bf24     Game.obj
 0001:0004af34       $LN97                      0044bf34     Game.obj
 0001:0004af44       $LN100                     0044bf44     Game.obj
 0001:0004b644       $LN11                      0044c644     Game.obj
 0001:0004b658       $LN10                      0044c658     Game.obj
 0001:0004c798       $LN251                     0044d798     Game.obj
 0001:0004c834       $LN250                     0044d834     Game.obj
 0001:0004c8a8       $LN254                     0044d8a8     Game.obj
 0001:0004c8cc       $LN253                     0044d8cc     Game.obj
 0001:0004c900       $LN256                     0044d900     Game.obj
 0001:0004c924       $LN255                     0044d924     Game.obj
 0001:0004cb74       $LN56                      0044db74     Game.obj
 0001:0004cb84       $LN55                      0044db84     Game.obj
 0001:0004cc10       $LN57                      0044dc10     Game.obj
 0001:0004e8f4       $LN41                      0044f8f4     Game.obj
 0001:0005212c       $LN583                     0045312c     Game.obj
 0001:0005213c       $LN585                     0045313c     Game.obj
 0001:000523d4       $LN584                     004533d4     Game.obj
 0001:000524cc       $LN586                     004534cc     Game.obj
 0001:000524e4       $LN596                     004534e4     Game.obj
 0001:000524fc       $LN597                     004534fc     Game.obj
 0001:00052514       $LN598                     00453514     Game.obj
 0001:00052534       $LN613                     00453534     Game.obj
 0001:0005255c       $LN612                     0045355c     Game.obj
 0001:00052594       $LN615                     00453594     Game.obj
 0001:000525b8       $LN614                     004535b8     Game.obj
 0001:000525ec       $LN617                     004535ec     Game.obj
 0001:00052610       $LN616                     00453610     Game.obj
 0001:00052644       $LN626                     00453644     Game.obj
 0001:0005265c       $LN627                     0045365c     Game.obj
 0001:00052674       $LN628                     00453674     Game.obj
 0001:0005268c       $LN629                     0045368c     Game.obj
 0001:000526a4       $LN631                     004536a4     Game.obj
 0001:000526c0       $LN630                     004536c0     Game.obj
 0001:00053474       $LN105                     00454474     Game.obj
 0001:00053498       $LN107                     00454498     Game.obj
 0001:000534fc       $LN106                     004544fc     Game.obj
 0001:00053528       $LN108                     00454528     Game.obj
 0001:0005354c       $LN109                     0045454c     Game.obj
 0001:00054e0c       $LN75                      00455e0c     Game.obj
 0001:00054e20       $LN74                      00455e20     Game.obj
 0001:00055c8c       $LN150                     00456c8c     Game.obj
 0001:00055c9c       $LN151                     00456c9c     Game.obj
 0001:00055cb4       $LN159                     00456cb4     Game.obj
 0001:00055cc4       $LN168                     00456cc4     Game.obj
 0001:000564fc       $LN61                      004574fc     Game.obj
 0001:0005651c       $LN63                      0045751c     Game.obj
 0001:00056524       $LN62                      00457524     Game.obj
 0001:0005a5ac       $LN113                     0045b5ac     Game.obj
 0001:0005a740       $LN114                     0045b740     Game.obj
 0001:0005b32c       $LN176                     0045c32c     Game.obj
 0001:0005b35c       $LN179                     0045c35c     Game.obj
 0001:0005b38c       $LN182                     0045c38c     Game.obj
 0001:0005bf3c       $LN164                     0045cf3c     Game.obj
 0001:0005bf6c       $LN167                     0045cf6c     Game.obj
 0001:0005bf9c       $LN170                     0045cf9c     Game.obj
 0001:0005dd1c       $LN203                     0045ed1c     Game.obj
 0001:0005dd2c       $LN202                     0045ed2c     Game.obj
 0001:0005dd40       $LN205                     0045ed40     Game.obj
 0001:0005dd48       $LN204                     0045ed48     Game.obj
 0001:0005e4e0       $LN27                      0045f4e0     Game.obj
 0001:0005e4f4       $LN26                      0045f4f4     Game.obj
 0001:0005e51c       $LN28                      0045f51c     Game.obj
 0001:00060c60       $LN623                     00461c60     Game.obj
 0001:00060c70       $LN626                     00461c70     Game.obj
 0001:00060c88       $LN625                     00461c88     Game.obj
 0001:00060c9c       $LN637                     00461c9c     Game.obj
 0001:00060cbc       $LN628                     00461cbc     Game.obj
 0001:00060ce8       $LN627                     00461ce8     Game.obj
 0001:00060d34       $LN630                     00461d34     Game.obj
 0001:00060d54       $LN629                     00461d54     Game.obj
 0001:00060d68       $LN632                     00461d68     Game.obj
 0001:00060d7c       $LN631                     00461d7c     Game.obj
 0001:00060d8c       $LN634                     00461d8c     Game.obj
 0001:00060d94       $LN633                     00461d94     Game.obj
 0001:00060da0       $LN636                     00461da0     Game.obj
 0001:00060db4       $LN635                     00461db4     Game.obj
 0001:00060dc4       $LN638                     00461dc4     Game.obj
 0001:00060de4       $LN639                     00461de4     Game.obj
 0001:00060e04       $LN640                     00461e04     Game.obj
 0001:00060e24       $LN641                     00461e24     Game.obj
 0001:00067848       $LN127                     00468848     Game.obj
 0001:0006895c       $LN102                     0046995c     Game.obj
 0001:00068964       $LN101                     00469964     Game.obj
 0001:00068978       $LN106                     00469978     Game.obj
 0001:00068980       $LN105                     00469980     Game.obj
 0001:00069e98       $LN123                     0046ae98     Game.obj
 0001:0006a5e4       $LN30                      0046b5e4     Game.obj
 0001:0006afac       $LN81                      0046bfac     Game.obj
 0001:0006afd4       $LN82                      0046bfd4     Game.obj
 0001:0006b560       $LN39                      0046c560     Game.obj
 0001:0006c5e4       $LN76                      0046d5e4     Game.obj
 0001:0006c600       $LN78                      0046d600     Game.obj
 0001:0006c620       $LN77                      0046d620     Game.obj
 0001:0006c66c       $LN80                      0046d66c     Game.obj
 0001:0006c684       $LN79                      0046d684     Game.obj
 0001:0006d254       $LN68                      0046e254     Game.obj
 0001:0006ec68       $LN45                      0046fc68     Game.obj
 0001:0006ec78       $LN47                      0046fc78     Game.obj
 0001:0006ec80       $LN46                      0046fc80     Game.obj
 0001:0006ec90       $LN49                      0046fc90     Game.obj
 0001:0006ec98       $LN48                      0046fc98     Game.obj
 0001:000705e8       $LN123                     004715e8     Game.obj
 0001:000705f8       $LN122                     004715f8     Game.obj
 0001:00070604       $LN124                     00471604     Game.obj
 0001:000737b0       $LN180                     004747b0     Game.obj
 0001:0007543c       $LN27                      0047643c     Game.obj
 0001:00076480       $LN69                      00477480     Game.obj
 0001:0007649c       $LN70                      0047749c     Game.obj
 0001:000764c4       $LN72                      004774c4     Game.obj
 0001:000764dc       $LN71                      004774dc     Game.obj
 0001:00076510       $LN73                      00477510     Game.obj
 0001:000770dc       $LN48                      004780dc     Game.obj
 0001:0007720c       $LN12                      0047820c     Game.obj
 0001:00077748       $LN9                       00478748     Game.obj
 0001:000794ac       $LN28                      0047a4ac     Game.obj
 0001:0007978c       $LN40                      0047a78c     Game.obj
 0001:000797c0       $LN41                      0047a7c0     Game.obj
 0001:000797d4       $LN42                      0047a7d4     Game.obj
 0001:000799ec       $LN39                      0047a9ec     Game.obj
 0001:00079a20       $LN40                      0047aa20     Game.obj
 0001:00079a34       $LN41                      0047aa34     Game.obj
 0001:0007b510       $LN39                      0047c510     Game.obj
 0001:0007b530       $LN38                      0047c530     Game.obj
 0001:0007b548       $LN41                      0047c548     Game.obj
 0001:0007b568       $LN40                      0047c568     Game.obj
 0001:0007c484       $LN109                     0047d484     Game.obj
 0001:0007c4a4       $LN110                     0047d4a4     Game.obj
 0001:0007da68       $LN137                     0047ea68     Game.obj
 0001:0007da7c       $LN138                     0047ea7c     Game.obj
 0001:0007da90       $LN151                     0047ea90     Game.obj
 0001:00082704       $LN88                      00483704     Game.obj
 0001:0008272c       $LN100                     0048372c     Game.obj
 0001:00083644       $LN43                      00484644     Game.obj
 0001:0008365c       $LN45                      0048465c     Game.obj
 0001:00083670       $LN44                      00484670     Game.obj
 0001:00084950       $LN26                      00485950     Game.obj
 0001:00084958       $LN25                      00485958     Game.obj
 0001:00084a70       $LN27                      00485a70     Game.obj
 0001:0008625c       $LN75                      0048725c     Game.obj
 0001:000868d4       $LN51                      004878d4     Game.obj
 0001:000883a8       $LN45                      004893a8     Game.obj
 0001:00088f58       $LN80                      00489f58     Game.obj
 0001:00088f98       $LN11                      00489f98     Game.obj
 0001:00088fa0       $LN10                      00489fa0     Game.obj
 0001:00088fd8       $LN17                      00489fd8     Game.obj
 0001:00088fe0       $LN16                      00489fe0     Game.obj
 0001:00089080       $LN16                      0048a080     Game.obj
 0001:00089138       $LN17                      0048a138     Game.obj
 0001:00089bb8       __catch$??$?6U?$char_traits@D@std@@@std@@YAAAV?$basic_ostream@DU?$char_traits@D@std@@@0@AAV10@PBD@Z$0 0048abb8 f i Game.obj
 0001:00089c70       ??$Pop@HX@@YAXAAPADAAH@Z   0048ac70 f   Game.obj
 0001:0008c650       ??$_Sort_unchecked@PAURenderCommand@SpriteBatcher@@V<lambda_83717c6998492edd4556b4a44325ec29>@@@std@@YAXPAURenderCommand@SpriteBatcher@@0HV<lambda_83717c6998492edd4556b4a44325ec29>@@@Z 0048d650 f   SpriteBatcher.obj
 0001:0008c9d0       ??$_Partition_by_median_guess_unchecked@PAURenderCommand@SpriteBatcher@@V<lambda_83717c6998492edd4556b4a44325ec29>@@@std@@YA?AU?$pair@PAURenderCommand@SpriteBatcher@@PAU12@@0@PAURenderCommand@SpriteBatcher@@0V<lambda_83717c6998492edd4556b4a44325ec29>@@@Z 0048d9d0 f   SpriteBatcher.obj
 0001:0008d2b0       ??$_Pop_heap_hole_by_index@PAURenderCommand@SpriteBatcher@@U12@V<lambda_83717c6998492edd4556b4a44325ec29>@@@std@@YAXPAURenderCommand@SpriteBatcher@@HH$$QAU12@V<lambda_83717c6998492edd4556b4a44325ec29>@@@Z 0048e2b0 f   SpriteBatcher.obj
 0001:0008d4f0       ??$_Med3_unchecked@PAURenderCommand@SpriteBatcher@@V<lambda_83717c6998492edd4556b4a44325ec29>@@@std@@YAXPAURenderCommand@SpriteBatcher@@00V<lambda_83717c6998492edd4556b4a44325ec29>@@@Z 0048e4f0 f   SpriteBatcher.obj
 0001:0008f6e8       $LN139                     004906e8     MapData.obj
 0001:00090d9c       $LN260                     00491d9c     MapData.obj
 0001:00090da4       $LN259                     00491da4     MapData.obj
 0001:00090dac       $LN261                     00491dac     MapData.obj
 0001:00090dcc       $LN264                     00491dcc     MapData.obj
 0001:00090dd4       $LN263                     00491dd4     MapData.obj
 0001:00090ddc       $LN265                     00491ddc     MapData.obj
 0001:00090dfc       $LN269                     00491dfc     MapData.obj
 0001:00090e04       $LN268                     00491e04     MapData.obj
 0001:00090e0c       $LN270                     00491e0c     MapData.obj
 0001:00090e2c       $LN273                     00491e2c     MapData.obj
 0001:00090e34       $LN272                     00491e34     MapData.obj
 0001:00090e3c       $LN274                     00491e3c     MapData.obj
 0001:00097048       $LN987                     00498048     MapData.obj
 0001:00097080       $LN988                     00498080     MapData.obj
 0001:000970a0       $LN990                     004980a0     MapData.obj
 0001:000970b0       $LN989                     004980b0     MapData.obj
 0001:000970f4       $LN992                     004980f4     MapData.obj
 0001:00097190       $LN991                     00498190     MapData.obj
 0001:000971e8       $LN993                     004981e8     MapData.obj
 0001:00097208       $LN995                     00498208     MapData.obj
 0001:00097210       $LN994                     00498210     MapData.obj
 0001:0009723c       $LN996                     0049823c     MapData.obj
 0001:0009725c       $LN998                     0049825c     MapData.obj
 0001:00097260       $LN997                     00498260     MapData.obj
 0001:00097268       $LN999                     00498268     MapData.obj
 0001:00097288       $LN1001                    00498288     MapData.obj
 0001:0009729c       $LN1000                    0049829c     MapData.obj
 0001:000972f8       $LN1002                    004982f8     MapData.obj
 0001:00097310       $LN1004                    00498310     MapData.obj
 0001:000973d8       $LN1003                    004983d8     MapData.obj
 0001:00097434       $LN1006                    00498434     MapData.obj
 0001:00097440       $LN1005                    00498440     MapData.obj
 0001:00097470       $LN1008                    00498470     MapData.obj
 0001:0009751c       $LN1007                    0049851c     MapData.obj
 0001:0009756c       $LN1009                    0049856c     MapData.obj
 0001:00097584       $LN1011                    00498584     MapData.obj
 0001:00097620       $LN1010                    00498620     MapData.obj
 0001:00097670       $LN1013                    00498670     MapData.obj
 0001:00097674       $LN1012                    00498674     MapData.obj
 0001:0009767c       $LN1015                    0049867c     MapData.obj
 0001:00097688       $LN1014                    00498688     MapData.obj
 0001:000976c0       $LN1017                    004986c0     MapData.obj
 0001:0009777c       $LN1016                    0049877c     MapData.obj
 0001:0009830c       $LN19                      0049930c     MapData.obj
 0001:00098324       $LN18                      00499324     MapData.obj
 0001:0009eb90       $LN37                      0049fb90     Wmain.obj
 0001:0009eba4       $LN36                      0049fba4     Wmain.obj
 0001:0009ebc4       $LN39                      0049fbc4     Wmain.obj
 0001:0009ebd8       $LN38                      0049fbd8     Wmain.obj
 0001:0009f480       $LN20                      004a0480     XSocket.obj
 0001:0009f494       $LN19                      004a0494     XSocket.obj
 0001:000a4dc0       ?ima_jpeg_error_exit@@YAXPAUjpeg_common_struct@@@Z 004a5dc0 f   cximage:ximajpg.obj
 0001:000a504c       $LN17                      004a604c     cximage:ximaexif.obj
 0001:000a547c       $LN74                      004a647c     cximage:ximaexif.obj
 0001:000a5498       $LN73                      004a6498     cximage:ximaexif.obj
 0001:000a6118       $LN151                     004a7118     cximage:ximaexif.obj
 0001:000a6138       $LN150                     004a7138     cximage:ximaexif.obj
 0001:000a622c       $LN152                     004a722c     cximage:ximaexif.obj
 0001:000a6240       $LN154                     004a7240     cximage:ximaexif.obj
 0001:000a6268       $LN153                     004a7268     cximage:ximaexif.obj
 0001:000a62f0       $LN155                     004a72f0     cximage:ximaexif.obj
 0001:000a6dfb       __catch$?Decode@CxImageBMP@@QAE_NPAVCxFile@@@Z$0 004a7dfb f   cximage:ximabmp.obj
 0001:000a6f58       $LN168                     004a7f58     cximage:ximabmp.obj
 0001:000a6f6c       $LN167                     004a7f6c     cximage:ximabmp.obj
 0001:000a83b0       _emit_message              004a93b0 f   Jpeg:Jerror.obj
 0001:000a83f0       _error_exit                004a93f0 f   Jpeg:Jerror.obj
 0001:000a8420       _format_message            004a9420 f   Jpeg:Jerror.obj
 0001:000a8570       _output_message            004a9570 f   Jpeg:Jerror.obj
 0001:000a85d0       _reset_error_mgr           004a95d0 f   Jpeg:Jerror.obj
 0001:000a88f0       _default_decompress_parms  004a98f0 f   Jpeg:Jdapimin.obj
 0001:000a8dbc       $LN27                      004a9dbc     Jpeg:Jdapimin.obj
 0001:000a8dd0       $LN26                      004a9dd0     Jpeg:Jdapimin.obj
 0001:000a8de0       _add_huff_table            004a9de0 f   Jpeg:Jcparam.obj
 0001:000a8eb0       _fill_dc_scans             004a9eb0 f   Jpeg:Jcparam.obj
 0001:000a8f20       _fill_scans                004a9f20 f   Jpeg:Jcparam.obj
 0001:000a93dc       $LN22                      004aa3dc     Jpeg:Jcparam.obj
 0001:000a95c0       $LN36                      004aa5c0     Jpeg:Jcparam.obj
 0001:000a9bd0       _output_pass_setup         004aabd0 f   Jpeg:Jdapistd.obj
 0001:000a9ca0       _finish_output_pass        004aaca0 f   Jpeg:Jdmaster.obj
 0001:000a9f78       $LN54                      004aaf78     Jpeg:Jdmaster.obj
 0001:000a9f90       _master_selection          004aaf90 f   Jpeg:Jdmaster.obj
 0001:000aa320       _prepare_for_output_pass   004ab320 f   Jpeg:Jdmaster.obj
 0001:000aa480       _use_merged_upsample       004ab480 f   Jpeg:Jdmaster.obj
 0001:000aa500       _examine_app0              004ab500 f   Jpeg:Jdmarker.obj
 0001:000aa760       _examine_app14             004ab760 f   Jpeg:Jdmarker.obj
 0001:000aa830       _get_dht                   004ab830 f   Jpeg:Jdmarker.obj
 0001:000aabe0       _get_dqt                   004abbe0 f   Jpeg:Jdmarker.obj
 0001:000aae90       _get_interesting_appn      004abe90 f   Jpeg:Jdmarker.obj
 0001:000ab000       _get_sof                   004ac000 f   Jpeg:Jdmarker.obj
 0001:000ab3b0       _get_sos                   004ac3b0 f   Jpeg:Jdmarker.obj
 0001:000ab870       _next_marker               004ac870 f   Jpeg:Jdmarker.obj
 0001:000ab990       _read_markers              004ac990 f   Jpeg:Jdmarker.obj
 0001:000abd84       $LN151                     004acd84     Jpeg:Jdmarker.obj
 0001:000abdc4       $LN150                     004acdc4     Jpeg:Jdmarker.obj
 0001:000abed0       _read_restart_marker       004aced0 f   Jpeg:Jdmarker.obj
 0001:000abf60       _reset_marker_reader       004acf60 f   Jpeg:Jdmarker.obj
 0001:000abfa0       _skip_variable             004acfa0 f   Jpeg:Jdmarker.obj
 0001:000ac150       _emit_2bytes               004ad150 f   Jpeg:Jcmarker.obj
 0001:000ac1d0       _emit_adobe_app14          004ad1d0 f   Jpeg:Jcmarker.obj
 0001:000ac350       _emit_dht                  004ad350 f   Jpeg:Jcmarker.obj
 0001:000ac540       _emit_dqt                  004ad540 f   Jpeg:Jcmarker.obj
 0001:000ac760       _emit_jfif_app0            004ad760 f   Jpeg:Jcmarker.obj
 0001:000ac990       _emit_marker               004ad990 f   Jpeg:Jcmarker.obj
 0001:000aca00       _emit_sof                  004ada00 f   Jpeg:Jcmarker.obj
 0001:000acbe0       _emit_sos                  004adbe0 f   Jpeg:Jcmarker.obj
 0001:000ace10       _write_file_header         004ade10 f   Jpeg:Jcmarker.obj
 0001:000ace60       _write_file_trailer        004ade60 f   Jpeg:Jcmarker.obj
 0001:000ace80       _write_frame_header        004ade80 f   Jpeg:Jcmarker.obj
 0001:000acf80       _write_marker_byte         004adf80 f   Jpeg:Jcmarker.obj
 0001:000acfc0       _write_marker_header       004adfc0 f   Jpeg:Jcmarker.obj
 0001:000ad000       _write_scan_header         004ae000 f   Jpeg:Jcmarker.obj
 0001:000ad0f0       _write_tables_only         004ae0f0 f   Jpeg:Jcmarker.obj
 0001:000ad1e0       _access_virt_barray        004ae1e0 f   Jpeg:Jmemmgr.obj
 0001:000ad330       _access_virt_sarray        004ae330 f   Jpeg:Jmemmgr.obj
 0001:000ad480       _alloc_barray              004ae480 f   Jpeg:Jmemmgr.obj
 0001:000ad530       _alloc_large               004ae530 f   Jpeg:Jmemmgr.obj
 0001:000ad600       _alloc_sarray              004ae600 f   Jpeg:Jmemmgr.obj
 0001:000ad6b0       _alloc_small               004ae6b0 f   Jpeg:Jmemmgr.obj
 0001:000ad800       _do_barray_io              004ae800 f   Jpeg:Jmemmgr.obj
 0001:000ad890       _do_sarray_io              004ae890 f   Jpeg:Jmemmgr.obj
 0001:000ad920       _free_pool                 004ae920 f   Jpeg:Jmemmgr.obj
 0001:000adb60       _realize_virt_arrays       004aeb60 f   Jpeg:Jmemmgr.obj
 0001:000add10       _request_virt_barray       004aed10 f   Jpeg:Jmemmgr.obj
 0001:000add80       _request_virt_sarray       004aed80 f   Jpeg:Jmemmgr.obj
 0001:000addf0       _self_destruct             004aedf0 f   Jpeg:Jmemmgr.obj
 0001:000adf60       _consume_markers           004aef60 f   Jpeg:Jdinput.obj
 0001:000ae030       _finish_input_pass         004af030 f   Jpeg:Jdinput.obj
 0001:000ae050       _initial_setup             004af050 f   Jpeg:Jdinput.obj
 0001:000ae2d0       _per_scan_setup            004af2d0 f   Jpeg:Jdinput.obj
 0001:000ae480       _reset_input_controller    004af480 f   Jpeg:Jdinput.obj
 0001:000ae4c0       _start_input_pass          004af4c0 f   Jpeg:Jdinput.obj
 0001:000ae800       _make_funny_pointers       004af800 f   Jpeg:Jdmainct.obj
 0001:000ae990       _process_data_context_main 004af990 f   Jpeg:Jdmainct.obj
 0001:000aec70       _process_data_crank_post   004afc70 f   Jpeg:Jdmainct.obj
 0001:000aeca0       _process_data_simple_main  004afca0 f   Jpeg:Jdmainct.obj
 0001:000aed10       _start_pass_main           004afd10 f   Jpeg:Jdmainct.obj
 0001:000aeda0       _consume_data              004afda0 f   Jpeg:Jdcoefct.obj
 0001:000aefe0       _decompress_data           004affe0 f   Jpeg:Jdcoefct.obj
 0001:000af160       _decompress_onepass        004b0160 f   Jpeg:Jdcoefct.obj
 0001:000af3b0       _decompress_smooth_data    004b03b0 f   Jpeg:Jdcoefct.obj
 0001:000afab0       _dummy_consume_data        004b0ab0 f   Jpeg:Jdcoefct.obj
 0001:000afc40       _start_iMCU_row            004b0c40 f   Jpeg:Jdcoefct.obj
 0001:000afcc0       _start_input_pass          004b0cc0 f   Jpeg:Jdcoefct.obj
 0001:000afce0       _start_output_pass         004b0ce0 f   Jpeg:Jdcoefct.obj
 0001:000aff40       _post_process_1pass        004b0f40 f   Jpeg:Jdpostct.obj
 0001:000affb0       _post_process_2pass        004b0fb0 f   Jpeg:Jdpostct.obj
 0001:000b0060       _post_process_prepass      004b1060 f   Jpeg:Jdpostct.obj
 0001:000b0120       _start_pass_dpost          004b1120 f   Jpeg:Jdpostct.obj
 0001:000b0230       _decode_mcu                004b1230 f   Jpeg:Jdhuff.obj
 0001:000b0c50       _start_pass_huff_decoder   004b1c50 f   Jpeg:Jdhuff.obj
 0001:000b0dc0       _decode_mcu_AC_first       004b1dc0 f   Jpeg:Jdphuff.obj
 0001:000b0ff0       _decode_mcu_AC_refine      004b1ff0 f   Jpeg:Jdphuff.obj
 0001:000b14d0       _decode_mcu_DC_first       004b24d0 f   Jpeg:Jdphuff.obj
 0001:000b16e0       _decode_mcu_DC_refine      004b26e0 f   Jpeg:Jdphuff.obj
 0001:000b1850       _process_restart           004b2850 f   Jpeg:Jdphuff.obj
 0001:000b18e0       _start_pass_phuff_decoder  004b28e0 f   Jpeg:Jdphuff.obj
 0001:000b1c20       _start_pass                004b2c20 f   Jpeg:Jddctmgr.obj
 0001:000b20cc       $LN93                      004b30cc     Jpeg:Jddctmgr.obj
 0001:000b20f0       _fullsize_upsample         004b30f0 f   Jpeg:Jdsample.obj
 0001:000b2100       _h2v1_fancy_upsample       004b3100 f   Jpeg:Jdsample.obj
 0001:000b21d0       _h2v1_upsample             004b31d0 f   Jpeg:Jdsample.obj
 0001:000b2230       _h2v2_fancy_upsample       004b3230 f   Jpeg:Jdsample.obj
 0001:000b2380       _h2v2_upsample             004b3380 f   Jpeg:Jdsample.obj
 0001:000b2400       _int_upsample              004b3400 f   Jpeg:Jdsample.obj
 0001:000b26c0       _noop_upsample             004b36c0 f   Jpeg:Jdsample.obj
 0001:000b26d0       _sep_upsample              004b36d0 f   Jpeg:Jdsample.obj
 0001:000b27b0       _start_pass_upsample       004b37b0 f   Jpeg:Jdsample.obj
 0001:000b27d0       _build_ycc_rgb_table       004b37d0 f   Jpeg:Jdcolor.obj
 0001:000b28b0       _gray_rgb_convert          004b38b0 f   Jpeg:Jdcolor.obj
 0001:000b2920       _grayscale_convert         004b3920 f   Jpeg:Jdcolor.obj
 0001:000b2b00       $LN46                      004b3b00     Jpeg:Jdcolor.obj
 0001:000b2b20       _null_convert              004b3b20 f   Jpeg:Jdcolor.obj
 0001:000b2bb0       _ycc_rgb_convert           004b3bb0 f   Jpeg:Jdcolor.obj
 0001:000b2cd0       _ycck_cmyk_convert         004b3cd0 f   Jpeg:Jdcolor.obj
 0001:000b2e30       _alloc_fs_workspace        004b3e30 f   Jpeg:Jquant1.obj
 0001:000b2e80       _color_quantize            004b3e80 f   Jpeg:Jquant1.obj
 0001:000b2f20       _color_quantize3           004b3f20 f   Jpeg:Jquant1.obj
 0001:000b2fc0       _create_colorindex         004b3fc0 f   Jpeg:Jquant1.obj
 0001:000b3100       _create_colormap           004b4100 f   Jpeg:Jquant1.obj
 0001:000b33f0       _new_color_map_1_quant     004b43f0 f   Jpeg:Jquant1.obj
 0001:000b3410       _quantize3_ord_dither      004b4410 f   Jpeg:Jquant1.obj
 0001:000b3510       _quantize_fs_dither        004b4510 f   Jpeg:Jquant1.obj
 0001:000b36b0       _quantize_ord_dither       004b46b0 f   Jpeg:Jquant1.obj
 0001:000b37a0       _start_pass_1_quant        004b47a0 f   Jpeg:Jquant1.obj
 0001:000b3950       _fill_inverse_cmap         004b4950 f   Jpeg:Jquant2.obj
 0001:000b3c30       _find_nearby_colors        004b4c30 f   Jpeg:Jquant2.obj
 0001:000b3e50       _finish_pass1              004b4e50 f   Jpeg:Jquant2.obj
 0001:000b3e80       _init_error_limit          004b4e80 f   Jpeg:Jquant2.obj
 0001:000b4060       _median_cut                004b5060 f   Jpeg:Jquant2.obj
 0001:000b41d0       _new_color_map_2_quant     004b51d0 f   Jpeg:Jquant2.obj
 0001:000b41f0       _pass2_fs_dither           004b51f0 f   Jpeg:Jquant2.obj
 0001:000b4470       _pass2_no_dither           004b5470 f   Jpeg:Jquant2.obj
 0001:000b4850       _prescan_quantize          004b5850 f   Jpeg:Jquant2.obj
 0001:000b48e0       _select_colors             004b58e0 f   Jpeg:Jquant2.obj
 0001:000b4af0       _start_pass_2_quant        004b5af0 f   Jpeg:Jquant2.obj
 0001:000b4c00       _update_box                004b5c00 f   Jpeg:Jquant2.obj
 0001:000b4fd0       _h2v1_merged_upsample      004b5fd0 f   Jpeg:Jdmerge.obj
 0001:000b5130       _h2v2_merged_upsample      004b6130 f   Jpeg:Jdmerge.obj
 0001:000b5480       _merged_1v_upsample        004b6480 f   Jpeg:Jdmerge.obj
 0001:000b54c0       _merged_2v_upsample        004b64c0 f   Jpeg:Jdmerge.obj
 0001:000b5570       _start_pass_merged_upsample 004b6570 f   Jpeg:Jdmerge.obj
 0001:000b56c0       _finish_pass_master        004b66c0 f   Jpeg:Jcmaster.obj
 0001:000b5730       _initial_setup             004b6730 f   Jpeg:Jcmaster.obj
 0001:000b59e0       _pass_startup              004b69e0 f   Jpeg:Jcmaster.obj
 0001:000b5a10       _per_scan_setup            004b6a10 f   Jpeg:Jcmaster.obj
 0001:000b5be0       _prepare_for_pass          004b6be0 f   Jpeg:Jcmaster.obj
 0001:000b5da0       _select_scan_parameters    004b6da0 f   Jpeg:Jcmaster.obj
 0001:000b5ea0       _validate_script           004b6ea0 f   Jpeg:Jcmaster.obj
 0001:000b6400       _process_data_simple_main  004b7400 f   Jpeg:Jcmainct.obj
 0001:000b64a0       _start_pass_main           004b74a0 f   Jpeg:Jcmainct.obj
 0001:000b66d0       _pre_process_context       004b76d0 f   Jpeg:Jcprepct.obj
 0001:000b68d0       _pre_process_data          004b78d0 f   Jpeg:Jcprepct.obj
 0001:000b6ac0       _start_pass_prep           004b7ac0 f   Jpeg:Jcprepct.obj
 0001:000b6b10       _compress_data             004b7b10 f   Jpeg:Jccoefct.obj
 0001:000b6d70       _compress_first_pass       004b7d70 f   Jpeg:Jccoefct.obj
 0001:000b6f70       _compress_output           004b7f70 f   Jpeg:Jccoefct.obj
 0001:000b72b0       _start_iMCU_row            004b82b0 f   Jpeg:Jccoefct.obj
 0001:000b7320       _start_pass_coef           004b8320 f   Jpeg:Jccoefct.obj
 0001:000b73e0       _cmyk_ycck_convert         004b83e0 f   Jpeg:Jccolor.obj
 0001:000b7520       _grayscale_convert         004b8520 f   Jpeg:Jccolor.obj
 0001:000b77a8       $LN54                      004b87a8     Jpeg:Jccolor.obj
 0001:000b77bc       $LN55                      004b87bc     Jpeg:Jccolor.obj
 0001:000b77d0       _null_convert              004b87d0 f   Jpeg:Jccolor.obj
 0001:000b7870       _rgb_gray_convert          004b8870 f   Jpeg:Jccolor.obj
 0001:000b7920       _rgb_ycc_convert           004b8920 f   Jpeg:Jccolor.obj
 0001:000b7a30       _rgb_ycc_start             004b8a30 f   Jpeg:Jccolor.obj
 0001:000b7c00       _expand_right_edge         004b8c00 f   Jpeg:Jcsample.obj
 0001:000b7c50       _fullsize_downsample       004b8c50 f   Jpeg:Jcsample.obj
 0001:000b7c90       _fullsize_smooth_downsample 004b8c90 f   Jpeg:Jcsample.obj
 0001:000b7df0       _h2v1_downsample           004b8df0 f   Jpeg:Jcsample.obj
 0001:000b7e90       _h2v2_downsample           004b8e90 f   Jpeg:Jcsample.obj
 0001:000b7f50       _h2v2_smooth_downsample    004b8f50 f   Jpeg:Jcsample.obj
 0001:000b81d0       _int_downsample            004b91d0 f   Jpeg:Jcsample.obj
 0001:000b8540       _sep_downsample            004b9540 f   Jpeg:Jcsample.obj
 0001:000b85d0       _forward_DCT               004b95d0 f   Jpeg:Jcdctmgr.obj
 0001:000b89d0       _forward_DCT_float         004b99d0 f   Jpeg:Jcdctmgr.obj
 0001:000b9220       _start_pass_fdctmgr        004ba220 f   Jpeg:Jcdctmgr.obj
 0001:000b9690       _emit_bits                 004ba690 f   Jpeg:Jchuff.obj
 0001:000b9780       _encode_mcu_gather         004ba780 f   Jpeg:Jchuff.obj
 0001:000b9940       _encode_mcu_huff           004ba940 f   Jpeg:Jchuff.obj
 0001:000b9b30       _encode_one_block          004bab30 f   Jpeg:Jchuff.obj
 0001:000b9cf0       _finish_pass_gather        004bacf0 f   Jpeg:Jchuff.obj
 0001:000ba010       _finish_pass_huff          004bb010 f   Jpeg:Jchuff.obj
 0001:000ba5e0       _start_pass_huff           004bb5e0 f   Jpeg:Jchuff.obj
 0001:000ba780       _emit_bits                 004bb780 f   Jpeg:Jcphuff.obj
 0001:000ba8d0       _emit_buffered_bits        004bb8d0 f   Jpeg:Jcphuff.obj
 0001:000baa10       _emit_eobrun               004bba10 f   Jpeg:Jcphuff.obj
 0001:000baac0       _emit_restart              004bbac0 f   Jpeg:Jcphuff.obj
 0001:000babf0       _encode_mcu_AC_first       004bbbf0 f   Jpeg:Jcphuff.obj
 0001:000bade0       _encode_mcu_AC_refine      004bbde0 f   Jpeg:Jcphuff.obj
 0001:000bb0b0       _encode_mcu_DC_first       004bc0b0 f   Jpeg:Jcphuff.obj
 0001:000bb210       _encode_mcu_DC_refine      004bc210 f   Jpeg:Jcphuff.obj
 0001:000bb2d0       _finish_pass_gather_phuff  004bc2d0 f   Jpeg:Jcphuff.obj
 0001:000bb3a0       _finish_pass_phuff         004bc3a0 f   Jpeg:Jcphuff.obj
 0001:000bb470       _start_pass_phuff          004bc470 f   Jpeg:Jcphuff.obj
 0001:000c059b       ?find_pe_section@@YAPAU_IMAGE_SECTION_HEADER@@QAEI@Z 004c159b f   MSVCRT:utility.obj
 0001:000c097a       ?pre_c_initialization@@YAHXZ 004c197a f   MSVCRT:exe_winmain.obj
 0001:000c0a25       ?post_pgo_initialization@@YAHXZ 004c1a25 f   MSVCRT:exe_winmain.obj
 0001:000c0a2d       ?pre_cpp_initialization@@YAXXZ 004c1a2d f   MSVCRT:exe_winmain.obj
 0001:000c0a3f       ?__scrt_common_main_seh@@YAHXZ 004c1a3f f   MSVCRT:exe_winmain.obj
 0001:000c0be0       $$000000                   004c1be0     MSVCRT:ftol2.obj
 0001:000c0bf0       $$000000                   004c1bf0     MSVCRT:ftol2.obj
 0001:000c0c01       L3B                        004c1c01     MSVCRT:ftol2.obj
 0001:000c0c44       L3F                        004c1c44     MSVCRT:ftol2.obj
 0001:000c0c4c       L40                        004c1c4c     MSVCRT:ftol2.obj
 0001:000c0c5f       L41                        004c1c5f     MSVCRT:ftol2.obj
 0001:000c0c70       $$000000                   004c1c70     MSVCRT:ftol3.obj
 0001:000c0c8e       _dtol3_default             004c1c8e     MSVCRT:ftol3.obj
 0001:000c0cb8       _dtol3_getbits             004c1cb8     MSVCRT:ftol3.obj
 0001:000c0ce1       _dtol3_trunc               004c1ce1     MSVCRT:ftol3.obj
 0001:000c0ce8       _dtol3_lshift              004c1ce8     MSVCRT:ftol3.obj
 0001:000c0cee       _dtol3_notsafe             004c1cee     MSVCRT:ftol3.obj
 0001:000c0d07       _dtol3_large               004c1d07     MSVCRT:ftol3.obj
 0001:000c0d0f       _dtol3_NaN                 004c1d0f     MSVCRT:ftol3.obj
 0001:000c0d17       _dtol3_retmin              004c1d17     MSVCRT:ftol3.obj
 0001:000c1290       $$000000                   004c2290     MSVCRT:sehprolg4.obj
 0001:000c1304       ___get_entropy             004c2304 f   MSVCRT:gs_support.obj
 0001:000c1680       $$000000                   004c2680     MSVCRT:chkstk.obj
 0001:000c1694       cs10                       004c2694     MSVCRT:chkstk.obj
 0001:000c16a2       cs20                       004c26a2     MSVCRT:chkstk.obj
 0001:000c16c0       __ehhandler$??1DXC_ddraw@@UAE@XZ 004c26c0 f   DXC_ddraw.obj
 0001:000c16c0       __ehhandler$??1DXC_dinput@@UAE@XZ 004c26c0 f   DXC_dinput.obj
 0001:000c16c0       __ehhandler$??1CMapData@@UAE@XZ 004c26c0 f   MapData.obj
 0001:000c16c0       __ehhandler$??1CSprite@@UAE@XZ 004c26c0 f   Sprite.obj
 0001:000c16e0       __ehhandler$?Screenshot@DXC_ddraw@@QAE_NPBDPAUIDirectDrawSurface7@@@Z 004c26e0 f   DXC_ddraw.obj
 0001:000c1710       __ehhandler$??1CxImage@@UAE@XZ 004c2710 f   Game.obj
 0001:000c1710       __ehhandler$??1_Sentry_base@?$basic_ostream@DU?$char_traits@D@std@@@std@@QAE@XZ 004c2710 f   Game.obj
 0001:000c1710       __ehhandler$??1YWSound@@UAE@XZ 004c2710 f   YWSound.obj
 0001:000c1730       __unwindfunclet$?LogDebug@@YAXPBDZZ$0 004c2730 f   Game.obj
 0001:000c173c       __unwindfunclet$?LogDebug@@YAXPBDZZ$1 004c273c f   Game.obj
 0001:000c175e       __unwindfunclet$?LogDebug@@YAXPBDZZ$2 004c275e f   Game.obj
 0001:000c1769       __unwindfunclet$?LogDebug@@YAXPBDZZ$3 004c2769 f   Game.obj
 0001:000c1773       __unwindfunclet$?LogDebug@@YAXPBDZZ$5 004c2773 f   Game.obj
 0001:000c1783       __ehhandler$?LogDebug@@YAXPBDZZ 004c2783 f   Game.obj
 0001:000c17b0       __unwindfunclet$?bInit@CGame@@QAE_NPAUHWND__@@PAUHINSTANCE__@@PAD@Z$2 004c27b0 f   Game.obj
 0001:000c17bf       __unwindfunclet$?bInit@CGame@@QAE_NPAUHWND__@@PAUHINSTANCE__@@PAD@Z$3 004c27bf f   Game.obj
 0001:000c17ce       __unwindfunclet$?bInit@CGame@@QAE_NPAUHWND__@@PAUHINSTANCE__@@PAD@Z$4 004c27ce f   Game.obj
 0001:000c17d6       __unwindfunclet$?bInit@CGame@@QAE_NPAUHWND__@@PAUHINSTANCE__@@PAD@Z$5 004c27d6 f   Game.obj
 0001:000c17de       __unwindfunclet$?bInit@CGame@@QAE_NPAUHWND__@@PAUHINSTANCE__@@PAD@Z$6 004c27de f   Game.obj
 0001:000c17e6       __unwindfunclet$?bInit@CGame@@QAE_NPAUHWND__@@PAUHINSTANCE__@@PAD@Z$7 004c27e6 f   Game.obj
 0001:000c17ee       __unwindfunclet$?bInit@CGame@@QAE_NPAUHWND__@@PAUHINSTANCE__@@PAD@Z$8 004c27ee f   Game.obj
 0001:000c17f6       __unwindfunclet$?bInit@CGame@@QAE_NPAUHWND__@@PAUHINSTANCE__@@PAD@Z$9 004c27f6 f   Game.obj
 0001:000c17fe       __unwindfunclet$?bInit@CGame@@QAE_NPAUHWND__@@PAUHINSTANCE__@@PAD@Z$10 004c27fe f   Game.obj
 0001:000c1806       __unwindfunclet$?bInit@CGame@@QAE_NPAUHWND__@@PAUHINSTANCE__@@PAD@Z$11 004c2806 f   Game.obj
 0001:000c1813       __ehhandler$?bInit@CGame@@QAE_NPAUHWND__@@PAUHINSTANCE__@@PAD@Z 004c2813 f   Game.obj
 0001:000c1840       __unwindfunclet$?MakeEffectSpr@CGame@@QAEXPADFF_N@Z$0 004c2840 f   Game.obj
 0001:000c1840       __unwindfunclet$?MakeSprite@CGame@@QAEXPADFF_N@Z$0 004c2840 f   Game.obj
 0001:000c1840       __unwindfunclet$?MakeTileSpr@CGame@@QAEXPADFF_N@Z$0 004c2840 f   Game.obj
 0001:000c184d       __ehhandler$?MakeEffectSpr@CGame@@QAEXPADFF_N@Z 004c284d f   Game.obj
 0001:000c184d       __ehhandler$?MakeSprite@CGame@@QAEXPADFF_N@Z 004c284d f   Game.obj
 0001:000c184d       __ehhandler$?MakeTileSpr@CGame@@QAEXPADFF_N@Z 004c284d f   Game.obj
 0001:000c1880       __unwindfunclet$?UpdateScreen_OnLoading@CGame@@QAEX_N@Z$0 004c2880 f   Game.obj
 0001:000c1888       __unwindfunclet$?UpdateScreen_OnLoading@CGame@@QAEX_N@Z$1 004c2888 f   Game.obj
 0001:000c1890       __unwindfunclet$?UpdateScreen_OnLoading@CGame@@QAEX_N@Z$2 004c2890 f   Game.obj
 0001:000c1898       __unwindfunclet$?UpdateScreen_OnLoading@CGame@@QAEX_N@Z$3 004c2898 f   Game.obj
 0001:000c18a0       __unwindfunclet$?UpdateScreen_OnLoading@CGame@@QAEX_N@Z$4 004c28a0 f   Game.obj
 0001:000c18a8       __unwindfunclet$?UpdateScreen_OnLoading@CGame@@QAEX_N@Z$5 004c28a8 f   Game.obj
 0001:000c18b0       __unwindfunclet$?UpdateScreen_OnLoading@CGame@@QAEX_N@Z$6 004c28b0 f   Game.obj
 0001:000c18b8       __unwindfunclet$?UpdateScreen_OnLoading@CGame@@QAEX_N@Z$7 004c28b8 f   Game.obj
 0001:000c18c0       __unwindfunclet$?UpdateScreen_OnLoading@CGame@@QAEX_N@Z$8 004c28c0 f   Game.obj
 0001:000c18c8       __unwindfunclet$?UpdateScreen_OnLoading@CGame@@QAEX_N@Z$9 004c28c8 f   Game.obj
 0001:000c18d0       __unwindfunclet$?UpdateScreen_OnLoading@CGame@@QAEX_N@Z$10 004c28d0 f   Game.obj
 0001:000c18d8       __unwindfunclet$?UpdateScreen_OnLoading@CGame@@QAEX_N@Z$11 004c28d8 f   Game.obj
 0001:000c18e0       __unwindfunclet$?UpdateScreen_OnLoading@CGame@@QAEX_N@Z$12 004c28e0 f   Game.obj
 0001:000c18e8       __unwindfunclet$?UpdateScreen_OnLoading@CGame@@QAEX_N@Z$13 004c28e8 f   Game.obj
 0001:000c18f0       __unwindfunclet$?UpdateScreen_OnLoading@CGame@@QAEX_N@Z$14 004c28f0 f   Game.obj
 0001:000c18f8       __unwindfunclet$?UpdateScreen_OnLoading@CGame@@QAEX_N@Z$15 004c28f8 f   Game.obj
 0001:000c1900       __unwindfunclet$?UpdateScreen_OnLoading@CGame@@QAEX_N@Z$16 004c2900 f   Game.obj
 0001:000c1908       __unwindfunclet$?UpdateScreen_OnLoading@CGame@@QAEX_N@Z$17 004c2908 f   Game.obj
 0001:000c1910       __unwindfunclet$?UpdateScreen_OnLoading@CGame@@QAEX_N@Z$18 004c2910 f   Game.obj
 0001:000c1918       __unwindfunclet$?UpdateScreen_OnLoading@CGame@@QAEX_N@Z$19 004c2918 f   Game.obj
 0001:000c1920       __unwindfunclet$?UpdateScreen_OnLoading@CGame@@QAEX_N@Z$20 004c2920 f   Game.obj
 0001:000c1928       __unwindfunclet$?UpdateScreen_OnLoading@CGame@@QAEX_N@Z$21 004c2928 f   Game.obj
 0001:000c1930       __unwindfunclet$?UpdateScreen_OnLoading@CGame@@QAEX_N@Z$22 004c2930 f   Game.obj
 0001:000c1938       __unwindfunclet$?UpdateScreen_OnLoading@CGame@@QAEX_N@Z$23 004c2938 f   Game.obj
 0001:000c1940       __unwindfunclet$?UpdateScreen_OnLoading@CGame@@QAEX_N@Z$24 004c2940 f   Game.obj
 0001:000c1948       __unwindfunclet$?UpdateScreen_OnLoading@CGame@@QAEX_N@Z$25 004c2948 f   Game.obj
 0001:000c1950       __unwindfunclet$?UpdateScreen_OnLoading@CGame@@QAEX_N@Z$26 004c2950 f   Game.obj
 0001:000c1958       __unwindfunclet$?UpdateScreen_OnLoading@CGame@@QAEX_N@Z$27 004c2958 f   Game.obj
 0001:000c1960       __unwindfunclet$?UpdateScreen_OnLoading@CGame@@QAEX_N@Z$28 004c2960 f   Game.obj
 0001:000c1968       __unwindfunclet$?UpdateScreen_OnLoading@CGame@@QAEX_N@Z$29 004c2968 f   Game.obj
 0001:000c1970       __unwindfunclet$?UpdateScreen_OnLoading@CGame@@QAEX_N@Z$30 004c2970 f   Game.obj
 0001:000c1978       __unwindfunclet$?UpdateScreen_OnLoading@CGame@@QAEX_N@Z$31 004c2978 f   Game.obj
 0001:000c1980       __unwindfunclet$?UpdateScreen_OnLoading@CGame@@QAEX_N@Z$32 004c2980 f   Game.obj
 0001:000c1988       __unwindfunclet$?UpdateScreen_OnLoading@CGame@@QAEX_N@Z$33 004c2988 f   Game.obj
 0001:000c1990       __unwindfunclet$?UpdateScreen_OnLoading@CGame@@QAEX_N@Z$34 004c2990 f   Game.obj
 0001:000c1998       __unwindfunclet$?UpdateScreen_OnLoading@CGame@@QAEX_N@Z$35 004c2998 f   Game.obj
 0001:000c19a0       __unwindfunclet$?UpdateScreen_OnLoading@CGame@@QAEX_N@Z$36 004c29a0 f   Game.obj
 0001:000c19a8       __unwindfunclet$?UpdateScreen_OnLoading@CGame@@QAEX_N@Z$37 004c29a8 f   Game.obj
 0001:000c19b0       __unwindfunclet$?UpdateScreen_OnLoading@CGame@@QAEX_N@Z$38 004c29b0 f   Game.obj
 0001:000c19b8       __unwindfunclet$?UpdateScreen_OnLoading@CGame@@QAEX_N@Z$39 004c29b8 f   Game.obj
 0001:000c19c0       __unwindfunclet$?UpdateScreen_OnLoading@CGame@@QAEX_N@Z$40 004c29c0 f   Game.obj
 0001:000c19c8       __unwindfunclet$?UpdateScreen_OnLoading@CGame@@QAEX_N@Z$41 004c29c8 f   Game.obj
 0001:000c19d0       __unwindfunclet$?UpdateScreen_OnLoading@CGame@@QAEX_N@Z$42 004c29d0 f   Game.obj
 0001:000c19d8       __unwindfunclet$?UpdateScreen_OnLoading@CGame@@QAEX_N@Z$43 004c29d8 f   Game.obj
 0001:000c19e0       __unwindfunclet$?UpdateScreen_OnLoading@CGame@@QAEX_N@Z$44 004c29e0 f   Game.obj
 0001:000c19e8       __unwindfunclet$?UpdateScreen_OnLoading@CGame@@QAEX_N@Z$45 004c29e8 f   Game.obj
 0001:000c19f0       __unwindfunclet$?UpdateScreen_OnLoading@CGame@@QAEX_N@Z$46 004c29f0 f   Game.obj
 0001:000c19f8       __unwindfunclet$?UpdateScreen_OnLoading@CGame@@QAEX_N@Z$47 004c29f8 f   Game.obj
 0001:000c1a00       __unwindfunclet$?UpdateScreen_OnLoading@CGame@@QAEX_N@Z$48 004c2a00 f   Game.obj
 0001:000c1a08       __unwindfunclet$?UpdateScreen_OnLoading@CGame@@QAEX_N@Z$49 004c2a08 f   Game.obj
 0001:000c1a10       __unwindfunclet$?UpdateScreen_OnLoading@CGame@@QAEX_N@Z$50 004c2a10 f   Game.obj
 0001:000c1a18       __unwindfunclet$?UpdateScreen_OnLoading@CGame@@QAEX_N@Z$51 004c2a18 f   Game.obj
 0001:000c1a20       __unwindfunclet$?UpdateScreen_OnLoading@CGame@@QAEX_N@Z$52 004c2a20 f   Game.obj
 0001:000c1a28       __unwindfunclet$?UpdateScreen_OnLoading@CGame@@QAEX_N@Z$53 004c2a28 f   Game.obj
 0001:000c1a30       __unwindfunclet$?UpdateScreen_OnLoading@CGame@@QAEX_N@Z$54 004c2a30 f   Game.obj
 0001:000c1a38       __unwindfunclet$?UpdateScreen_OnLoading@CGame@@QAEX_N@Z$55 004c2a38 f   Game.obj
 0001:000c1a40       __unwindfunclet$?UpdateScreen_OnLoading@CGame@@QAEX_N@Z$56 004c2a40 f   Game.obj
 0001:000c1a48       __unwindfunclet$?UpdateScreen_OnLoading@CGame@@QAEX_N@Z$57 004c2a48 f   Game.obj
 0001:000c1a50       __unwindfunclet$?UpdateScreen_OnLoading@CGame@@QAEX_N@Z$58 004c2a50 f   Game.obj
 0001:000c1a58       __unwindfunclet$?UpdateScreen_OnLoading@CGame@@QAEX_N@Z$59 004c2a58 f   Game.obj
 0001:000c1a60       __unwindfunclet$?UpdateScreen_OnLoading@CGame@@QAEX_N@Z$60 004c2a60 f   Game.obj
 0001:000c1a68       __unwindfunclet$?UpdateScreen_OnLoading@CGame@@QAEX_N@Z$61 004c2a68 f   Game.obj
 0001:000c1a70       __unwindfunclet$?UpdateScreen_OnLoading@CGame@@QAEX_N@Z$62 004c2a70 f   Game.obj
 0001:000c1a78       __unwindfunclet$?UpdateScreen_OnLoading@CGame@@QAEX_N@Z$63 004c2a78 f   Game.obj
 0001:000c1a80       __unwindfunclet$?UpdateScreen_OnLoading@CGame@@QAEX_N@Z$64 004c2a80 f   Game.obj
 0001:000c1a88       __unwindfunclet$?UpdateScreen_OnLoading@CGame@@QAEX_N@Z$65 004c2a88 f   Game.obj
 0001:000c1a90       __unwindfunclet$?UpdateScreen_OnLoading@CGame@@QAEX_N@Z$66 004c2a90 f   Game.obj
 0001:000c1a98       __unwindfunclet$?UpdateScreen_OnLoading@CGame@@QAEX_N@Z$67 004c2a98 f   Game.obj
 0001:000c1aa0       __unwindfunclet$?UpdateScreen_OnLoading@CGame@@QAEX_N@Z$68 004c2aa0 f   Game.obj
 0001:000c1aa8       __unwindfunclet$?UpdateScreen_OnLoading@CGame@@QAEX_N@Z$69 004c2aa8 f   Game.obj
 0001:000c1ab0       __unwindfunclet$?UpdateScreen_OnLoading@CGame@@QAEX_N@Z$70 004c2ab0 f   Game.obj
 0001:000c1ab8       __unwindfunclet$?UpdateScreen_OnLoading@CGame@@QAEX_N@Z$71 004c2ab8 f   Game.obj
 0001:000c1ac0       __unwindfunclet$?UpdateScreen_OnLoading@CGame@@QAEX_N@Z$72 004c2ac0 f   Game.obj
 0001:000c1ac8       __unwindfunclet$?UpdateScreen_OnLoading@CGame@@QAEX_N@Z$73 004c2ac8 f   Game.obj
 0001:000c1ad0       __unwindfunclet$?UpdateScreen_OnLoading@CGame@@QAEX_N@Z$74 004c2ad0 f   Game.obj
 0001:000c1ad8       __unwindfunclet$?UpdateScreen_OnLoading@CGame@@QAEX_N@Z$75 004c2ad8 f   Game.obj
 0001:000c1ae0       __unwindfunclet$?UpdateScreen_OnLoading@CGame@@QAEX_N@Z$76 004c2ae0 f   Game.obj
 0001:000c1ae8       __unwindfunclet$?UpdateScreen_OnLoading@CGame@@QAEX_N@Z$77 004c2ae8 f   Game.obj
 0001:000c1af0       __unwindfunclet$?UpdateScreen_OnLoading@CGame@@QAEX_N@Z$78 004c2af0 f   Game.obj
 0001:000c1af8       __unwindfunclet$?UpdateScreen_OnLoading@CGame@@QAEX_N@Z$79 004c2af8 f   Game.obj
 0001:000c1b00       __unwindfunclet$?UpdateScreen_OnLoading@CGame@@QAEX_N@Z$80 004c2b00 f   Game.obj
 0001:000c1b08       __unwindfunclet$?UpdateScreen_OnLoading@CGame@@QAEX_N@Z$81 004c2b08 f   Game.obj
 0001:000c1b10       __unwindfunclet$?UpdateScreen_OnLoading@CGame@@QAEX_N@Z$82 004c2b10 f   Game.obj
 0001:000c1b18       __unwindfunclet$?UpdateScreen_OnLoading@CGame@@QAEX_N@Z$83 004c2b18 f   Game.obj
 0001:000c1b20       __unwindfunclet$?UpdateScreen_OnLoading@CGame@@QAEX_N@Z$84 004c2b20 f   Game.obj
 0001:000c1b28       __unwindfunclet$?UpdateScreen_OnLoading@CGame@@QAEX_N@Z$85 004c2b28 f   Game.obj
 0001:000c1b30       __unwindfunclet$?UpdateScreen_OnLoading@CGame@@QAEX_N@Z$86 004c2b30 f   Game.obj
 0001:000c1b38       __unwindfunclet$?UpdateScreen_OnLoading@CGame@@QAEX_N@Z$87 004c2b38 f   Game.obj
 0001:000c1b40       __unwindfunclet$?UpdateScreen_OnLoading@CGame@@QAEX_N@Z$88 004c2b40 f   Game.obj
 0001:000c1b48       __unwindfunclet$?UpdateScreen_OnLoading@CGame@@QAEX_N@Z$89 004c2b48 f   Game.obj
 0001:000c1b50       __unwindfunclet$?UpdateScreen_OnLoading@CGame@@QAEX_N@Z$90 004c2b50 f   Game.obj
 0001:000c1b58       __unwindfunclet$?UpdateScreen_OnLoading@CGame@@QAEX_N@Z$91 004c2b58 f   Game.obj
 0001:000c1b60       __unwindfunclet$?UpdateScreen_OnLoading@CGame@@QAEX_N@Z$92 004c2b60 f   Game.obj
 0001:000c1b68       __unwindfunclet$?UpdateScreen_OnLoading@CGame@@QAEX_N@Z$93 004c2b68 f   Game.obj
 0001:000c1b70       __unwindfunclet$?UpdateScreen_OnLoading@CGame@@QAEX_N@Z$94 004c2b70 f   Game.obj
 0001:000c1b78       __unwindfunclet$?UpdateScreen_OnLoading@CGame@@QAEX_N@Z$95 004c2b78 f   Game.obj
 0001:000c1b80       __unwindfunclet$?UpdateScreen_OnLoading@CGame@@QAEX_N@Z$96 004c2b80 f   Game.obj
 0001:000c1b88       __unwindfunclet$?UpdateScreen_OnLoading@CGame@@QAEX_N@Z$97 004c2b88 f   Game.obj
 0001:000c1b90       __unwindfunclet$?UpdateScreen_OnLoading@CGame@@QAEX_N@Z$98 004c2b90 f   Game.obj
 0001:000c1b98       __unwindfunclet$?UpdateScreen_OnLoading@CGame@@QAEX_N@Z$99 004c2b98 f   Game.obj
 0001:000c1ba0       __unwindfunclet$?UpdateScreen_OnLoading@CGame@@QAEX_N@Z$100 004c2ba0 f   Game.obj
 0001:000c1ba8       __unwindfunclet$?UpdateScreen_OnLoading@CGame@@QAEX_N@Z$101 004c2ba8 f   Game.obj
 0001:000c1bb0       __unwindfunclet$?UpdateScreen_OnLoading@CGame@@QAEX_N@Z$102 004c2bb0 f   Game.obj
 0001:000c1bb8       __unwindfunclet$?UpdateScreen_OnLoading@CGame@@QAEX_N@Z$103 004c2bb8 f   Game.obj
 0001:000c1bc0       __unwindfunclet$?UpdateScreen_OnLoading@CGame@@QAEX_N@Z$104 004c2bc0 f   Game.obj
 0001:000c1bc8       __unwindfunclet$?UpdateScreen_OnLoading@CGame@@QAEX_N@Z$105 004c2bc8 f   Game.obj
 0001:000c1bd0       __unwindfunclet$?UpdateScreen_OnLoading@CGame@@QAEX_N@Z$106 004c2bd0 f   Game.obj
 0001:000c1bd8       __unwindfunclet$?UpdateScreen_OnLoading@CGame@@QAEX_N@Z$107 004c2bd8 f   Game.obj
 0001:000c1be0       __unwindfunclet$?UpdateScreen_OnLoading@CGame@@QAEX_N@Z$108 004c2be0 f   Game.obj
 0001:000c1be8       __unwindfunclet$?UpdateScreen_OnLoading@CGame@@QAEX_N@Z$109 004c2be8 f   Game.obj
 0001:000c1bf0       __unwindfunclet$?UpdateScreen_OnLoading@CGame@@QAEX_N@Z$110 004c2bf0 f   Game.obj
 0001:000c1bf8       __unwindfunclet$?UpdateScreen_OnLoading@CGame@@QAEX_N@Z$111 004c2bf8 f   Game.obj
 0001:000c1c00       __unwindfunclet$?UpdateScreen_OnLoading@CGame@@QAEX_N@Z$112 004c2c00 f   Game.obj
 0001:000c1c08       __unwindfunclet$?UpdateScreen_OnLoading@CGame@@QAEX_N@Z$113 004c2c08 f   Game.obj
 0001:000c1c10       __unwindfunclet$?UpdateScreen_OnLoading@CGame@@QAEX_N@Z$114 004c2c10 f   Game.obj
 0001:000c1c18       __unwindfunclet$?UpdateScreen_OnLoading@CGame@@QAEX_N@Z$115 004c2c18 f   Game.obj
 0001:000c1c20       __unwindfunclet$?UpdateScreen_OnLoading@CGame@@QAEX_N@Z$116 004c2c20 f   Game.obj
 0001:000c1c28       __unwindfunclet$?UpdateScreen_OnLoading@CGame@@QAEX_N@Z$117 004c2c28 f   Game.obj
 0001:000c1c30       __unwindfunclet$?UpdateScreen_OnLoading@CGame@@QAEX_N@Z$118 004c2c30 f   Game.obj
 0001:000c1c38       __unwindfunclet$?UpdateScreen_OnLoading@CGame@@QAEX_N@Z$119 004c2c38 f   Game.obj
 0001:000c1c40       __unwindfunclet$?UpdateScreen_OnLoading@CGame@@QAEX_N@Z$120 004c2c40 f   Game.obj
 0001:000c1c48       __unwindfunclet$?UpdateScreen_OnLoading@CGame@@QAEX_N@Z$121 004c2c48 f   Game.obj
 0001:000c1c50       __unwindfunclet$?UpdateScreen_OnLoading@CGame@@QAEX_N@Z$122 004c2c50 f   Game.obj
 0001:000c1c58       __unwindfunclet$?UpdateScreen_OnLoading@CGame@@QAEX_N@Z$123 004c2c58 f   Game.obj
 0001:000c1c60       __unwindfunclet$?UpdateScreen_OnLoading@CGame@@QAEX_N@Z$124 004c2c60 f   Game.obj
 0001:000c1c68       __unwindfunclet$?UpdateScreen_OnLoading@CGame@@QAEX_N@Z$125 004c2c68 f   Game.obj
 0001:000c1c70       __unwindfunclet$?UpdateScreen_OnLoading@CGame@@QAEX_N@Z$126 004c2c70 f   Game.obj
 0001:000c1c78       __unwindfunclet$?UpdateScreen_OnLoading@CGame@@QAEX_N@Z$127 004c2c78 f   Game.obj
 0001:000c1c80       __unwindfunclet$?UpdateScreen_OnLoading@CGame@@QAEX_N@Z$128 004c2c80 f   Game.obj
 0001:000c1c88       __unwindfunclet$?UpdateScreen_OnLoading@CGame@@QAEX_N@Z$129 004c2c88 f   Game.obj
 0001:000c1c90       __unwindfunclet$?UpdateScreen_OnLoading@CGame@@QAEX_N@Z$130 004c2c90 f   Game.obj
 0001:000c1c98       __unwindfunclet$?UpdateScreen_OnLoading@CGame@@QAEX_N@Z$131 004c2c98 f   Game.obj
 0001:000c1ca0       __unwindfunclet$?UpdateScreen_OnLoading@CGame@@QAEX_N@Z$132 004c2ca0 f   Game.obj
 0001:000c1ca8       __unwindfunclet$?UpdateScreen_OnLoading@CGame@@QAEX_N@Z$133 004c2ca8 f   Game.obj
 0001:000c1cb0       __unwindfunclet$?UpdateScreen_OnLoading@CGame@@QAEX_N@Z$134 004c2cb0 f   Game.obj
 0001:000c1cb8       __unwindfunclet$?UpdateScreen_OnLoading@CGame@@QAEX_N@Z$135 004c2cb8 f   Game.obj
 0001:000c1cc0       __unwindfunclet$?UpdateScreen_OnLoading@CGame@@QAEX_N@Z$136 004c2cc0 f   Game.obj
 0001:000c1cc8       __unwindfunclet$?UpdateScreen_OnLoading@CGame@@QAEX_N@Z$137 004c2cc8 f   Game.obj
 0001:000c1cd0       __unwindfunclet$?UpdateScreen_OnLoading@CGame@@QAEX_N@Z$138 004c2cd0 f   Game.obj
 0001:000c1cd8       __unwindfunclet$?UpdateScreen_OnLoading@CGame@@QAEX_N@Z$139 004c2cd8 f   Game.obj
 0001:000c1ce0       __unwindfunclet$?UpdateScreen_OnLoading@CGame@@QAEX_N@Z$140 004c2ce0 f   Game.obj
 0001:000c1ce8       __unwindfunclet$?UpdateScreen_OnLoading@CGame@@QAEX_N@Z$141 004c2ce8 f   Game.obj
 0001:000c1cf0       __unwindfunclet$?UpdateScreen_OnLoading@CGame@@QAEX_N@Z$142 004c2cf0 f   Game.obj
 0001:000c1cf8       __unwindfunclet$?UpdateScreen_OnLoading@CGame@@QAEX_N@Z$143 004c2cf8 f   Game.obj
 0001:000c1d00       __unwindfunclet$?UpdateScreen_OnLoading@CGame@@QAEX_N@Z$144 004c2d00 f   Game.obj
 0001:000c1d08       __unwindfunclet$?UpdateScreen_OnLoading@CGame@@QAEX_N@Z$145 004c2d08 f   Game.obj
 0001:000c1d10       __unwindfunclet$?UpdateScreen_OnLoading@CGame@@QAEX_N@Z$146 004c2d10 f   Game.obj
 0001:000c1d22       __unwindfunclet$?UpdateScreen_OnLoading@CGame@@QAEX_N@Z$147 004c2d22 f   Game.obj
 0001:000c1d34       __unwindfunclet$?UpdateScreen_OnLoading@CGame@@QAEX_N@Z$148 004c2d34 f   Game.obj
 0001:000c1d4b       __ehhandler$?UpdateScreen_OnLoading@CGame@@QAEX_N@Z 004c2d4b f   Game.obj
 0001:000c1d70       __unwindfunclet$?PutChatScrollList@CGame@@QAEXPADD@Z$0 004c2d70 f   Game.obj
 0001:000c1d7d       __ehhandler$?PutChatScrollList@CGame@@QAEXPADD@Z 004c2d7d f   Game.obj
 0001:000c1da0       __unwindfunclet$?ChatMsgHandler@CGame@@QAEXPAD@Z$0 004c2da0 f   Game.obj
 0001:000c1db0       __ehhandler$?ChatMsgHandler@CGame@@QAEXPAD@Z 004c2db0 f   Game.obj
 0001:000c1de0       __unwindfunclet$?_LoadTextDlgContents@CGame@@QAEXH@Z$1 004c2de0 f   Game.obj
 0001:000c1df0       __ehhandler$?_LoadTextDlgContents@CGame@@QAEXH@Z 004c2df0 f   Game.obj
 0001:000c1e20       __unwindfunclet$?_iLoadTextDlgContents2@CGame@@QAEHH@Z$1 004c2e20 f   Game.obj
 0001:000c1e30       __ehhandler$?_iLoadTextDlgContents2@CGame@@QAEHH@Z 004c2e30 f   Game.obj
 0001:000c1e60       __unwindfunclet$?_LoadGameMsgTextContents@CGame@@QAEXXZ$1 004c2e60 f   Game.obj
 0001:000c1e70       __ehhandler$?_LoadGameMsgTextContents@CGame@@QAEXXZ 004c2e70 f   Game.obj
 0001:000c1ea0       __unwindfunclet$?CrusadeContributionResult@CGame@@QAEXH@Z$0 004c2ea0 f   Game.obj
 0001:000c1eab       __unwindfunclet$?CrusadeContributionResult@CGame@@QAEXH@Z$1 004c2eab f   Game.obj
 0001:000c1eb6       __unwindfunclet$?CrusadeContributionResult@CGame@@QAEXH@Z$2 004c2eb6 f   Game.obj
 0001:000c1ec1       __unwindfunclet$?CrusadeContributionResult@CGame@@QAEXH@Z$3 004c2ec1 f   Game.obj
 0001:000c1ecc       __unwindfunclet$?CrusadeContributionResult@CGame@@QAEXH@Z$4 004c2ecc f   Game.obj
 0001:000c1ed7       __unwindfunclet$?CrusadeContributionResult@CGame@@QAEXH@Z$5 004c2ed7 f   Game.obj
 0001:000c1ee2       __unwindfunclet$?CrusadeContributionResult@CGame@@QAEXH@Z$6 004c2ee2 f   Game.obj
 0001:000c1eed       __unwindfunclet$?CrusadeContributionResult@CGame@@QAEXH@Z$7 004c2eed f   Game.obj
 0001:000c1ef8       __unwindfunclet$?CrusadeContributionResult@CGame@@QAEXH@Z$8 004c2ef8 f   Game.obj
 0001:000c1f03       __unwindfunclet$?CrusadeContributionResult@CGame@@QAEXH@Z$9 004c2f03 f   Game.obj
 0001:000c1f0e       __unwindfunclet$?CrusadeContributionResult@CGame@@QAEXH@Z$10 004c2f0e f   Game.obj
 0001:000c1f19       __unwindfunclet$?CrusadeContributionResult@CGame@@QAEXH@Z$11 004c2f19 f   Game.obj
 0001:000c1f24       __unwindfunclet$?CrusadeContributionResult@CGame@@QAEXH@Z$12 004c2f24 f   Game.obj
 0001:000c1f2f       __unwindfunclet$?CrusadeContributionResult@CGame@@QAEXH@Z$13 004c2f2f f   Game.obj
 0001:000c1f3a       __unwindfunclet$?CrusadeContributionResult@CGame@@QAEXH@Z$14 004c2f3a f   Game.obj
 0001:000c1f45       __unwindfunclet$?CrusadeContributionResult@CGame@@QAEXH@Z$15 004c2f45 f   Game.obj
 0001:000c1f50       __unwindfunclet$?CrusadeContributionResult@CGame@@QAEXH@Z$16 004c2f50 f   Game.obj
 0001:000c1f5b       __unwindfunclet$?CrusadeContributionResult@CGame@@QAEXH@Z$17 004c2f5b f   Game.obj
 0001:000c1f66       __unwindfunclet$?CrusadeContributionResult@CGame@@QAEXH@Z$18 004c2f66 f   Game.obj
 0001:000c1f71       __unwindfunclet$?CrusadeContributionResult@CGame@@QAEXH@Z$19 004c2f71 f   Game.obj
 0001:000c1f7c       __unwindfunclet$?CrusadeContributionResult@CGame@@QAEXH@Z$20 004c2f7c f   Game.obj
 0001:000c1f87       __unwindfunclet$?CrusadeContributionResult@CGame@@QAEXH@Z$21 004c2f87 f   Game.obj
 0001:000c1f92       __unwindfunclet$?CrusadeContributionResult@CGame@@QAEXH@Z$22 004c2f92 f   Game.obj
 0001:000c1f9d       __unwindfunclet$?CrusadeContributionResult@CGame@@QAEXH@Z$23 004c2f9d f   Game.obj
 0001:000c1fa8       __unwindfunclet$?CrusadeContributionResult@CGame@@QAEXH@Z$24 004c2fa8 f   Game.obj
 0001:000c1fb3       __unwindfunclet$?CrusadeContributionResult@CGame@@QAEXH@Z$25 004c2fb3 f   Game.obj
 0001:000c1fbe       __unwindfunclet$?CrusadeContributionResult@CGame@@QAEXH@Z$26 004c2fbe f   Game.obj
 0001:000c1fc9       __unwindfunclet$?CrusadeContributionResult@CGame@@QAEXH@Z$27 004c2fc9 f   Game.obj
 0001:000c1fd4       __unwindfunclet$?CrusadeContributionResult@CGame@@QAEXH@Z$28 004c2fd4 f   Game.obj
 0001:000c1fe4       __ehhandler$?CrusadeContributionResult@CGame@@QAEXH@Z 004c2fe4 f   Game.obj
 0001:000c2010       __unwindfunclet$?CrusadeWarResult@CGame@@QAEXH@Z$13 004c3010 f   Game.obj
 0001:000c2018       __unwindfunclet$?CrusadeWarResult@CGame@@QAEXH@Z$14 004c3018 f   Game.obj
 0001:000c2020       __unwindfunclet$?CrusadeWarResult@CGame@@QAEXH@Z$15 004c3020 f   Game.obj
 0001:000c2028       __unwindfunclet$?CrusadeWarResult@CGame@@QAEXH@Z$16 004c3028 f   Game.obj
 0001:000c2030       __unwindfunclet$?CrusadeWarResult@CGame@@QAEXH@Z$17 004c3030 f   Game.obj
 0001:000c2038       __unwindfunclet$?CrusadeWarResult@CGame@@QAEXH@Z$26 004c3038 f   Game.obj
 0001:000c2040       __unwindfunclet$?CrusadeWarResult@CGame@@QAEXH@Z$27 004c3040 f   Game.obj
 0001:000c2048       __unwindfunclet$?CrusadeWarResult@CGame@@QAEXH@Z$28 004c3048 f   Game.obj
 0001:000c2050       __unwindfunclet$?CrusadeWarResult@CGame@@QAEXH@Z$29 004c3050 f   Game.obj
 0001:000c2058       __unwindfunclet$?CrusadeWarResult@CGame@@QAEXH@Z$30 004c3058 f   Game.obj
 0001:000c2060       __unwindfunclet$?CrusadeWarResult@CGame@@QAEXH@Z$31 004c3060 f   Game.obj
 0001:000c2068       __unwindfunclet$?CrusadeWarResult@CGame@@QAEXH@Z$32 004c3068 f   Game.obj
 0001:000c2070       __unwindfunclet$?CrusadeWarResult@CGame@@QAEXH@Z$33 004c3070 f   Game.obj
 0001:000c2078       __unwindfunclet$?CrusadeWarResult@CGame@@QAEXH@Z$18 004c3078 f   Game.obj
 0001:000c2080       __unwindfunclet$?CrusadeWarResult@CGame@@QAEXH@Z$19 004c3080 f   Game.obj
 0001:000c2088       __unwindfunclet$?CrusadeWarResult@CGame@@QAEXH@Z$20 004c3088 f   Game.obj
 0001:000c2090       __unwindfunclet$?CrusadeWarResult@CGame@@QAEXH@Z$21 004c3090 f   Game.obj
 0001:000c2098       __unwindfunclet$?CrusadeWarResult@CGame@@QAEXH@Z$22 004c3098 f   Game.obj
 0001:000c20a0       __unwindfunclet$?CrusadeWarResult@CGame@@QAEXH@Z$23 004c30a0 f   Game.obj
 0001:000c20a8       __unwindfunclet$?CrusadeWarResult@CGame@@QAEXH@Z$24 004c30a8 f   Game.obj
 0001:000c20b0       __unwindfunclet$?CrusadeWarResult@CGame@@QAEXH@Z$25 004c30b0 f   Game.obj
 0001:000c20b8       __unwindfunclet$?CrusadeWarResult@CGame@@QAEXH@Z$34 004c30b8 f   Game.obj
 0001:000c20c0       __unwindfunclet$?CrusadeWarResult@CGame@@QAEXH@Z$43 004c30c0 f   Game.obj
 0001:000c20c8       __unwindfunclet$?CrusadeWarResult@CGame@@QAEXH@Z$44 004c30c8 f   Game.obj
 0001:000c20d0       __unwindfunclet$?CrusadeWarResult@CGame@@QAEXH@Z$45 004c30d0 f   Game.obj
 0001:000c20d8       __unwindfunclet$?CrusadeWarResult@CGame@@QAEXH@Z$46 004c30d8 f   Game.obj
 0001:000c20e0       __unwindfunclet$?CrusadeWarResult@CGame@@QAEXH@Z$47 004c30e0 f   Game.obj
 0001:000c20e8       __unwindfunclet$?CrusadeWarResult@CGame@@QAEXH@Z$48 004c30e8 f   Game.obj
 0001:000c20f0       __unwindfunclet$?CrusadeWarResult@CGame@@QAEXH@Z$49 004c30f0 f   Game.obj
 0001:000c20f8       __unwindfunclet$?CrusadeWarResult@CGame@@QAEXH@Z$50 004c30f8 f   Game.obj
 0001:000c2100       __unwindfunclet$?CrusadeWarResult@CGame@@QAEXH@Z$35 004c3100 f   Game.obj
 0001:000c2108       __unwindfunclet$?CrusadeWarResult@CGame@@QAEXH@Z$36 004c3108 f   Game.obj
 0001:000c2110       __unwindfunclet$?CrusadeWarResult@CGame@@QAEXH@Z$37 004c3110 f   Game.obj
 0001:000c2118       __unwindfunclet$?CrusadeWarResult@CGame@@QAEXH@Z$38 004c3118 f   Game.obj
 0001:000c2120       __unwindfunclet$?CrusadeWarResult@CGame@@QAEXH@Z$39 004c3120 f   Game.obj
 0001:000c2128       __unwindfunclet$?CrusadeWarResult@CGame@@QAEXH@Z$40 004c3128 f   Game.obj
 0001:000c2130       __unwindfunclet$?CrusadeWarResult@CGame@@QAEXH@Z$41 004c3130 f   Game.obj
 0001:000c2138       __unwindfunclet$?CrusadeWarResult@CGame@@QAEXH@Z$42 004c3138 f   Game.obj
 0001:000c2140       __unwindfunclet$?CrusadeWarResult@CGame@@QAEXH@Z$51 004c3140 f   Game.obj
 0001:000c2148       __unwindfunclet$?CrusadeWarResult@CGame@@QAEXH@Z$8 004c3148 f   Game.obj
 0001:000c2150       __unwindfunclet$?CrusadeWarResult@CGame@@QAEXH@Z$9 004c3150 f   Game.obj
 0001:000c2158       __unwindfunclet$?CrusadeWarResult@CGame@@QAEXH@Z$10 004c3158 f   Game.obj
 0001:000c2160       __unwindfunclet$?CrusadeWarResult@CGame@@QAEXH@Z$11 004c3160 f   Game.obj
 0001:000c2168       __unwindfunclet$?CrusadeWarResult@CGame@@QAEXH@Z$4 004c3168 f   Game.obj
 0001:000c2170       __unwindfunclet$?CrusadeWarResult@CGame@@QAEXH@Z$5 004c3170 f   Game.obj
 0001:000c2178       __unwindfunclet$?CrusadeWarResult@CGame@@QAEXH@Z$6 004c3178 f   Game.obj
 0001:000c2180       __unwindfunclet$?CrusadeWarResult@CGame@@QAEXH@Z$7 004c3180 f   Game.obj
 0001:000c2188       __unwindfunclet$?CrusadeWarResult@CGame@@QAEXH@Z$0 004c3188 f   Game.obj
 0001:000c2190       __unwindfunclet$?CrusadeWarResult@CGame@@QAEXH@Z$1 004c3190 f   Game.obj
 0001:000c2198       __unwindfunclet$?CrusadeWarResult@CGame@@QAEXH@Z$2 004c3198 f   Game.obj
 0001:000c21a0       __unwindfunclet$?CrusadeWarResult@CGame@@QAEXH@Z$3 004c31a0 f   Game.obj
 0001:000c21a8       __unwindfunclet$?CrusadeWarResult@CGame@@QAEXH@Z$12 004c31a8 f   Game.obj
 0001:000c21b5       __ehhandler$?CrusadeWarResult@CGame@@QAEXH@Z 004c31b5 f   Game.obj
 0001:000c21e0       __unwindfunclet$?CreateScreenShot@CGame@@QAEXXZ$0 004c31e0 f   Game.obj
 0001:000c21f0       __ehhandler$?CreateScreenShot@CGame@@QAEXXZ 004c31f0 f   Game.obj
 0001:000c2220       __unwindfunclet$?bCheckLocalChatCommand@CGame@@QAE_NPAD@Z$1 004c3220 f   Game.obj
 0001:000c2230       __ehhandler$?bCheckLocalChatCommand@CGame@@QAE_NPAD@Z 004c3230 f   Game.obj
 0001:000c2260       __unwindfunclet$?NpcTalkHandler@CGame@@QAEXPAD@Z$0 004c3260 f   Game.obj
 0001:000c226b       __unwindfunclet$?NpcTalkHandler@CGame@@QAEXPAD@Z$11 004c326b f   Game.obj
 0001:000c2276       __unwindfunclet$?NpcTalkHandler@CGame@@QAEXPAD@Z$12 004c3276 f   Game.obj
 0001:000c2281       __unwindfunclet$?NpcTalkHandler@CGame@@QAEXPAD@Z$13 004c3281 f   Game.obj
 0001:000c228c       __unwindfunclet$?NpcTalkHandler@CGame@@QAEXPAD@Z$14 004c328c f   Game.obj
 0001:000c2297       __unwindfunclet$?NpcTalkHandler@CGame@@QAEXPAD@Z$15 004c3297 f   Game.obj
 0001:000c22a2       __unwindfunclet$?NpcTalkHandler@CGame@@QAEXPAD@Z$16 004c32a2 f   Game.obj
 0001:000c22ad       __unwindfunclet$?NpcTalkHandler@CGame@@QAEXPAD@Z$17 004c32ad f   Game.obj
 0001:000c22b8       __unwindfunclet$?NpcTalkHandler@CGame@@QAEXPAD@Z$18 004c32b8 f   Game.obj
 0001:000c22c3       __unwindfunclet$?NpcTalkHandler@CGame@@QAEXPAD@Z$23 004c32c3 f   Game.obj
 0001:000c22ce       __unwindfunclet$?NpcTalkHandler@CGame@@QAEXPAD@Z$24 004c32ce f   Game.obj
 0001:000c22d9       __unwindfunclet$?NpcTalkHandler@CGame@@QAEXPAD@Z$25 004c32d9 f   Game.obj
 0001:000c22e4       __unwindfunclet$?NpcTalkHandler@CGame@@QAEXPAD@Z$6 004c32e4 f   Game.obj
 0001:000c22ef       __unwindfunclet$?NpcTalkHandler@CGame@@QAEXPAD@Z$7 004c32ef f   Game.obj
 0001:000c22fa       __unwindfunclet$?NpcTalkHandler@CGame@@QAEXPAD@Z$8 004c32fa f   Game.obj
 0001:000c2305       __unwindfunclet$?NpcTalkHandler@CGame@@QAEXPAD@Z$9 004c3305 f   Game.obj
 0001:000c2310       __unwindfunclet$?NpcTalkHandler@CGame@@QAEXPAD@Z$10 004c3310 f   Game.obj
 0001:000c231b       __unwindfunclet$?NpcTalkHandler@CGame@@QAEXPAD@Z$1 004c331b f   Game.obj
 0001:000c2326       __unwindfunclet$?NpcTalkHandler@CGame@@QAEXPAD@Z$2 004c3326 f   Game.obj
 0001:000c2331       __unwindfunclet$?NpcTalkHandler@CGame@@QAEXPAD@Z$3 004c3331 f   Game.obj
 0001:000c233c       __unwindfunclet$?NpcTalkHandler@CGame@@QAEXPAD@Z$4 004c333c f   Game.obj
 0001:000c2347       __unwindfunclet$?NpcTalkHandler@CGame@@QAEXPAD@Z$5 004c3347 f   Game.obj
 0001:000c2352       __unwindfunclet$?NpcTalkHandler@CGame@@QAEXPAD@Z$19 004c3352 f   Game.obj
 0001:000c235d       __unwindfunclet$?NpcTalkHandler@CGame@@QAEXPAD@Z$20 004c335d f   Game.obj
 0001:000c2368       __unwindfunclet$?NpcTalkHandler@CGame@@QAEXPAD@Z$21 004c3368 f   Game.obj
 0001:000c2373       __unwindfunclet$?NpcTalkHandler@CGame@@QAEXPAD@Z$22 004c3373 f   Game.obj
 0001:000c2383       __ehhandler$?NpcTalkHandler@CGame@@QAEXPAD@Z 004c3383 f   Game.obj
 0001:000c23b0       __unwindfunclet$?CommandProcessor@CGame@@QAEXFFFFDD@Z$5 004c33b0 f   Game.obj
 0001:000c23bb       __unwindfunclet$?CommandProcessor@CGame@@QAEXFFFFDD@Z$6 004c33bb f   Game.obj
 0001:000c23cb       __ehhandler$?CommandProcessor@CGame@@QAEXFFFFDD@Z 004c33cb f   Game.obj
 0001:000c2400       __unwindfunclet$?NotifyMsg_EnemyKillReward@CGame@@QAEXPAD@Z$0 004c3400 f   Game.obj
 0001:000c2410       __ehhandler$?NotifyMsg_EnemyKillReward@CGame@@QAEXPAD@Z 004c3410 f   Game.obj
 0001:000c2440       __unwindfunclet$?NotifyMsg_LevelUp@CGame@@QAEXPAD@Z$0 004c3440 f   Game.obj
 0001:000c2450       __ehhandler$?NotifyMsg_LevelUp@CGame@@QAEXPAD@Z 004c3450 f   Game.obj
 0001:000c2480       __unwindfunclet$?NotifyMsg_QuestReward@CGame@@QAEXPAD@Z$0 004c3480 f   Game.obj
 0001:000c248b       __unwindfunclet$?NotifyMsg_QuestReward@CGame@@QAEXPAD@Z$1 004c348b f   Game.obj
 0001:000c2496       __unwindfunclet$?NotifyMsg_QuestReward@CGame@@QAEXPAD@Z$2 004c3496 f   Game.obj
 0001:000c24a1       __unwindfunclet$?NotifyMsg_QuestReward@CGame@@QAEXPAD@Z$3 004c34a1 f   Game.obj
 0001:000c24b1       __ehhandler$?NotifyMsg_QuestReward@CGame@@QAEXPAD@Z 004c34b1 f   Game.obj
 0001:000c24e0       __unwindfunclet$?NotifyMsg_Skill@CGame@@QAEXPAD@Z$0 004c34e0 f   Game.obj
 0001:000c24eb       __unwindfunclet$?NotifyMsg_Skill@CGame@@QAEXPAD@Z$1 004c34eb f   Game.obj
 0001:000c24fb       __ehhandler$?NotifyMsg_Skill@CGame@@QAEXPAD@Z 004c34fb f   Game.obj
 0001:000c2530       __unwindfunclet$?NotifyMsg_WhisperMode@CGame@@QAEX_NPAD@Z$0 004c3530 f   Game.obj
 0001:000c253d       __ehhandler$?NotifyMsg_WhisperMode@CGame@@QAEX_NPAD@Z 004c353d f   Game.obj
 0001:000c2570       __unwindfunclet$?MotionEventHandler@CGame@@QAEXPAD@Z$0 004c3570 f   Game.obj
 0001:000c257b       __unwindfunclet$?MotionEventHandler@CGame@@QAEXPAD@Z$1 004c357b f   Game.obj
 0001:000c2586       __unwindfunclet$?MotionEventHandler@CGame@@QAEXPAD@Z$2 004c3586 f   Game.obj
 0001:000c2591       __unwindfunclet$?MotionEventHandler@CGame@@QAEXPAD@Z$3 004c3591 f   Game.obj
 0001:000c25a1       __ehhandler$?MotionEventHandler@CGame@@QAEXPAD@Z 004c35a1 f   Game.obj
 0001:000c25d0       __unwindfunclet$?GrandMagicResult@CGame@@QAEXPADHHHHHHHH@Z$0 004c35d0 f   Game.obj
 0001:000c25db       __unwindfunclet$?GrandMagicResult@CGame@@QAEXPADHHHHHHHH@Z$1 004c35db f   Game.obj
 0001:000c25e6       __unwindfunclet$?GrandMagicResult@CGame@@QAEXPADHHHHHHHH@Z$2 004c35e6 f   Game.obj
 0001:000c25f1       __unwindfunclet$?GrandMagicResult@CGame@@QAEXPADHHHHHHHH@Z$3 004c35f1 f   Game.obj
 0001:000c25fc       __unwindfunclet$?GrandMagicResult@CGame@@QAEXPADHHHHHHHH@Z$4 004c35fc f   Game.obj
 0001:000c2607       __unwindfunclet$?GrandMagicResult@CGame@@QAEXPADHHHHHHHH@Z$5 004c3607 f   Game.obj
 0001:000c2612       __unwindfunclet$?GrandMagicResult@CGame@@QAEXPADHHHHHHHH@Z$6 004c3612 f   Game.obj
 0001:000c261d       __unwindfunclet$?GrandMagicResult@CGame@@QAEXPADHHHHHHHH@Z$7 004c361d f   Game.obj
 0001:000c2628       __unwindfunclet$?GrandMagicResult@CGame@@QAEXPADHHHHHHHH@Z$8 004c3628 f   Game.obj
 0001:000c2633       __unwindfunclet$?GrandMagicResult@CGame@@QAEXPADHHHHHHHH@Z$9 004c3633 f   Game.obj
 0001:000c263e       __unwindfunclet$?GrandMagicResult@CGame@@QAEXPADHHHHHHHH@Z$10 004c363e f   Game.obj
 0001:000c2649       __unwindfunclet$?GrandMagicResult@CGame@@QAEXPADHHHHHHHH@Z$11 004c3649 f   Game.obj
 0001:000c2654       __unwindfunclet$?GrandMagicResult@CGame@@QAEXPADHHHHHHHH@Z$12 004c3654 f   Game.obj
 0001:000c265f       __unwindfunclet$?GrandMagicResult@CGame@@QAEXPADHHHHHHHH@Z$13 004c365f f   Game.obj
 0001:000c266a       __unwindfunclet$?GrandMagicResult@CGame@@QAEXPADHHHHHHHH@Z$14 004c366a f   Game.obj
 0001:000c2675       __unwindfunclet$?GrandMagicResult@CGame@@QAEXPADHHHHHHHH@Z$15 004c3675 f   Game.obj
 0001:000c2680       __unwindfunclet$?GrandMagicResult@CGame@@QAEXPADHHHHHHHH@Z$16 004c3680 f   Game.obj
 0001:000c268b       __unwindfunclet$?GrandMagicResult@CGame@@QAEXPADHHHHHHHH@Z$17 004c368b f   Game.obj
 0001:000c2696       __unwindfunclet$?GrandMagicResult@CGame@@QAEXPADHHHHHHHH@Z$18 004c3696 f   Game.obj
 0001:000c26a1       __unwindfunclet$?GrandMagicResult@CGame@@QAEXPADHHHHHHHH@Z$19 004c36a1 f   Game.obj
 0001:000c26ac       __unwindfunclet$?GrandMagicResult@CGame@@QAEXPADHHHHHHHH@Z$20 004c36ac f   Game.obj
 0001:000c26b7       __unwindfunclet$?GrandMagicResult@CGame@@QAEXPADHHHHHHHH@Z$21 004c36b7 f   Game.obj
 0001:000c26c2       __unwindfunclet$?GrandMagicResult@CGame@@QAEXPADHHHHHHHH@Z$22 004c36c2 f   Game.obj
 0001:000c26cd       __unwindfunclet$?GrandMagicResult@CGame@@QAEXPADHHHHHHHH@Z$23 004c36cd f   Game.obj
 0001:000c26d8       __unwindfunclet$?GrandMagicResult@CGame@@QAEXPADHHHHHHHH@Z$24 004c36d8 f   Game.obj
 0001:000c26e3       __unwindfunclet$?GrandMagicResult@CGame@@QAEXPADHHHHHHHH@Z$25 004c36e3 f   Game.obj
 0001:000c26ee       __unwindfunclet$?GrandMagicResult@CGame@@QAEXPADHHHHHHHH@Z$26 004c36ee f   Game.obj
 0001:000c26f9       __unwindfunclet$?GrandMagicResult@CGame@@QAEXPADHHHHHHHH@Z$27 004c36f9 f   Game.obj
 0001:000c2704       __unwindfunclet$?GrandMagicResult@CGame@@QAEXPADHHHHHHHH@Z$28 004c3704 f   Game.obj
 0001:000c270f       __unwindfunclet$?GrandMagicResult@CGame@@QAEXPADHHHHHHHH@Z$29 004c370f f   Game.obj
 0001:000c271a       __unwindfunclet$?GrandMagicResult@CGame@@QAEXPADHHHHHHHH@Z$30 004c371a f   Game.obj
 0001:000c2725       __unwindfunclet$?GrandMagicResult@CGame@@QAEXPADHHHHHHHH@Z$31 004c3725 f   Game.obj
 0001:000c2730       __unwindfunclet$?GrandMagicResult@CGame@@QAEXPADHHHHHHHH@Z$32 004c3730 f   Game.obj
 0001:000c273b       __unwindfunclet$?GrandMagicResult@CGame@@QAEXPADHHHHHHHH@Z$33 004c373b f   Game.obj
 0001:000c2746       __unwindfunclet$?GrandMagicResult@CGame@@QAEXPADHHHHHHHH@Z$35 004c3746 f   Game.obj
 0001:000c2751       __unwindfunclet$?GrandMagicResult@CGame@@QAEXPADHHHHHHHH@Z$36 004c3751 f   Game.obj
 0001:000c275c       __unwindfunclet$?GrandMagicResult@CGame@@QAEXPADHHHHHHHH@Z$37 004c375c f   Game.obj
 0001:000c2767       __unwindfunclet$?GrandMagicResult@CGame@@QAEXPADHHHHHHHH@Z$38 004c3767 f   Game.obj
 0001:000c2772       __unwindfunclet$?GrandMagicResult@CGame@@QAEXPADHHHHHHHH@Z$39 004c3772 f   Game.obj
 0001:000c277d       __unwindfunclet$?GrandMagicResult@CGame@@QAEXPADHHHHHHHH@Z$40 004c377d f   Game.obj
 0001:000c2788       __unwindfunclet$?GrandMagicResult@CGame@@QAEXPADHHHHHHHH@Z$41 004c3788 f   Game.obj
 0001:000c2793       __unwindfunclet$?GrandMagicResult@CGame@@QAEXPADHHHHHHHH@Z$42 004c3793 f   Game.obj
 0001:000c279e       __unwindfunclet$?GrandMagicResult@CGame@@QAEXPADHHHHHHHH@Z$43 004c379e f   Game.obj
 0001:000c27a9       __unwindfunclet$?GrandMagicResult@CGame@@QAEXPADHHHHHHHH@Z$44 004c37a9 f   Game.obj
 0001:000c27b4       __unwindfunclet$?GrandMagicResult@CGame@@QAEXPADHHHHHHHH@Z$45 004c37b4 f   Game.obj
 0001:000c27bf       __unwindfunclet$?GrandMagicResult@CGame@@QAEXPADHHHHHHHH@Z$46 004c37bf f   Game.obj
 0001:000c27ca       __unwindfunclet$?GrandMagicResult@CGame@@QAEXPADHHHHHHHH@Z$48 004c37ca f   Game.obj
 0001:000c27d5       __unwindfunclet$?GrandMagicResult@CGame@@QAEXPADHHHHHHHH@Z$49 004c37d5 f   Game.obj
 0001:000c27e0       __unwindfunclet$?GrandMagicResult@CGame@@QAEXPADHHHHHHHH@Z$50 004c37e0 f   Game.obj
 0001:000c27eb       __unwindfunclet$?GrandMagicResult@CGame@@QAEXPADHHHHHHHH@Z$51 004c37eb f   Game.obj
 0001:000c27f6       __unwindfunclet$?GrandMagicResult@CGame@@QAEXPADHHHHHHHH@Z$52 004c37f6 f   Game.obj
 0001:000c2801       __unwindfunclet$?GrandMagicResult@CGame@@QAEXPADHHHHHHHH@Z$53 004c3801 f   Game.obj
 0001:000c280c       __unwindfunclet$?GrandMagicResult@CGame@@QAEXPADHHHHHHHH@Z$54 004c380c f   Game.obj
 0001:000c2817       __unwindfunclet$?GrandMagicResult@CGame@@QAEXPADHHHHHHHH@Z$55 004c3817 f   Game.obj
 0001:000c2822       __unwindfunclet$?GrandMagicResult@CGame@@QAEXPADHHHHHHHH@Z$56 004c3822 f   Game.obj
 0001:000c282d       __unwindfunclet$?GrandMagicResult@CGame@@QAEXPADHHHHHHHH@Z$57 004c382d f   Game.obj
 0001:000c2838       __unwindfunclet$?GrandMagicResult@CGame@@QAEXPADHHHHHHHH@Z$58 004c3838 f   Game.obj
 0001:000c2843       __unwindfunclet$?GrandMagicResult@CGame@@QAEXPADHHHHHHHH@Z$59 004c3843 f   Game.obj
 0001:000c284e       __unwindfunclet$?GrandMagicResult@CGame@@QAEXPADHHHHHHHH@Z$60 004c384e f   Game.obj
 0001:000c2859       __unwindfunclet$?GrandMagicResult@CGame@@QAEXPADHHHHHHHH@Z$61 004c3859 f   Game.obj
 0001:000c2864       __unwindfunclet$?GrandMagicResult@CGame@@QAEXPADHHHHHHHH@Z$62 004c3864 f   Game.obj
 0001:000c286f       __unwindfunclet$?GrandMagicResult@CGame@@QAEXPADHHHHHHHH@Z$63 004c386f f   Game.obj
 0001:000c287a       __unwindfunclet$?GrandMagicResult@CGame@@QAEXPADHHHHHHHH@Z$64 004c387a f   Game.obj
 0001:000c2885       __unwindfunclet$?GrandMagicResult@CGame@@QAEXPADHHHHHHHH@Z$65 004c3885 f   Game.obj
 0001:000c2890       __unwindfunclet$?GrandMagicResult@CGame@@QAEXPADHHHHHHHH@Z$66 004c3890 f   Game.obj
 0001:000c289b       __unwindfunclet$?GrandMagicResult@CGame@@QAEXPADHHHHHHHH@Z$67 004c389b f   Game.obj
 0001:000c28a6       __unwindfunclet$?GrandMagicResult@CGame@@QAEXPADHHHHHHHH@Z$68 004c38a6 f   Game.obj
 0001:000c28b1       __unwindfunclet$?GrandMagicResult@CGame@@QAEXPADHHHHHHHH@Z$69 004c38b1 f   Game.obj
 0001:000c28bc       __unwindfunclet$?GrandMagicResult@CGame@@QAEXPADHHHHHHHH@Z$70 004c38bc f   Game.obj
 0001:000c28c7       __unwindfunclet$?GrandMagicResult@CGame@@QAEXPADHHHHHHHH@Z$71 004c38c7 f   Game.obj
 0001:000c28d2       __unwindfunclet$?GrandMagicResult@CGame@@QAEXPADHHHHHHHH@Z$72 004c38d2 f   Game.obj
 0001:000c28dd       __unwindfunclet$?GrandMagicResult@CGame@@QAEXPADHHHHHHHH@Z$73 004c38dd f   Game.obj
 0001:000c28e8       __unwindfunclet$?GrandMagicResult@CGame@@QAEXPADHHHHHHHH@Z$74 004c38e8 f   Game.obj
 0001:000c28f3       __unwindfunclet$?GrandMagicResult@CGame@@QAEXPADHHHHHHHH@Z$75 004c38f3 f   Game.obj
 0001:000c28fe       __unwindfunclet$?GrandMagicResult@CGame@@QAEXPADHHHHHHHH@Z$76 004c38fe f   Game.obj
 0001:000c2909       __unwindfunclet$?GrandMagicResult@CGame@@QAEXPADHHHHHHHH@Z$77 004c3909 f   Game.obj
 0001:000c2914       __unwindfunclet$?GrandMagicResult@CGame@@QAEXPADHHHHHHHH@Z$78 004c3914 f   Game.obj
 0001:000c291f       __unwindfunclet$?GrandMagicResult@CGame@@QAEXPADHHHHHHHH@Z$79 004c391f f   Game.obj
 0001:000c292a       __unwindfunclet$?GrandMagicResult@CGame@@QAEXPADHHHHHHHH@Z$80 004c392a f   Game.obj
 0001:000c2935       __unwindfunclet$?GrandMagicResult@CGame@@QAEXPADHHHHHHHH@Z$81 004c3935 f   Game.obj
 0001:000c2940       __unwindfunclet$?GrandMagicResult@CGame@@QAEXPADHHHHHHHH@Z$83 004c3940 f   Game.obj
 0001:000c294b       __unwindfunclet$?GrandMagicResult@CGame@@QAEXPADHHHHHHHH@Z$84 004c394b f   Game.obj
 0001:000c2956       __unwindfunclet$?GrandMagicResult@CGame@@QAEXPADHHHHHHHH@Z$85 004c3956 f   Game.obj
 0001:000c2961       __unwindfunclet$?GrandMagicResult@CGame@@QAEXPADHHHHHHHH@Z$86 004c3961 f   Game.obj
 0001:000c296c       __unwindfunclet$?GrandMagicResult@CGame@@QAEXPADHHHHHHHH@Z$87 004c396c f   Game.obj
 0001:000c2977       __unwindfunclet$?GrandMagicResult@CGame@@QAEXPADHHHHHHHH@Z$88 004c3977 f   Game.obj
 0001:000c2982       __unwindfunclet$?GrandMagicResult@CGame@@QAEXPADHHHHHHHH@Z$89 004c3982 f   Game.obj
 0001:000c298d       __unwindfunclet$?GrandMagicResult@CGame@@QAEXPADHHHHHHHH@Z$90 004c398d f   Game.obj
 0001:000c2998       __unwindfunclet$?GrandMagicResult@CGame@@QAEXPADHHHHHHHH@Z$91 004c3998 f   Game.obj
 0001:000c29a3       __unwindfunclet$?GrandMagicResult@CGame@@QAEXPADHHHHHHHH@Z$92 004c39a3 f   Game.obj
 0001:000c29ae       __unwindfunclet$?GrandMagicResult@CGame@@QAEXPADHHHHHHHH@Z$93 004c39ae f   Game.obj
 0001:000c29b9       __unwindfunclet$?GrandMagicResult@CGame@@QAEXPADHHHHHHHH@Z$94 004c39b9 f   Game.obj
 0001:000c29c9       __ehhandler$?GrandMagicResult@CGame@@QAEXPADHHHHHHHH@Z 004c39c9 f   Game.obj
 0001:000c2a00       __unwindfunclet$?ShowHeldenianVictory@CGame@@QAEXF@Z$8 004c3a00 f   Game.obj
 0001:000c2a08       __unwindfunclet$?ShowHeldenianVictory@CGame@@QAEXF@Z$9 004c3a08 f   Game.obj
 0001:000c2a10       __unwindfunclet$?ShowHeldenianVictory@CGame@@QAEXF@Z$10 004c3a10 f   Game.obj
 0001:000c2a18       __unwindfunclet$?ShowHeldenianVictory@CGame@@QAEXF@Z$11 004c3a18 f   Game.obj
 0001:000c2a20       __unwindfunclet$?ShowHeldenianVictory@CGame@@QAEXF@Z$4 004c3a20 f   Game.obj
 0001:000c2a28       __unwindfunclet$?ShowHeldenianVictory@CGame@@QAEXF@Z$5 004c3a28 f   Game.obj
 0001:000c2a30       __unwindfunclet$?ShowHeldenianVictory@CGame@@QAEXF@Z$6 004c3a30 f   Game.obj
 0001:000c2a38       __unwindfunclet$?ShowHeldenianVictory@CGame@@QAEXF@Z$7 004c3a38 f   Game.obj
 0001:000c2a40       __unwindfunclet$?ShowHeldenianVictory@CGame@@QAEXF@Z$0 004c3a40 f   Game.obj
 0001:000c2a48       __unwindfunclet$?ShowHeldenianVictory@CGame@@QAEXF@Z$1 004c3a48 f   Game.obj
 0001:000c2a50       __unwindfunclet$?ShowHeldenianVictory@CGame@@QAEXF@Z$2 004c3a50 f   Game.obj
 0001:000c2a58       __unwindfunclet$?ShowHeldenianVictory@CGame@@QAEXF@Z$3 004c3a58 f   Game.obj
 0001:000c2a60       __unwindfunclet$?ShowHeldenianVictory@CGame@@QAEXF@Z$12 004c3a60 f   Game.obj
 0001:000c2a68       __unwindfunclet$?ShowHeldenianVictory@CGame@@QAEXF@Z$13 004c3a68 f   Game.obj
 0001:000c2a70       __unwindfunclet$?ShowHeldenianVictory@CGame@@QAEXF@Z$14 004c3a70 f   Game.obj
 0001:000c2a78       __unwindfunclet$?ShowHeldenianVictory@CGame@@QAEXF@Z$15 004c3a78 f   Game.obj
 0001:000c2a80       __unwindfunclet$?ShowHeldenianVictory@CGame@@QAEXF@Z$16 004c3a80 f   Game.obj
 0001:000c2a88       __unwindfunclet$?ShowHeldenianVictory@CGame@@QAEXF@Z$17 004c3a88 f   Game.obj
 0001:000c2a90       __unwindfunclet$?ShowHeldenianVictory@CGame@@QAEXF@Z$18 004c3a90 f   Game.obj
 0001:000c2a98       __unwindfunclet$?ShowHeldenianVictory@CGame@@QAEXF@Z$19 004c3a98 f   Game.obj
 0001:000c2aa0       __unwindfunclet$?ShowHeldenianVictory@CGame@@QAEXF@Z$20 004c3aa0 f   Game.obj
 0001:000c2aa8       __unwindfunclet$?ShowHeldenianVictory@CGame@@QAEXF@Z$21 004c3aa8 f   Game.obj
 0001:000c2ab0       __unwindfunclet$?ShowHeldenianVictory@CGame@@QAEXF@Z$22 004c3ab0 f   Game.obj
 0001:000c2ab8       __unwindfunclet$?ShowHeldenianVictory@CGame@@QAEXF@Z$23 004c3ab8 f   Game.obj
 0001:000c2ac0       __unwindfunclet$?ShowHeldenianVictory@CGame@@QAEXF@Z$24 004c3ac0 f   Game.obj
 0001:000c2ac8       __unwindfunclet$?ShowHeldenianVictory@CGame@@QAEXF@Z$25 004c3ac8 f   Game.obj
 0001:000c2ad5       __ehhandler$?ShowHeldenianVictory@CGame@@QAEXF@Z 004c3ad5 f   Game.obj
 0001:000c2b00       __unwindfunclet$??$?6U?$char_traits@D@std@@@std@@YAAAV?$basic_ostream@DU?$char_traits@D@std@@@0@AAV10@PBD@Z$2 004c3b00 f   Game.obj
 0001:000c2b0d       __ehhandler$??$?6U?$char_traits@D@std@@@std@@YAAAV?$basic_ostream@DU?$char_traits@D@std@@@0@AAV10@PBD@Z 004c3b0d f   Game.obj
 0001:000c2b30       __unwindfunclet$?uflow@?$basic_filebuf@DU?$char_traits@D@std@@@std@@MAEHXZ$0 004c3b30 f   Game.obj
 0001:000c2b3d       __ehhandler$?uflow@?$basic_filebuf@DU?$char_traits@D@std@@@std@@MAEHXZ 004c3b3d f   Game.obj
 0001:000c2b70       __ehhandler$??1?$basic_filebuf@DU?$char_traits@D@std@@@std@@UAE@XZ 004c3b70 f   Game.obj
 0001:000c2b70       __ehhandler$??1CSoundBuffer@@UAE@XZ 004c3b70 f   SoundBuffer.obj
 0001:000c2b90       __unwindfunclet$??$use_facet@V?$codecvt@DDU_Mbstatet@@@std@@@std@@YAABV?$codecvt@DDU_Mbstatet@@@0@ABVlocale@0@@Z$0 004c3b90 f   Game.obj
 0001:000c2b99       __unwindfunclet$??$use_facet@V?$codecvt@DDU_Mbstatet@@@std@@@std@@YAABV?$codecvt@DDU_Mbstatet@@@0@ABVlocale@0@@Z$1 004c3b99 f   Game.obj
 0001:000c2ba6       __ehhandler$??$use_facet@V?$codecvt@DDU_Mbstatet@@@std@@@std@@YAABV?$codecvt@DDU_Mbstatet@@@0@ABVlocale@0@@Z 004c3ba6 f   Game.obj
 0001:000c2bd0       __ehhandler$??1sentry@?$basic_ostream@DU?$char_traits@D@std@@@std@@QAE@XZ 004c3bd0 f   Game.obj
 0001:000c2bf0       __unwindfunclet$??0sentry@?$basic_ostream@DU?$char_traits@D@std@@@std@@QAE@AAV12@@Z$0 004c3bf0 f   Game.obj
 0001:000c2bfd       __ehhandler$??0sentry@?$basic_ostream@DU?$char_traits@D@std@@@std@@QAE@AAV12@@Z 004c3bfd f   Game.obj
 0001:000c2c20       __unwindfunclet$?Initialize@DX11Renderer@@QAE_NPAUHWND__@@HH_N@Z$0 004c3c20 f   DX11Renderer.obj
 0001:000c2c2f       __unwindfunclet$?Initialize@DX11Renderer@@QAE_NPAUHWND__@@HH_N@Z$1 004c3c2f f   DX11Renderer.obj
 0001:000c2c43       __ehhandler$?Initialize@DX11Renderer@@QAE_NPAUHWND__@@HH_N@Z 004c3c43 f   DX11Renderer.obj
 0001:000c2c60       __unwindfunclet$??0SpriteBatcher@@QAE@PAVDX11Renderer@@@Z$0 004c3c60 f   SpriteBatcher.obj
 0001:000c2c6b       __unwindfunclet$??0SpriteBatcher@@QAE@PAVDX11Renderer@@@Z$1 004c3c6b f   SpriteBatcher.obj
 0001:000c2c76       __unwindfunclet$??0SpriteBatcher@@QAE@PAVDX11Renderer@@@Z$2 004c3c76 f   SpriteBatcher.obj
 0001:000c2c81       __unwindfunclet$??0SpriteBatcher@@QAE@PAVDX11Renderer@@@Z$3 004c3c81 f   SpriteBatcher.obj
 0001:000c2c8c       __unwindfunclet$??0SpriteBatcher@@QAE@PAVDX11Renderer@@@Z$4 004c3c8c f   SpriteBatcher.obj
 0001:000c2c97       __unwindfunclet$??0SpriteBatcher@@QAE@PAVDX11Renderer@@@Z$5 004c3c97 f   SpriteBatcher.obj
 0001:000c2ca2       __unwindfunclet$??0SpriteBatcher@@QAE@PAVDX11Renderer@@@Z$6 004c3ca2 f   SpriteBatcher.obj
 0001:000c2cad       __unwindfunclet$??0SpriteBatcher@@QAE@PAVDX11Renderer@@@Z$7 004c3cad f   SpriteBatcher.obj
 0001:000c2cb8       __unwindfunclet$??0SpriteBatcher@@QAE@PAVDX11Renderer@@@Z$8 004c3cb8 f   SpriteBatcher.obj
 0001:000c2cc3       __unwindfunclet$??0SpriteBatcher@@QAE@PAVDX11Renderer@@@Z$9 004c3cc3 f   SpriteBatcher.obj
 0001:000c2cce       __unwindfunclet$??0SpriteBatcher@@QAE@PAVDX11Renderer@@@Z$10 004c3cce f   SpriteBatcher.obj
 0001:000c2cde       __ehhandler$??0SpriteBatcher@@QAE@PAVDX11Renderer@@@Z 004c3cde f   SpriteBatcher.obj
 0001:000c2d00       __unwindfunclet$?iReadBadWordFileList@CGameMonitor@@QAEHPAD@Z$1 004c3d00 f   GameMonitor.obj
 0001:000c2d0d       __ehhandler$?iReadBadWordFileList@CGameMonitor@@QAEHPAD@Z 004c3d0d f   GameMonitor.obj
 0001:000c2d40       __unwindfunclet$??0CMapData@@QAE@PAVCGame@@@Z$0 004c3d40 f   MapData.obj
 0001:000c2d5c       __unwindfunclet$??0CMapData@@QAE@PAVCGame@@@Z$1 004c3d5c f   MapData.obj
 0001:000c2d7f       __ehhandler$??0CMapData@@QAE@PAVCGame@@@Z 004c3d7f f   MapData.obj
 0001:000c2da0       __unwindfunclet$?_pMakeSpriteSurface@CSprite@@QAEPAUIDirectDrawSurface7@@XZ$0 004c3da0 f   Sprite.obj
 0001:000c2db0       __ehhandler$?_pMakeSpriteSurface@CSprite@@QAEPAUIDirectDrawSurface7@@XZ 004c3db0 f   Sprite.obj
 0001:000c2de0       __ehhandler$??_ECxImageJPG@@UAEPAXI@Z 004c3de0 f   cximage:ximaenc.obj
 0001:000c2de0       __ehhandler$??_ECxFile@@UAEPAXI@Z 004c3de0 f   cximage:ximainfo.obj
 0001:000c2de0       __ehhandler$??_ECxIOFile@@UAEPAXI@Z 004c3de0 f   cximage:ximainfo.obj
 0001:000c2de0       __ehhandler$??_ECxMemFile@@UAEPAXI@Z 004c3de0 f   cximage:ximainfo.obj
 0001:000c2e00       __ehhandler$??_ECxImage@@UAEPAXI@Z 004c3e00 f   cximage:ximainfo.obj
 0001:000c2e20       __unwindfunclet$??0CxImage@@QAE@PAEKK@Z$0 004c3e20 f   cximage:ximaenc.obj
 0001:000c2e2d       __ehhandler$??0CxImage@@QAE@PAEKK@Z 004c3e2d f   cximage:ximaenc.obj
 0001:000c2e50       __unwindfunclet$??0CxImage@@QAE@PAU_iobuf@@K@Z$0 004c3e50 f   cximage:ximaenc.obj
 0001:000c2e50       __unwindfunclet$?Decode@CxImage@@QAE_NPAU_iobuf@@K@Z$0 004c3e50 f   cximage:ximaenc.obj
 0001:000c2e50       __unwindfunclet$?Decode@CxImageJPG@@QAE_NPAU_iobuf@@@Z$0 004c3e50 f   cximage:ximaenc.obj
 0001:000c2e50       __unwindfunclet$?DecodeExif@CxImageJPG@@QAE_NPAU_iobuf@@@Z$0 004c3e50 f   cximage:ximaenc.obj
 0001:000c2e50       __unwindfunclet$?Encode@CxImage@@QAE_NPAU_iobuf@@K@Z$0 004c3e50 f   cximage:ximaenc.obj
 0001:000c2e50       __unwindfunclet$?Encode@CxImageJPG@@QAE_NPAU_iobuf@@@Z$0 004c3e50 f   cximage:ximaenc.obj
 0001:000c2e5d       __ehhandler$??0CxImage@@QAE@PAU_iobuf@@K@Z 004c3e5d f   cximage:ximaenc.obj
 0001:000c2e5d       __ehhandler$?Decode@CxImage@@QAE_NPAU_iobuf@@K@Z 004c3e5d f   cximage:ximaenc.obj
 0001:000c2e5d       __ehhandler$?Decode@CxImageJPG@@QAE_NPAU_iobuf@@@Z 004c3e5d f   cximage:ximaenc.obj
 0001:000c2e5d       __ehhandler$?DecodeExif@CxImageJPG@@QAE_NPAU_iobuf@@@Z 004c3e5d f   cximage:ximaenc.obj
 0001:000c2e5d       __ehhandler$?Encode@CxImage@@QAE_NPAU_iobuf@@K@Z 004c3e5d f   cximage:ximaenc.obj
 0001:000c2e5d       __ehhandler$?Encode@CxImageJPG@@QAE_NPAU_iobuf@@@Z 004c3e5d f   cximage:ximaenc.obj
 0001:000c2e80       __ehhandler$??1CxImageBMP@@UAE@XZ 004c3e80 f   cximage:ximaenc.obj
 0001:000c2ea0       __ehhandler$??_GCxImageBMP@@UAEPAXI@Z 004c3ea0 f   cximage:ximaenc.obj
 0001:000c2ec0       __unwindfunclet$?Decode@CxImage@@QAE_NPAEKK@Z$0 004c3ec0 f   cximage:ximaenc.obj
 0001:000c2ec0       __unwindfunclet$?Encode2RGBA@CxImage@@QAE_NAAPAEAAJ@Z$0 004c3ec0 f   cximage:ximaenc.obj
 0001:000c2ec0       __unwindfunclet$?Encode@CxImage@@QAE_NAAPAEAAJK@Z$0 004c3ec0 f   cximage:ximaenc.obj
 0001:000c2ecd       __ehhandler$?Decode@CxImage@@QAE_NPAEKK@Z 004c3ecd f   cximage:ximaenc.obj
 0001:000c2ecd       __ehhandler$?Encode2RGBA@CxImage@@QAE_NAAPAEAAJ@Z 004c3ecd f   cximage:ximaenc.obj
 0001:000c2ecd       __ehhandler$?Encode@CxImage@@QAE_NAAPAEAAJK@Z 004c3ecd f   cximage:ximaenc.obj
 0001:000c2ef0       __unwindfunclet$?Decode@CxImage@@QAE_NPAVCxFile@@K@Z$0 004c3ef0 f   cximage:ximaenc.obj
 0001:000c2efb       __unwindfunclet$?Decode@CxImage@@QAE_NPAVCxFile@@K@Z$1 004c3efb f   cximage:ximaenc.obj
 0001:000c2f06       __unwindfunclet$?Decode@CxImage@@QAE_NPAVCxFile@@K@Z$2 004c3f06 f   cximage:ximaenc.obj
 0001:000c2f11       __unwindfunclet$?Decode@CxImage@@QAE_NPAVCxFile@@K@Z$3 004c3f11 f   cximage:ximaenc.obj
 0001:000c2f21       __ehhandler$?Decode@CxImage@@QAE_NPAVCxFile@@K@Z 004c3f21 f   cximage:ximaenc.obj
 0001:000c2f50       __unwindfunclet$?Encode@CxImage@@QAE_NPAVCxFile@@K@Z$0 004c3f50 f   cximage:ximaenc.obj
 0001:000c2f5b       __unwindfunclet$?Encode@CxImage@@QAE_NPAVCxFile@@K@Z$1 004c3f5b f   cximage:ximaenc.obj
 0001:000c2f6b       __ehhandler$?Encode@CxImage@@QAE_NPAVCxFile@@K@Z 004c3f6b f   cximage:ximaenc.obj
 0001:000c2fa0       __unwindfunclet$?Load@CxImage@@QAE_NPBDK@Z$0 004c3fa0 f   cximage:ximaenc.obj
 0001:000c2fab       __unwindfunclet$?Load@CxImage@@QAE_NPBDK@Z$2 004c3fab f   cximage:ximaenc.obj
 0001:000c2fbb       __ehhandler$?Load@CxImage@@QAE_NPBDK@Z 004c3fbb f   cximage:ximaenc.obj
 0001:000c2ff0       __unwindfunclet$?LoadResource@CxImage@@QAE_NPAUHRSRC__@@KPAUHINSTANCE__@@@Z$0 004c3ff0 f   cximage:ximaenc.obj
 0001:000c2ffd       __ehhandler$?LoadResource@CxImage@@QAE_NPAUHRSRC__@@KPAUHINSTANCE__@@@Z 004c3ffd f   cximage:ximaenc.obj
 0001:000c3020       __unwindfunclet$?Save@CxImage@@QAE_NPBDK@Z$0 004c4020 f   cximage:ximaenc.obj
 0001:000c302d       __ehhandler$?Save@CxImage@@QAE_NPBDK@Z 004c402d f   cximage:ximaenc.obj
 0001:000c3050       __ehhandler$??1CxImageJPG@@UAE@XZ 004c4050 f   cximage:ximajpg.obj
 0001:000c3070       __unwindfunclet$?Decode@CxImageJPG@@QAE_NPAVCxFile@@@Z$0 004c4070 f   cximage:ximajpg.obj
 0001:000c3080       __ehhandler$?Decode@CxImageJPG@@QAE_NPAVCxFile@@@Z 004c4080 f   cximage:ximajpg.obj
 0001:000c30b0       __unwindfunclet$?DecodeExif@CxImageJPG@@QAE_NPAVCxFile@@@Z$0 004c40b0 f   cximage:ximajpg.obj
 0001:000c30c7       __ehhandler$?DecodeExif@CxImageJPG@@QAE_NPAVCxFile@@@Z 004c40c7 f   cximage:ximajpg.obj
 0001:000c30f0       __unwindfunclet$?Encode@CxImageJPG@@QAE_NPAVCxFile@@@Z$0 004c40f0 f   cximage:ximajpg.obj
 0001:000c3100       __ehhandler$?Encode@CxImageJPG@@QAE_NPAVCxFile@@@Z 004c4100 f   cximage:ximajpg.obj
 0001:000c3130       __ehhandler$?Decode@CxImageBMP@@QAE_NPAVCxFile@@@Z 004c4130 f   cximage:ximabmp.obj
 0001:000c3160       __unwindfunclet$?Flip@CxImage@@QAE_NXZ$0 004c4160 f   cximage:ximatran.obj
 0001:000c3177       __ehhandler$?Flip@CxImage@@QAE_NXZ 004c4177 f   cximage:ximatran.obj
 0001:000c31a0       __unwindfunclet$?GrayScale@CxImage@@QAE_NXZ$0 004c41a0 f   cximage:ximatran.obj
 0001:000c31ab       __unwindfunclet$?GrayScale@CxImage@@QAE_NXZ$1 004c41ab f   cximage:ximatran.obj
 0001:000c31bb       __ehhandler$?GrayScale@CxImage@@QAE_NXZ 004c41bb f   cximage:ximatran.obj
 0001:000c31f0       __unwindfunclet$?Mirror@CxImage@@QAE_NXZ$0 004c41f0 f   cximage:ximatran.obj
 0001:000c3207       __ehhandler$?Mirror@CxImage@@QAE_NXZ 004c4207 f   cximage:ximatran.obj
 0001:000c3230       __unwindfunclet$?RotateLeft@CxImage@@QAE_NPAV1@@Z$0 004c4230 f   cximage:ximatran.obj
 0001:000c3230       __unwindfunclet$?RotateRight@CxImage@@QAE_NPAV1@@Z$0 004c4230 f   cximage:ximatran.obj
 0001:000c3240       __ehhandler$?RotateLeft@CxImage@@QAE_NPAV1@@Z 004c4240 f   cximage:ximatran.obj
 0001:000c3240       __ehhandler$?RotateRight@CxImage@@QAE_NPAV1@@Z 004c4240 f   cximage:ximatran.obj
 0001:000c3270       ??__FlogFile@?1??LogDebug@@YAXPBDZZ@YAXXZ 004c4270 f   Game.obj
 0001:000c32b3       ??__F_Fac_tidy_reg@std@@YAXXZ 004c42b3 f   msvcprt:locale0_implib.obj
 0002:00000420       ?pre_cpp_initializer@@3P6AXXZA 004c5420     MSVCRT:exe_winmain.obj
 0002:00000424       ?_Fac_tidy_reg$initializer$@std@@3P6AXXZA 004c5424     msvcprt:locale0_implib.obj
 0002:00000430       ?pre_c_initializer@@3P6AHXZA 004c5430     MSVCRT:exe_winmain.obj
 0002:00000434       ?post_pgo_initializer@@3P6AHXZA 004c5434     MSVCRT:exe_winmain.obj
 0002:0000056c       ?CxImageVersion@?1??GetVersion@CxImage@@QAEPBDXZ@4QBDB 004c556c     cximage:ximainfo.obj
 0002:00000bf8       ?ExifHeader@?2??process_EXIF@CxExifInfo@CxImageJPG@@IAE_NPAEI@Z@4QBEB 004c5bf8     cximage:ximaexif.obj
 0002:00000c50       ?BytesPerFormat@@3QBHB     004c5c50     cximage:ximaexif.obj
 0002:00002288       ?std_luminance_quant_tbl@?1??jpeg_set_linear_quality@@9@9 004c7288     Jpeg:Jcparam.obj
 0002:00002388       ?std_chrominance_quant_tbl@?1??jpeg_set_linear_quality@@9@9 004c7388     Jpeg:Jcparam.obj
 0002:00002488       ?bits_dc_luminance@?1??std_huff_tables@@9@9 004c7488     Jpeg:Jcparam.obj
 0002:0000249c       ?val_dc_luminance@?1??std_huff_tables@@9@9 004c749c     Jpeg:Jcparam.obj
 0002:000024a8       ?bits_dc_chrominance@?1??std_huff_tables@@9@9 004c74a8     Jpeg:Jcparam.obj
 0002:000024bc       ?val_dc_chrominance@?1??std_huff_tables@@9@9 004c74bc     Jpeg:Jcparam.obj
 0002:000024c8       ?bits_ac_luminance@?1??std_huff_tables@@9@9 004c74c8     Jpeg:Jcparam.obj
 0002:000024e0       ?val_ac_luminance@?1??std_huff_tables@@9@9 004c74e0     Jpeg:Jcparam.obj
 0002:00002584       ?bits_ac_chrominance@?1??std_huff_tables@@9@9 004c7584     Jpeg:Jcparam.obj
 0002:00002598       ?val_ac_chrominance@?1??std_huff_tables@@9@9 004c7598     Jpeg:Jcparam.obj
 0002:0000263c       _first_pool_slop           004c763c     Jpeg:Jmemmgr.obj
 0002:00002644       _extra_pool_slop           004c7644     Jpeg:Jmemmgr.obj
 0002:00002660       _extend_test               004c7660     Jpeg:Jdhuff.obj
 0002:000026a0       _extend_offset             004c76a0     Jpeg:Jdhuff.obj
 0002:000026e0       _extend_test               004c76e0     Jpeg:Jdphuff.obj
 0002:00002720       _extend_offset             004c7720     Jpeg:Jdphuff.obj
 0002:00002760       ?aanscales@?L@??start_pass@@9@9 004c7760     Jpeg:Jddctmgr.obj
 0002:000027e0       ?aanscalefactor@?O@??start_pass@@9@9 004c77e0     Jpeg:Jddctmgr.obj
 0002:00002860       _base_dither_matrix        004c7860     Jpeg:Jquant1.obj
 0002:00002960       ?RGB_order@?1??select_ncolors@@9@9 004c7960     Jpeg:Jquant1.obj
 0002:00002b40       ?aanscales@?8??start_pass_fdctmgr@@9@9 004c7b40     Jpeg:Jcdctmgr.obj
 0002:00002bc0       ?aanscalefactor@?N@??start_pass_fdctmgr@@9@9 004c7bc0     Jpeg:Jcdctmgr.obj
 0002:00002c68       _GS_ExceptionPointers      004c7c68     MSVCRT:gs_report.obj
 0002:00002c70       two32                      004c7c70     MSVCRT:ftol2.obj
 0002:00002c74       two63                      004c7c74     MSVCRT:ftol2.obj
 0002:00002c78       _NaN                       004c7c78     MSVCRT:ftol2.obj
 0002:00002c80       _bias_low                  004c7c80     MSVCRT:ftol3.obj
 0002:00002c90       _bias_high                 004c7c90     MSVCRT:ftol3.obj
 0002:00002ca0       _DP2to32                   004c7ca0     MSVCRT:ftol3.obj
 0002:00002ca8       _NaN                       004c7ca8     MSVCRT:ftol3.obj
 0002:00002cac       _onept5                    004c7cac     MSVCRT:ftol3.obj
 0002:0000f0b5       ?piecewise_construct@std@@3Upiecewise_construct_t@1@B 004d40b5     TextureAtlas.obj
 0002:0000f0d0       ?__cSpace2@@3PADA          004d40d0     Game.obj
 0002:0000f0e8       ?__cSpace@@3PADA           004d40e8     Game.obj
 0002:00010b10       __ehfuncinfo$??1DXC_ddraw@@UAE@XZ 004d5b10     DXC_ddraw.obj
 0002:00010b10       __ehfuncinfo$??1DXC_dinput@@UAE@XZ 004d5b10     DXC_dinput.obj
 0002:00010b10       __ehfuncinfo$??1?$basic_filebuf@DU?$char_traits@D@std@@@std@@UAE@XZ 004d5b10     Game.obj
 0002:00010b10       __ehfuncinfo$??1CxImage@@UAE@XZ 004d5b10     Game.obj
 0002:00010b10       __ehfuncinfo$??1_Sentry_base@?$basic_ostream@DU?$char_traits@D@std@@@std@@QAE@XZ 004d5b10     Game.obj
 0002:00010b10       __ehfuncinfo$??1CMapData@@UAE@XZ 004d5b10     MapData.obj
 0002:00010b10       __ehfuncinfo$??1CSoundBuffer@@UAE@XZ 004d5b10     SoundBuffer.obj
 0002:00010b10       __ehfuncinfo$??1CSprite@@UAE@XZ 004d5b10     Sprite.obj
 0002:00010b10       __ehfuncinfo$??1YWSound@@UAE@XZ 004d5b10     YWSound.obj
 0002:00010b10       __ehfuncinfo$??_ECxImageJPG@@UAEPAXI@Z 004d5b10     cximage:ximaenc.obj
 0002:00010b10       __ehfuncinfo$??_ECxFile@@UAEPAXI@Z 004d5b10     cximage:ximainfo.obj
 0002:00010b10       __ehfuncinfo$??_ECxIOFile@@UAEPAXI@Z 004d5b10     cximage:ximainfo.obj
 0002:00010b10       __ehfuncinfo$??_ECxMemFile@@UAEPAXI@Z 004d5b10     cximage:ximainfo.obj
 0002:00010b34       __ehfuncinfo$?Screenshot@DXC_ddraw@@QAE_NPBDPAUIDirectDrawSurface7@@@Z 004d5b34     DXC_ddraw.obj
 0002:00010b58       __unwindtable$?Screenshot@DXC_ddraw@@QAE_NPBDPAUIDirectDrawSurface7@@@Z 004d5b58     DXC_ddraw.obj
 0002:00010b68       __tryblocktable$?Screenshot@DXC_ddraw@@QAE_NPBDPAUIDirectDrawSurface7@@@Z 004d5b68     DXC_ddraw.obj
 0002:00010b7c       __catchsym$?Screenshot@DXC_ddraw@@QAE_NPBDPAUIDirectDrawSurface7@@@Z$3 004d5b7c     DXC_ddraw.obj
 0002:00010b9c       __ehfuncinfo$?LogDebug@@YAXPBDZZ 004d5b9c     Game.obj
 0002:00010bc0       __unwindtable$?LogDebug@@YAXPBDZZ 004d5bc0     Game.obj
 0002:00010be8       __ehfuncinfo$?bInit@CGame@@QAE_NPAUHWND__@@PAUHINSTANCE__@@PAD@Z 004d5be8     Game.obj
 0002:00010c10       __unwindtable$?bInit@CGame@@QAE_NPAUHWND__@@PAUHINSTANCE__@@PAD@Z 004d5c10     Game.obj
 0002:00010c60       __ehfuncinfo$?MakeEffectSpr@CGame@@QAEXPADFF_N@Z 004d5c60     Game.obj
 0002:00010c60       __ehfuncinfo$?MakeSprite@CGame@@QAEXPADFF_N@Z 004d5c60     Game.obj
 0002:00010c60       __ehfuncinfo$?MakeTileSpr@CGame@@QAEXPADFF_N@Z 004d5c60     Game.obj
 0002:00010c84       __unwindtable$?MakeEffectSpr@CGame@@QAEXPADFF_N@Z 004d5c84     Game.obj
 0002:00010c84       __unwindtable$?MakeSprite@CGame@@QAEXPADFF_N@Z 004d5c84     Game.obj
 0002:00010c84       __unwindtable$?MakeTileSpr@CGame@@QAEXPADFF_N@Z 004d5c84     Game.obj
 0002:00010c90       __ehfuncinfo$?UpdateScreen_OnLoading@CGame@@QAEX_N@Z 004d5c90     Game.obj
 0002:00010cb8       __unwindtable$?UpdateScreen_OnLoading@CGame@@QAEX_N@Z 004d5cb8     Game.obj
 0002:00011160       __ehfuncinfo$?PutChatScrollList@CGame@@QAEXPADD@Z 004d6160     Game.obj
 0002:00011184       __unwindtable$?PutChatScrollList@CGame@@QAEXPADD@Z 004d6184     Game.obj
 0002:0001118c       __ehfuncinfo$?ChatMsgHandler@CGame@@QAEXPAD@Z 004d618c     Game.obj
 0002:000111b0       __unwindtable$?ChatMsgHandler@CGame@@QAEXPAD@Z 004d61b0     Game.obj
 0002:000111b8       __ehfuncinfo$?_LoadTextDlgContents@CGame@@QAEXH@Z 004d61b8     Game.obj
 0002:000111dc       __unwindtable$?_LoadTextDlgContents@CGame@@QAEXH@Z 004d61dc     Game.obj
 0002:000111e4       __ehfuncinfo$?_iLoadTextDlgContents2@CGame@@QAEHH@Z 004d61e4     Game.obj
 0002:00011208       __unwindtable$?_iLoadTextDlgContents2@CGame@@QAEHH@Z 004d6208     Game.obj
 0002:00011210       __ehfuncinfo$?_LoadGameMsgTextContents@CGame@@QAEXXZ 004d6210     Game.obj
 0002:00011234       __unwindtable$?_LoadGameMsgTextContents@CGame@@QAEXXZ 004d6234     Game.obj
 0002:00011240       __ehfuncinfo$?CrusadeContributionResult@CGame@@QAEXH@Z 004d6240     Game.obj
 0002:00011268       __unwindtable$?CrusadeContributionResult@CGame@@QAEXH@Z 004d6268     Game.obj
 0002:00011350       __ehfuncinfo$?CrusadeWarResult@CGame@@QAEXH@Z 004d6350     Game.obj
 0002:00011378       __unwindtable$?CrusadeWarResult@CGame@@QAEXH@Z 004d6378     Game.obj
 0002:00011518       __ehfuncinfo$?CreateScreenShot@CGame@@QAEXXZ 004d6518     Game.obj
 0002:0001153c       __unwindtable$?CreateScreenShot@CGame@@QAEXXZ 004d653c     Game.obj
 0002:0001154c       __ehfuncinfo$?bCheckLocalChatCommand@CGame@@QAE_NPAD@Z 004d654c     Game.obj
 0002:00011570       __unwindtable$?bCheckLocalChatCommand@CGame@@QAE_NPAD@Z 004d6570     Game.obj
 0002:00011578       __ehfuncinfo$?NpcTalkHandler@CGame@@QAEXPAD@Z 004d6578     Game.obj
 0002:000115a0       __unwindtable$?NpcTalkHandler@CGame@@QAEXPAD@Z 004d65a0     Game.obj
 0002:00011670       __ehfuncinfo$?CommandProcessor@CGame@@QAEXFFFFDD@Z 004d6670     Game.obj
 0002:00011694       __unwindtable$?CommandProcessor@CGame@@QAEXFFFFDD@Z 004d6694     Game.obj
 0002:000116a4       __ehfuncinfo$?NotifyMsg_EnemyKillReward@CGame@@QAEXPAD@Z 004d66a4     Game.obj
 0002:000116c8       __unwindtable$?NotifyMsg_EnemyKillReward@CGame@@QAEXPAD@Z 004d66c8     Game.obj
 0002:000116d0       __ehfuncinfo$?NotifyMsg_LevelUp@CGame@@QAEXPAD@Z 004d66d0     Game.obj
 0002:000116f4       __unwindtable$?NotifyMsg_LevelUp@CGame@@QAEXPAD@Z 004d66f4     Game.obj
 0002:000116fc       __ehfuncinfo$?NotifyMsg_QuestReward@CGame@@QAEXPAD@Z 004d66fc     Game.obj
 0002:00011720       __unwindtable$?NotifyMsg_QuestReward@CGame@@QAEXPAD@Z 004d6720     Game.obj
 0002:00011740       __ehfuncinfo$?NotifyMsg_Skill@CGame@@QAEXPAD@Z 004d6740     Game.obj
 0002:00011764       __unwindtable$?NotifyMsg_Skill@CGame@@QAEXPAD@Z 004d6764     Game.obj
 0002:00011774       __ehfuncinfo$?NotifyMsg_WhisperMode@CGame@@QAEX_NPAD@Z 004d6774     Game.obj
 0002:00011798       __unwindtable$?NotifyMsg_WhisperMode@CGame@@QAEX_NPAD@Z 004d6798     Game.obj
 0002:000117a0       __ehfuncinfo$?MotionEventHandler@CGame@@QAEXPAD@Z 004d67a0     Game.obj
 0002:000117c4       __unwindtable$?MotionEventHandler@CGame@@QAEXPAD@Z 004d67c4     Game.obj
 0002:000117e8       __ehfuncinfo$?GrandMagicResult@CGame@@QAEXPADHHHHHHHH@Z 004d67e8     Game.obj
 0002:00011810       __unwindtable$?GrandMagicResult@CGame@@QAEXPADHHHHHHHH@Z 004d6810     Game.obj
 0002:00011b10       __ehfuncinfo$?ShowHeldenianVictory@CGame@@QAEXF@Z 004d6b10     Game.obj
 0002:00011b38       __unwindtable$?ShowHeldenianVictory@CGame@@QAEXF@Z 004d6b38     Game.obj
 0002:00011c08       __ehfuncinfo$??$?6U?$char_traits@D@std@@@std@@YAAAV?$basic_ostream@DU?$char_traits@D@std@@@0@AAV10@PBD@Z 004d6c08     Game.obj
 0002:00011c2c       __unwindtable$??$?6U?$char_traits@D@std@@@std@@YAAAV?$basic_ostream@DU?$char_traits@D@std@@@0@AAV10@PBD@Z 004d6c2c     Game.obj
 0002:00011c4c       __tryblocktable$??$?6U?$char_traits@D@std@@@std@@YAAAV?$basic_ostream@DU?$char_traits@D@std@@@0@AAV10@PBD@Z 004d6c4c     Game.obj
 0002:00011c60       __catchsym$??$?6U?$char_traits@D@std@@@std@@YAAAV?$basic_ostream@DU?$char_traits@D@std@@@0@AAV10@PBD@Z$16 004d6c60     Game.obj
 0002:00011c70       __ehfuncinfo$?uflow@?$basic_filebuf@DU?$char_traits@D@std@@@std@@MAEHXZ 004d6c70     Game.obj
 0002:00011c94       __unwindtable$?uflow@?$basic_filebuf@DU?$char_traits@D@std@@@std@@MAEHXZ 004d6c94     Game.obj
 0002:00011c9c       __ehfuncinfo$??$use_facet@V?$codecvt@DDU_Mbstatet@@@std@@@std@@YAABV?$codecvt@DDU_Mbstatet@@@0@ABVlocale@0@@Z 004d6c9c     Game.obj
 0002:00011cc0       __unwindtable$??$use_facet@V?$codecvt@DDU_Mbstatet@@@std@@@std@@YAABV?$codecvt@DDU_Mbstatet@@@0@ABVlocale@0@@Z 004d6cc0     Game.obj
 0002:00011cd0       __ehfuncinfo$??1sentry@?$basic_ostream@DU?$char_traits@D@std@@@std@@QAE@XZ 004d6cd0     Game.obj
 0002:00011cf4       __unwindtable$??1sentry@?$basic_ostream@DU?$char_traits@D@std@@@std@@QAE@XZ 004d6cf4     Game.obj
 0002:00011cfc       __ehfuncinfo$??0sentry@?$basic_ostream@DU?$char_traits@D@std@@@std@@QAE@AAV12@@Z 004d6cfc     Game.obj
 0002:00011d20       __unwindtable$??0sentry@?$basic_ostream@DU?$char_traits@D@std@@@std@@QAE@AAV12@@Z 004d6d20     Game.obj
 0002:00011d28       __ehfuncinfo$?Initialize@DX11Renderer@@QAE_NPAUHWND__@@HH_N@Z 004d6d28     DX11Renderer.obj
 0002:00011d4c       __unwindtable$?Initialize@DX11Renderer@@QAE_NPAUHWND__@@HH_N@Z 004d6d4c     DX11Renderer.obj
 0002:00011d60       __ehfuncinfo$??0SpriteBatcher@@QAE@PAVDX11Renderer@@@Z 004d6d60     SpriteBatcher.obj
 0002:00011d88       __unwindtable$??0SpriteBatcher@@QAE@PAVDX11Renderer@@@Z 004d6d88     SpriteBatcher.obj
 0002:00011de0       __ehfuncinfo$?iReadBadWordFileList@CGameMonitor@@QAEHPAD@Z 004d6de0     GameMonitor.obj
 0002:00011e04       __unwindtable$?iReadBadWordFileList@CGameMonitor@@QAEHPAD@Z 004d6e04     GameMonitor.obj
 0002:00011e0c       __ehfuncinfo$??0CMapData@@QAE@PAVCGame@@@Z 004d6e0c     MapData.obj
 0002:00011e30       __unwindtable$??0CMapData@@QAE@PAVCGame@@@Z 004d6e30     MapData.obj
 0002:00011e40       __ehfuncinfo$?_pMakeSpriteSurface@CSprite@@QAEPAUIDirectDrawSurface7@@XZ 004d6e40     Sprite.obj
 0002:00011e64       __unwindtable$?_pMakeSpriteSurface@CSprite@@QAEPAUIDirectDrawSurface7@@XZ 004d6e64     Sprite.obj
 0002:00011e6c       __unwindtable$??1CxImageBMP@@UAE@XZ 004d6e6c     cximage:ximaenc.obj
 0002:00011e6c       __unwindtable$??_GCxImageBMP@@UAEPAXI@Z 004d6e6c     cximage:ximaenc.obj
 0002:00011e6c       __unwindtable$??_ECxImage@@UAEPAXI@Z 004d6e6c     cximage:ximainfo.obj
 0002:00011e6c       __unwindtable$??1CxImageJPG@@UAE@XZ 004d6e6c     cximage:ximajpg.obj
 0002:00011e74       __ehfuncinfo$??1CxImageBMP@@UAE@XZ 004d6e74     cximage:ximaenc.obj
 0002:00011e74       __ehfuncinfo$??_GCxImageBMP@@UAEPAXI@Z 004d6e74     cximage:ximaenc.obj
 0002:00011e74       __ehfuncinfo$??_ECxImage@@UAEPAXI@Z 004d6e74     cximage:ximainfo.obj
 0002:00011e74       __ehfuncinfo$??1CxImageJPG@@UAE@XZ 004d6e74     cximage:ximajpg.obj
 0002:00011e98       __unwindtable$??0CxImage@@QAE@PAU_iobuf@@K@Z 004d6e98     cximage:ximaenc.obj
 0002:00011e98       __unwindtable$?Decode@CxImage@@QAE_NPAU_iobuf@@K@Z 004d6e98     cximage:ximaenc.obj
 0002:00011e98       __unwindtable$?Decode@CxImageJPG@@QAE_NPAU_iobuf@@@Z 004d6e98     cximage:ximaenc.obj
 0002:00011e98       __unwindtable$?DecodeExif@CxImageJPG@@QAE_NPAU_iobuf@@@Z 004d6e98     cximage:ximaenc.obj
 0002:00011e98       __unwindtable$?Encode@CxImage@@QAE_NPAU_iobuf@@K@Z 004d6e98     cximage:ximaenc.obj
 0002:00011e98       __unwindtable$?Encode@CxImageJPG@@QAE_NPAU_iobuf@@@Z 004d6e98     cximage:ximaenc.obj
 0002:00011ea0       __ehfuncinfo$??0CxImage@@QAE@PAU_iobuf@@K@Z 004d6ea0     cximage:ximaenc.obj
 0002:00011ea0       __ehfuncinfo$?Decode@CxImage@@QAE_NPAU_iobuf@@K@Z 004d6ea0     cximage:ximaenc.obj
 0002:00011ea0       __ehfuncinfo$?Decode@CxImageJPG@@QAE_NPAU_iobuf@@@Z 004d6ea0     cximage:ximaenc.obj
 0002:00011ea0       __ehfuncinfo$?DecodeExif@CxImageJPG@@QAE_NPAU_iobuf@@@Z 004d6ea0     cximage:ximaenc.obj
 0002:00011ea0       __ehfuncinfo$?Encode@CxImage@@QAE_NPAU_iobuf@@K@Z 004d6ea0     cximage:ximaenc.obj
 0002:00011ea0       __ehfuncinfo$?Encode@CxImageJPG@@QAE_NPAU_iobuf@@@Z 004d6ea0     cximage:ximaenc.obj
 0002:00011ec4       __unwindtable$??0CxImage@@QAE@PAEKK@Z 004d6ec4     cximage:ximaenc.obj
 0002:00011ecc       __ehfuncinfo$??0CxImage@@QAE@PAEKK@Z 004d6ecc     cximage:ximaenc.obj
 0002:00011ef0       __unwindtable$?LoadResource@CxImage@@QAE_NPAUHRSRC__@@KPAUHINSTANCE__@@@Z 004d6ef0     cximage:ximaenc.obj
 0002:00011ef8       __ehfuncinfo$?LoadResource@CxImage@@QAE_NPAUHRSRC__@@KPAUHINSTANCE__@@@Z 004d6ef8     cximage:ximaenc.obj
 0002:00011f1c       __unwindtable$?Load@CxImage@@QAE_NPBDK@Z 004d6f1c     cximage:ximaenc.obj
 0002:00011f2c       __ehfuncinfo$?Load@CxImage@@QAE_NPBDK@Z 004d6f2c     cximage:ximaenc.obj
 0002:00011f50       __ehfuncinfo$?Decode@CxImage@@QAE_NPAVCxFile@@K@Z 004d6f50     cximage:ximaenc.obj
 0002:00011f74       __unwindtable$?Decode@CxImage@@QAE_NPAVCxFile@@K@Z 004d6f74     cximage:ximaenc.obj
 0002:00011fbc       __unwindtable$?Decode@CxImage@@QAE_NPAEKK@Z 004d6fbc     cximage:ximaenc.obj
 0002:00011fbc       __unwindtable$?Encode2RGBA@CxImage@@QAE_NAAPAEAAJ@Z 004d6fbc     cximage:ximaenc.obj
 0002:00011fbc       __unwindtable$?Encode@CxImage@@QAE_NAAPAEAAJK@Z 004d6fbc     cximage:ximaenc.obj
 0002:00011fc4       __ehfuncinfo$?Decode@CxImage@@QAE_NPAEKK@Z 004d6fc4     cximage:ximaenc.obj
 0002:00011fc4       __ehfuncinfo$?Encode2RGBA@CxImage@@QAE_NAAPAEAAJ@Z 004d6fc4     cximage:ximaenc.obj
 0002:00011fc4       __ehfuncinfo$?Encode@CxImage@@QAE_NAAPAEAAJK@Z 004d6fc4     cximage:ximaenc.obj
 0002:00011fe8       __unwindtable$?Save@CxImage@@QAE_NPBDK@Z 004d6fe8     cximage:ximaenc.obj
 0002:00011ff0       __ehfuncinfo$?Save@CxImage@@QAE_NPBDK@Z 004d6ff0     cximage:ximaenc.obj
 0002:00012014       __ehfuncinfo$?Encode@CxImage@@QAE_NPAVCxFile@@K@Z 004d7014     cximage:ximaenc.obj
 0002:00012038       __unwindtable$?Encode@CxImage@@QAE_NPAVCxFile@@K@Z 004d7038     cximage:ximaenc.obj
 0002:00012060       __unwindtable$?Decode@CxImageJPG@@QAE_NPAVCxFile@@@Z 004d7060     cximage:ximajpg.obj
 0002:00012068       __ehfuncinfo$?Decode@CxImageJPG@@QAE_NPAVCxFile@@@Z 004d7068     cximage:ximajpg.obj
 0002:0001208c       __unwindtable$?Encode@CxImageJPG@@QAE_NPAVCxFile@@@Z 004d708c     cximage:ximajpg.obj
 0002:00012094       __ehfuncinfo$?Encode@CxImageJPG@@QAE_NPAVCxFile@@@Z 004d7094     cximage:ximajpg.obj
 0002:000120b8       __unwindtable$?DecodeExif@CxImageJPG@@QAE_NPAVCxFile@@@Z 004d70b8     cximage:ximajpg.obj
 0002:000120c0       __ehfuncinfo$?DecodeExif@CxImageJPG@@QAE_NPAVCxFile@@@Z 004d70c0     cximage:ximajpg.obj
 0002:000120e4       __catchsym$?Decode@CxImageBMP@@QAE_NPAVCxFile@@@Z$2 004d70e4     cximage:ximabmp.obj
 0002:000120f4       __unwindtable$?Decode@CxImageBMP@@QAE_NPAVCxFile@@@Z 004d70f4     cximage:ximabmp.obj
 0002:00012104       __tryblocktable$?Decode@CxImageBMP@@QAE_NPAVCxFile@@@Z 004d7104     cximage:ximabmp.obj
 0002:00012118       __ehfuncinfo$?Decode@CxImageBMP@@QAE_NPAVCxFile@@@Z 004d7118     cximage:ximabmp.obj
 0002:00012190       __ehfuncinfo$?GrayScale@CxImage@@QAE_NXZ 004d7190     cximage:ximatran.obj
 0002:000121b4       __unwindtable$?GrayScale@CxImage@@QAE_NXZ 004d71b4     cximage:ximatran.obj
 0002:000121e4       __unwindtable$?Flip@CxImage@@QAE_NXZ 004d71e4     cximage:ximatran.obj
 0002:000121ec       __ehfuncinfo$?Flip@CxImage@@QAE_NXZ 004d71ec     cximage:ximatran.obj
 0002:00012210       __unwindtable$?Mirror@CxImage@@QAE_NXZ 004d7210     cximage:ximatran.obj
 0002:00012218       __ehfuncinfo$?Mirror@CxImage@@QAE_NXZ 004d7218     cximage:ximatran.obj
 0002:0001223c       __unwindtable$?RotateLeft@CxImage@@QAE_NPAV1@@Z 004d723c     cximage:ximatran.obj
 0002:0001223c       __unwindtable$?RotateRight@CxImage@@QAE_NPAV1@@Z 004d723c     cximage:ximatran.obj
 0002:0001224c       __ehfuncinfo$?RotateLeft@CxImage@@QAE_NPAV1@@Z 004d724c     cximage:ximatran.obj
 0002:0001224c       __ehfuncinfo$?RotateRight@CxImage@@QAE_NPAV1@@Z 004d724c     cximage:ximatran.obj
 0002:00012270       __sehtable$___scrt_is_nonwritable_in_current_image 004d7270     MSVCRT:utility.obj
 0002:00012290       __sehtable$??_M@YGXPAXIIP6EX0@Z@Z 004d7290     MSVCRT:ehvecdtr.obj
 0002:000122b0       __sehtable$?__ArrayUnwind@@YGXPAXIIP6EX0@Z@Z 004d72b0     MSVCRT:ehvecdtr.obj
 0002:000122d0       __sehtable$??_L@YGXPAXIIP6EX0@Z1@Z 004d72d0     MSVCRT:ehvecctr.obj
 0002:000122f0       __sehtable$?__scrt_common_main_seh@@YAHXZ 004d72f0     MSVCRT:exe_winmain.obj
 0002:00012410       .edata                     004d7410     Game.exp
 0002:00012438       rgpv                       004d7438     Game.exp
 0002:00012764       rgszName                   004d7764     Game.exp
 0002:00012a90       rgwOrd                     004d7a90     Game.exp
 0002:00012c26       szName                     004d7c26     Game.exp
 0002:00012c2f       $N00001                    004d7c2f     Game.exp
 0002:00012c62       $N00002                    004d7c62     Game.exp
 0002:00012c79       $N00003                    004d7c79     Game.exp
 0002:00012c8b       $N00004                    004d7c8b     Game.exp
 0002:00012ca4       $N00005                    004d7ca4     Game.exp
 0002:00012cc3       $N00006                    004d7cc3     Game.exp
 0002:00012cdf       $N00007                    004d7cdf     Game.exp
 0002:00012cf3       $N00008                    004d7cf3     Game.exp
 0002:00012d0a       $N00009                    004d7d0a     Game.exp
 0002:00012d22       $N00010                    004d7d22     Game.exp
 0002:00012d41       $N00011                    004d7d41     Game.exp
 0002:00012d60       $N00012                    004d7d60     Game.exp
 0002:00012d77       $N00013                    004d7d77     Game.exp
 0002:00012d92       $N00014                    004d7d92     Game.exp
 0002:00012da8       $N00015                    004d7da8     Game.exp
 0002:00012dc2       $N00016                    004d7dc2     Game.exp
 0002:00012ddb       $N00017                    004d7ddb     Game.exp
 0002:00012dfc       $N00018                    004d7dfc     Game.exp
 0002:00012e0e       $N00019                    004d7e0e     Game.exp
 0002:00012e22       $N00020                    004d7e22     Game.exp
 0002:00012e35       $N00021                    004d7e35     Game.exp
 0002:00012e4b       $N00022                    004d7e4b     Game.exp
 0002:00012e60       $N00023                    004d7e60     Game.exp
 0002:00012e8c       $N00024                    004d7e8c     Game.exp
 0002:00012ea7       $N00025                    004d7ea7     Game.exp
 0002:00012ec4       $N00026                    004d7ec4     Game.exp
 0002:00012ee0       $N00027                    004d7ee0     Game.exp
 0002:00012eff       $N00028                    004d7eff     Game.exp
 0002:00012f1d       $N00029                    004d7f1d     Game.exp
 0002:00012f3a       $N00030                    004d7f3a     Game.exp
 0002:00012f56       $N00031                    004d7f56     Game.exp
 0002:00012f66       $N00032                    004d7f66     Game.exp
 0002:00012f78       $N00033                    004d7f78     Game.exp
 0002:00012f89       $N00034                    004d7f89     Game.exp
 0002:00012f9d       $N00035                    004d7f9d     Game.exp
 0002:00012fb0       $N00036                    004d7fb0     Game.exp
 0002:00012fd2       $N00037                    004d7fd2     Game.exp
 0002:00012fe7       $N00038                    004d7fe7     Game.exp
 0002:00012ffb       $N00039                    004d7ffb     Game.exp
 0002:00013011       $N00040                    004d8011     Game.exp
 0002:0001302a       $N00041                    004d802a     Game.exp
 0002:00013044       $N00042                    004d8044     Game.exp
 0002:00013069       $N00043                    004d8069     Game.exp
 0002:00013089       $N00044                    004d8089     Game.exp
 0002:000130bc       $N00045                    004d80bc     Game.exp
 0002:000130f0       $N00046                    004d80f0     Game.exp
 0002:00013116       $N00047                    004d8116     Game.exp
 0002:00013140       $N00048                    004d8140     Game.exp
 0002:00013158       $N00049                    004d8158     Game.exp
 0002:00013171       $N00050                    004d8171     Game.exp
 0002:0001318b       $N00051                    004d818b     Game.exp
 0002:000131ad       $N00052                    004d81ad     Game.exp
 0002:000131e1       $N00053                    004d81e1     Game.exp
 0002:00013200       $N00054                    004d8200     Game.exp
 0002:0001321f       $N00055                    004d821f     Game.exp
 0002:0001323d       $N00056                    004d823d     Game.exp
 0002:00013268       $N00057                    004d8268     Game.exp
 0002:00013296       $N00058                    004d8296     Game.exp
 0002:000132b4       $N00059                    004d82b4     Game.exp
 0002:000132d9       $N00060                    004d82d9     Game.exp
 0002:000132fe       $N00061                    004d82fe     Game.exp
 0002:00013325       $N00062                    004d8325     Game.exp
 0002:0001334c       $N00063                    004d834c     Game.exp
 0002:00013383       $N00064                    004d8383     Game.exp
 0002:000133ae       $N00065                    004d83ae     Game.exp
 0002:000133d9       $N00066                    004d83d9     Game.exp
 0002:000133f3       $N00067                    004d83f3     Game.exp
 0002:00013424       $N00068                    004d8424     Game.exp
 0002:00013443       $N00069                    004d8443     Game.exp
 0002:00013470       $N00070                    004d8470     Game.exp
 0002:0001348a       $N00071                    004d848a     Game.exp
 0002:000134b0       $N00072                    004d84b0     Game.exp
 0002:000134d9       $N00073                    004d84d9     Game.exp
 0002:000134fb       $N00074                    004d84fb     Game.exp
 0002:00013520       $N00075                    004d8520     Game.exp
 0002:0001354d       $N00076                    004d854d     Game.exp
 0002:00013572       $N00077                    004d8572     Game.exp
 0002:0001359f       $N00078                    004d859f     Game.exp
 0002:000135c6       $N00079                    004d85c6     Game.exp
 0002:000135ed       $N00080                    004d85ed     Game.exp
 0002:00013623       $N00081                    004d8623     Game.exp
 0002:00013650       $N00082                    004d8650     Game.exp
 0002:00013667       $N00083                    004d8667     Game.exp
 0002:0001367f       $N00084                    004d867f     Game.exp
 0002:00013697       $N00085                    004d8697     Game.exp
 0002:000136b0       $N00086                    004d86b0     Game.exp
 0002:000136de       $N00087                    004d86de     Game.exp
 0002:000136f5       $N00088                    004d86f5     Game.exp
 0002:0001370e       $N00089                    004d870e     Game.exp
 0002:00013728       $N00090                    004d8728     Game.exp
 0002:00013740       $N00091                    004d8740     Game.exp
 0002:0001375f       $N00092                    004d875f     Game.exp
 0002:00013788       $N00093                    004d8788     Game.exp
 0002:000137b1       $N00094                    004d87b1     Game.exp
 0002:000137da       $N00095                    004d87da     Game.exp
 0002:00013803       $N00096                    004d8803     Game.exp
 0002:0001381f       $N00097                    004d881f     Game.exp
 0002:00013837       $N00098                    004d8837     Game.exp
 0002:00013858       $N00099                    004d8858     Game.exp
 0002:0001386f       $N00100                    004d886f     Game.exp
 0002:00013887       $N00101                    004d8887     Game.exp
 0002:000138a8       $N00102                    004d88a8     Game.exp
 0002:000138c9       $N00103                    004d88c9     Game.exp
 0002:000138e7       $N00104                    004d88e7     Game.exp
 0002:00013901       $N00105                    004d8901     Game.exp
 0002:0001391e       $N00106                    004d891e     Game.exp
 0002:00013939       $N00107                    004d8939     Game.exp
 0002:00013953       $N00108                    004d8953     Game.exp
 0002:0001396d       $N00109                    004d896d     Game.exp
 0002:0001398c       $N00110                    004d898c     Game.exp
 0002:000139a7       $N00111                    004d89a7     Game.exp
 0002:000139c7       $N00112                    004d89c7     Game.exp
 0002:000139e5       $N00113                    004d89e5     Game.exp
 0002:00013a05       $N00114                    004d8a05     Game.exp
 0002:00013a33       $N00115                    004d8a33     Game.exp
 0002:00013a51       $N00116                    004d8a51     Game.exp
 0002:00013a6f       $N00117                    004d8a6f     Game.exp
 0002:00013a8e       $N00118                    004d8a8e     Game.exp
 0002:00013ab8       $N00119                    004d8ab8     Game.exp
 0002:00013ae8       $N00120                    004d8ae8     Game.exp
 0002:00013b10       $N00121                    004d8b10     Game.exp
 0002:00013b30       $N00122                    004d8b30     Game.exp
 0002:00013b61       $N00123                    004d8b61     Game.exp
 0002:00013b81       $N00124                    004d8b81     Game.exp
 0002:00013ba2       $N00125                    004d8ba2     Game.exp
 0002:00013bbf       $N00126                    004d8bbf     Game.exp
 0002:00013bd8       $N00127                    004d8bd8     Game.exp
 0002:00013c05       $N00128                    004d8c05     Game.exp
 0002:00013c24       $N00129                    004d8c24     Game.exp
 0002:00013c3d       $N00130                    004d8c3d     Game.exp
 0002:00013c5b       $N00131                    004d8c5b     Game.exp
 0002:00013c7f       $N00132                    004d8c7f     Game.exp
 0002:00013c99       $N00133                    004d8c99     Game.exp
 0002:00013cb2       $N00134                    004d8cb2     Game.exp
 0002:00013ccb       $N00135                    004d8ccb     Game.exp
 0002:00013ce7       $N00136                    004d8ce7     Game.exp
 0002:00013d03       $N00137                    004d8d03     Game.exp
 0002:00013d1f       $N00138                    004d8d1f     Game.exp
 0002:00013d3d       $N00139                    004d8d3d     Game.exp
 0002:00013d59       $N00140                    004d8d59     Game.exp
 0002:00013d76       $N00141                    004d8d76     Game.exp
 0002:00013d9d       $N00142                    004d8d9d     Game.exp
 0002:00013dbf       $N00143                    004d8dbf     Game.exp
 0002:00013ddf       $N00144                    004d8ddf     Game.exp
 0002:00013df9       $N00145                    004d8df9     Game.exp
 0002:00013e14       $N00146                    004d8e14     Game.exp
 0002:00013e50       $N00147                    004d8e50     Game.exp
 0002:00013e69       $N00148                    004d8e69     Game.exp
 0002:00013e84       $N00149                    004d8e84     Game.exp
 0002:00013ea0       $N00150                    004d8ea0     Game.exp
 0002:00013eb9       $N00151                    004d8eb9     Game.exp
 0002:00013f04       $N00152                    004d8f04     Game.exp
 0002:00013f1b       $N00153                    004d8f1b     Game.exp
 0002:00013f34       $N00154                    004d8f34     Game.exp
 0002:00013f4e       $N00155                    004d8f4e     Game.exp
 0002:00013f78       $N00156                    004d8f78     Game.exp
 0002:00013f96       $N00157                    004d8f96     Game.exp
 0002:00013fc2       $N00158                    004d8fc2     Game.exp
 0002:00013fde       $N00159                    004d8fde     Game.exp
 0002:00013ffb       $N00160                    004d8ffb     Game.exp
 0002:0001401d       $N00161                    004d901d     Game.exp
 0002:00014040       $N00162                    004d9040     Game.exp
 0002:0001405b       $N00163                    004d905b     Game.exp
 0002:00014075       $N00164                    004d9075     Game.exp
 0002:00014090       $N00165                    004d9090     Game.exp
 0002:000140b2       $N00166                    004d90b2     Game.exp
 0002:000140d5       $N00167                    004d90d5     Game.exp
 0002:000140f1       $N00168                    004d90f1     Game.exp
 0002:0001410e       $N00169                    004d910e     Game.exp
 0002:00014129       $N00170                    004d9129     Game.exp
 0002:00014149       $N00171                    004d9149     Game.exp
 0002:00014169       $N00172                    004d9169     Game.exp
 0002:0001418a       $N00173                    004d918a     Game.exp
 0002:000141a9       $N00174                    004d91a9     Game.exp
 0002:000141c6       $N00175                    004d91c6     Game.exp
 0002:000141e8       $N00176                    004d91e8     Game.exp
 0002:00014214       $N00177                    004d9214     Game.exp
 0002:00014240       $N00178                    004d9240     Game.exp
 0002:00014266       $N00179                    004d9266     Game.exp
 0002:00014289       $N00180                    004d9289     Game.exp
 0002:000142b8       $N00181                    004d92b8     Game.exp
 0002:000142da       $N00182                    004d92da     Game.exp
 0002:0001430a       $N00183                    004d930a     Game.exp
 0002:0001432c       $N00184                    004d932c     Game.exp
 0002:0001434a       $N00185                    004d934a     Game.exp
 0002:00014369       $N00186                    004d9369     Game.exp
 0002:00014395       $N00187                    004d9395     Game.exp
 0002:000143b5       $N00188                    004d93b5     Game.exp
 0002:000143cf       $N00189                    004d93cf     Game.exp
 0002:000143e9       $N00190                    004d93e9     Game.exp
 0002:00014400       $N00191                    004d9400     Game.exp
 0002:00014418       $N00192                    004d9418     Game.exp
 0002:00014432       $N00193                    004d9432     Game.exp
 0002:0001444f       $N00194                    004d944f     Game.exp
 0002:00014466       $N00195                    004d9466     Game.exp
 0002:0001447e       $N00196                    004d947e     Game.exp
 0002:0001449e       $N00197                    004d949e     Game.exp
 0002:000144bb       $N00198                    004d94bb     Game.exp
 0002:000144d9       $N00199                    004d94d9     Game.exp
 0002:00014508       $N00200                    004d9508     Game.exp
 0002:00014539       $N00201                    004d9539     Game.exp
 0002:00014569       $N00202                    004d9569     Game.exp
 0002:0001458e       $N00203                    004d958e     Game.exp
 0002:00014bd4       .idata$6                   004d9bd4     search:search.dll
 0002:00014be0       .idata$6                   004d9be0     wsock32:WSOCK32.dll
 0002:00014c02       .idata$6                   004d9c02     DINPUT:DINPUT.dll
 0002:00014c0e       .idata$6                   004d9c0e     DSOUND:DSOUND.dll
 0002:00014c30       .idata$6                   004d9c30     ddraw:DDRAW.dll
 0002:00014c7a       .idata$6                   004d9c7a     IMM32:IMM32.dll
 0002:00014ce6       .idata$6                   004d9ce6     winmm:WINMM.dll
 0002:00014e7c       .idata$6                   004d9e7c     kernel32:KERNEL32.dll
 0002:0001505e       .idata$6                   004da05e     user32:USER32.dll
 0002:0001514c       .idata$6                   004da14c     gdi32:GDI32.dll
 0002:0001519c       .idata$6                   004da19c     advapi32:ADVAPI32.dll
 0002:00015980       .idata$6                   004da980     msvcprt:MSVCP140.dll
 0002:000159c8       .idata$6                   004da9c8     d3d11:d3d11.dll
 0002:000159e8       .idata$6                   004da9e8     d3dcompiler:D3DCOMPILER_47.dll
 0002:00015b1a       .idata$6                   004dab1a     vcruntime:VCRUNTIME140.dll
 0002:00015f02       .idata$6                   004daf02     ucrt:api-ms-win-crt-stdio-l1-1-0.dll
 0002:00015f22       .idata$6                   004daf22     ucrt:api-ms-win-crt-string-l1-1-0.dll
 0002:00015f44       .idata$6                   004daf44     ucrt:api-ms-win-crt-utility-l1-1-0.dll
 0002:00015f66       .idata$6                   004daf66     ucrt:api-ms-win-crt-runtime-l1-1-0.dll
 0002:00015f88       .idata$6                   004daf88     ucrt:api-ms-win-crt-filesystem-l1-1-0.dll
 0002:00015fae       .idata$6                   004dafae     ucrt:api-ms-win-crt-time-l1-1-0.dll
 0002:00015fce       .idata$6                   004dafce     ucrt:api-ms-win-crt-convert-l1-1-0.dll
 0002:00015ff0       .idata$6                   004daff0     ucrt:api-ms-win-crt-math-l1-1-0.dll
 0002:00016010       .idata$6                   004db010     ucrt:api-ms-win-crt-heap-l1-1-0.dll
 0002:00016030       .idata$6                   004db030     ucrt:api-ms-win-crt-environment-l1-1-0.dll
 0002:00016056       .idata$6                   004db056     ucrt:api-ms-win-crt-locale-l1-1-0.dll
 0003:00000000       ?JfifHead@?7??EncodeExif@CxExifInfo@CxImageJPG@@QAE_NPAVCxFile@@@Z@4PAEA 004dc000     cximage:ximaexif.obj
 0003:000000a8       ?comment_chars@?1??LoadCurse@CCurse@@QAEXPBD@Z@4PADA 004dc0a8     Curse.obj
 0003:000000ac       ?iXmasTreeBulbDelay@?1??DrawObjects@CGame@@QAEXFFFFFFFF@Z@4HA 004dc0ac     Game.obj
 0003:000000b0       ?sMCAnimFrame@?1??DrawObjects@CGame@@QAEXFFFFFFFF@Z@4FA 004dc0b0     Game.obj
 0003:000000b4       ?iUpdateRet@?1??UpdateScreen_OnGame@CGame@@QAEXXZ@4HA 004dc0b4     Game.obj
 0003:000005c0       _GS_ExceptionRecord        004dc5c0     MSVCRT:gs_report.obj
 0003:00000610       _GS_ContextRecord          004dc610     MSVCRT:gs_report.obj
 0003:000008dc       ?g_tss_cv@@3U_RTL_CONDITION_VARIABLE@@A 004dc8dc     MSVCRT:thread_safe_statics.obj
 0003:000008e0       ?g_tss_srw@@3U_RTL_SRWLOCK@@A 004dc8e0     MSVCRT:thread_safe_statics.obj
 0003:000008ec       ?is_initialized_as_dll@@3_NA 004dc8ec     MSVCRT:utility.obj
 0003:000008ed       ?module_local_atexit_table_initialized@@3_NA 004dc8ed     MSVCRT:utility.obj
 0003:000008f0       ?module_local_atexit_table@@3U_onexit_table_t@@A 004dc8f0     MSVCRT:utility.obj
 0003:000008fc       ?module_local_at_quick_exit_table@@3U_onexit_table_t@@A 004dc8fc     MSVCRT:utility.obj
 0003:00000928       ?_Fac_head@std@@3PAU_Fac_node@1@A 004dc928     msvcprt:locale0_implib.obj
 0003:0000092c       ?_Fac_tidy_reg@std@@3U_Fac_tidy_reg_t@1@B 004dc92c     msvcprt:locale0_implib.obj
 0003:000a85c8       ?curse_string@@3PADA       005845c8     Curse.obj
 0003:000aa120       ?iNum@?1??DrawWhetherEffects@CGame@@QAEXXZ@4HA 00586120     Game.obj
 0003:000aa128       ?dwPrevChatTime@?1??UpdateScreen_OnGame@CGame@@QAEXXZ@4KA 00586128     Game.obj
 0003:000aa12c       ?dwLastFrame@?1??EventLoop@@YAXXZ@4KA 0058612c     Wmain.obj
 0003:000aa130       ?cPrevFocus@?1??UpdateScreen_OnLogin@CGame@@QAEXXZ@4DA 00586130     Game.obj
 0003:000aa134       ?cTempQuiz@?1??UpdateScreen_OnCreateNewAccount@CGame@@QAEXXZ@4PADA 00586134     Game.obj
 0003:000aa160       ?$TSS0@?1??DrawObjects@CGame@@QAEXFFFFFFFF@Z@4HA 00586160     Game.obj
 0003:000aa164       ?pMI@?1??UpdateScreen_OnCreateNewAccount@CGame@@QAEXXZ@4PAVCMouseInterface@@A 00586164     Game.obj
 0003:000aa170       ?dwCTime@?1??UpdateScreen_OnWaitingResponse@CGame@@QAEXXZ@4KA 00586170     Game.obj
 0003:000aa174       ?cPrevFocus@?1??UpdateScreen_OnSelectServer@CGame@@QAEXXZ@4DA 00586174     Game.obj
 0003:000aa175       ?cPrevFocus@?1??UpdateScreen_OnCreateNewCharacter@CGame@@QAEXXZ@4DA 00586175     Game.obj
 0003:000aa178       ?cPassword@?1??UpdateScreen_OnChangePassword@CGame@@QAEXXZ@4PADA 00586178     Game.obj
 0003:000aa184       ?dwMTime@?1??UpdateScreen_OnCreateNewCharacter@CGame@@QAEXXZ@4KA 00586184     Game.obj
 0003:000aa188       ?cSSN_A@?1??UpdateScreen_OnCreateNewAccount@CGame@@QAEXXZ@4PADA 00586188     Game.obj
 0003:000aa190       ?ix1@?1??DrawObjects@CGame@@QAEXFFFFFFFF@Z@4PAHA 00586190     Game.obj
 0003:000aa320       ?dwMTime@?1??UpdateScreen_OnConnecting@CGame@@QAEXXZ@4KA 00586320     Game.obj
 0003:000aa324       ?pMI@?1??UpdateScreen_OnQuit@CGame@@QAEXXZ@4PAVCMouseInterface@@A 00586324     Game.obj
 0003:000aa328       ?cPassword@?1??UpdateScreen_OnLogin@CGame@@QAEXXZ@4PADA 00586328     Game.obj
 0003:000aa334       ?cSSN_B@?1??UpdateScreen_OnCreateNewAccount@CGame@@QAEXXZ@4PADA 00586334     Game.obj
 0003:000aa33c       ?dwCTime@?1??UpdateScreen_OnChangePassword@CGame@@QAEXXZ@4KA 0058633c     Game.obj
 0003:000aa340       ?cNewPassword@?1??UpdateScreen_OnChangePassword@CGame@@QAEXXZ@4PADA 00586340     Game.obj
 0003:000aa34c       ?pMI@?1??UpdateScreen_OnQueryForceLogin@CGame@@QAEXXZ@4PAVCMouseInterface@@A 0058634c     Game.obj
 0003:000aa350       ?dwCTime@?1??UpdateScreen_OnQueryForceLogin@CGame@@QAEXXZ@4KA 00586350     Game.obj
 0003:000aa354       ?pMI@?1??UpdateScreen_OnSelectCharacter@CGame@@QAEXXZ@4PAVCMouseInterface@@A 00586354     Game.obj
 0003:000aa358       ?pMI@?1??UpdateScreen_OnMainMenu@CGame@@QAEXXZ@4PAVCMouseInterface@@A 00586358     Game.obj
 0003:000aa35c       ?cPrevFocus@?1??UpdateScreen_OnChangePassword@CGame@@QAEXXZ@4DA 0058635c     Game.obj
 0003:000aa360       ?pMI@?1??UpdateScreen_OnLogin@CGame@@QAEXXZ@4PAVCMouseInterface@@A 00586360     Game.obj
 0003:000aa368       ?logFile@?1??LogDebug@@YAXPBDZZ@4V?$basic_ofstream@DU?$char_traits@D@std@@@std@@A 00586368     Game.obj
 0003:000aa418       ?dwCTime@?1??UpdateScreen_OnConnecting@CGame@@QAEXXZ@4KA 00586418     Game.obj
 0003:000aa420       ?iFrame@?1??DrawWhetherEffects@CGame@@QAEXXZ@4PAHA 00586420     Game.obj
 0003:000ab3c0       ?$TSS0@?1??LogDebug@@YAXPBDZZ@4HA 005873c0     Game.obj
 0003:000ab3c4       ?cAnswer@?1??UpdateScreen_OnCreateNewAccount@CGame@@QAEXXZ@4PADA 005873c4     Game.obj
 0003:000ab3d8       ?dwCTime@?1??UpdateScreen_OnLogResMsg@CGame@@QAEXXZ@4KA 005873d8     Game.obj
 0003:000ab3dc       ?pMI@?1??UpdateScreen_OnSelectServer@CGame@@QAEXXZ@4PAVCMouseInterface@@A 005873dc     Game.obj
 0003:000ab3e0       ?cPassword@?1??UpdateScreen_OnCreateNewAccount@CGame@@QAEXXZ@4PADA 005873e0     Game.obj
 0003:000ab3ec       ?cQuiz@?1??UpdateScreen_OnCreateNewAccount@CGame@@QAEXXZ@4PADA 005873ec     Game.obj
 0003:000ab418       ?cName@?1??UpdateScreen_OnCreateNewAccount@CGame@@QAEXXZ@4PADA 00587418     Game.obj
 0003:000ab424       ?cNewPassConfirm@?1??UpdateScreen_OnChangePassword@CGame@@QAEXXZ@4PADA 00587424     Game.obj
 0003:000ab430       ?pMI@?1??UpdateScreen_OnChangePassword@CGame@@QAEXXZ@4PAVCMouseInterface@@A 00587430     Game.obj
 0003:000ab434       ?cName@?1??UpdateScreen_OnLogin@CGame@@QAEXXZ@4PADA 00587434     Game.obj
 0003:000ab440       ?pMI@?1??UpdateScreen_OnCreateNewCharacter@CGame@@QAEXXZ@4PAVCMouseInterface@@A 00587440     Game.obj
 0003:000ab444       ?cPrevFocus@?1??UpdateScreen_OnCreateNewAccount@CGame@@QAEXXZ@4DA 00587444     Game.obj
 0003:000ab448       ?iy2@?1??DrawWhetherEffects@CGame@@QAEXXZ@4PAHA 00587448     Game.obj
 0003:000ac3e8       ?cName@?1??UpdateScreen_OnChangePassword@CGame@@QAEXXZ@4PADA 005883e8     Game.obj
 0003:000ac3f4       ?pMI@?1??UpdateScreen_OnLogResMsg@CGame@@QAEXXZ@4PAVCMouseInterface@@A 005883f4     Game.obj
 0003:000ac3f8       ?dwMCAnimTime@?1??DrawObjects@CGame@@QAEXFFFFFFFF@Z@4KA 005883f8     Game.obj
 0003:000ac3fc       ?dwCTime@?1??UpdateScreen_OnSelectCharacter@CGame@@QAEXXZ@4KA 005883fc     Game.obj
 0003:000ac400       ?dwCTime@?1??UpdateScreen_OnQueryDeleteCharacter@CGame@@QAEXXZ@4KA 00588400     Game.obj
 0003:000ac404       ?pMI@?1??UpdateScreen_OnVersionNotMatch@CGame@@QAEXXZ@4PAVCMouseInterface@@A 00588404     Game.obj
 0003:000ac408       ?ix1@?1??DrawWhetherEffects@CGame@@QAEXXZ@4PAHA 00588408     Game.obj
 0003:000ad3a8       ?iPoint@?1??UpdateScreen_OnCreateNewCharacter@CGame@@QAEXXZ@4HA 005893a8     Game.obj
 0003:000ad3ac       ?cConfirm@?1??UpdateScreen_OnCreateNewAccount@CGame@@QAEXXZ@4PADA 005893ac     Game.obj
 0003:000ad3b8       ?pMI@?1??UpdateScreen_OnQueryDeleteCharacter@CGame@@QAEXXZ@4PAVCMouseInterface@@A 005893b8     Game.obj
 0003:000ad3c0       ?iy2@?1??DrawObjects@CGame@@QAEXFFFFFFFF@Z@4PAHA 005893c0     Game.obj
 0003:000ad550       ?dwTime@?1??UpdateScreen_OnConnectionLost@CGame@@QAEXXZ@4KA 00589550     Game.obj
 0003:000ad554       ?cName@?1??UpdateScreen_OnCreateNewCharacter@CGame@@QAEXXZ@4PADA 00589554     Game.obj
 0003:000ad560       ?$TSS0@?1??iObjectFrameCounter@CMapData@@QAEHPADFF@Z@4HA 00589560     MapData.obj
 0003:000ad564       ?S_dwUpdateTime@?1??iObjectFrameCounter@CMapData@@QAEHPADFF@Z@4KA 00589564     MapData.obj
 0004:000001f0       $R000000                   0058a1f0     resource.res
 0004:000004d8       $R0002E8                   0058a4d8     resource.res
 0004:00000600       $R000410                   0058a600     resource.res
 0004:00000ea8       $R000CB8                   0058aea8     resource.res
 0004:00000ed8       $R000CE8                   0058aed8     resource.res
 0004:00001780       $R001590                   0058b780     resource.res
 0004:00001798       $R0015A8                   0058b798     resource.res
 0004:00001e60       $R001C70                   0058be60     resource.res
